gplink-2.2.37 (Jan 22 2024)
Listing File Generated: 2024-12-17  17:37:25
 
 
Address  Value    Disassembly              Source
-------  -----    -----------              ------
                                           ;--------------------------------------------------------
                                           ; external declarations
                                           ;--------------------------------------------------------
                                           	extern	__moduint
                                           	extern	__divuint
                                           	extern	_INDF0bits
                                           	extern	_INDF1bits
                                           	extern	_INDF2bits
                                           	extern	_HIBYTEbits
                                           	extern	_FSR0bits
                                           	extern	_FSR1bits
                                           	extern	_PCLbits
                                           	extern	_PFLAGbits
                                           	extern	_MCRbits
                                           	extern	_INDF3bits
                                           	extern	_INTEbits
                                           	extern	_INTFbits
                                           	extern	_DRVCRbits
                                           	extern	_P0KBCRbits
                                           	extern	_P1KBCRbits
                                           	extern	_P2KBCRbits
                                           	extern	_IOP0bits
                                           	extern	_OEP0bits
                                           	extern	_PUP0bits
                                           	extern	_PDP0bits
                                           	extern	_IOP1bits
                                           	extern	_OEP1bits
                                           	extern	_PUP1bits
                                           	extern	_PDP1bits
                                           	extern	_T0CRbits
                                           	extern	_T0CNTbits
                                           	extern	_T0LOADbits
                                           	extern	_T0DATAbits
                                           	extern	_T1CRbits
                                           	extern	_T1CNTbits
                                           	extern	_T1LOADbits
                                           	extern	_T1DATAbits
                                           	extern	_T2CRbits
                                           	extern	_T2CNTbits
                                           	extern	_T2LOADbits
                                           	extern	_T2DATAbits
                                           	extern	_T3CRbits
                                           	extern	_T3CNTbits
                                           	extern	_T3LOADbits
                                           	extern	_PWM0DRbits
                                           	extern	_PWM1DRbits
                                           	extern	_PWM2DRbits
                                           	extern	_PWMCR0bits
                                           	extern	_PWMCR1bits
                                           	extern	_OSCMRbits
                                           	extern	_LVDCRbits
                                           	extern	_ADCR0bits
                                           	extern	_ADCR1bits
                                           	extern	_ADCR2bits
                                           	extern	_OSADJCRbits
                                           	extern	_ADRHbits
                                           	extern	_ADRLbits
                                           	extern	_P0ADCRbits
                                           	extern	_P1ADCRbits
                                           	extern	_IOP2bits
                                           	extern	_OEP2bits
                                           	extern	_PUP2bits
                                           	extern	_PDP2bits
                                           	extern	_PMODbits
                                           	extern	_PWMCR3bits
                                           	extern	_PWMCR2bits
                                           	extern	_PFRCCRbits
                                           	extern	_PFRCCALbits
                                           	extern	_EECRbits
                                           	extern	_EEPRbits
                                           	extern	_EEARbits
                                           	extern	_EEDRHbits
                                           	extern	_EEDRLbits
                                           	extern	_DBGCRbits
                                           	extern	_DBGPRbits
                                           	extern	_HIRCCALbits
                                           	extern	_INDF0
                                           	extern	_INDF1
                                           	extern	_INDF2
                                           	extern	_HIBYTE
                                           	extern	_FSR0
                                           	extern	_FSR1
                                           	extern	_PCL
                                           	extern	_PFLAG
                                           	extern	_MCR
                                           	extern	_INDF3
                                           	extern	_INTE
                                           	extern	_INTF
                                           	extern	_DRVCR
                                           	extern	_P0KBCR
                                           	extern	_P1KBCR
                                           	extern	_P2KBCR
                                           	extern	_IOP0
                                           	extern	_OEP0
                                           	extern	_PUP0
                                           	extern	_PDP0
                                           	extern	_IOP1
                                           	extern	_OEP1
                                           	extern	_PUP1
                                           	extern	_PDP1
                                           	extern	_T0CR
                                           	extern	_T0CNT
                                           	extern	_T0LOAD
                                           	extern	_T0DATA
                                           	extern	_T1CR
                                           	extern	_T1CNT
                                           	extern	_T1LOAD
                                           	extern	_T1DATA
                                           	extern	_T2CR
                                           	extern	_T2CNT
                                           	extern	_T2LOAD
                                           	extern	_T2DATA
                                           	extern	_T3CR
                                           	extern	_T3CNT
                                           	extern	_T3LOAD
                                           	extern	_PWM0DR
                                           	extern	_PWM1DR
                                           	extern	_PWM2DR
                                           	extern	_PWMCR0
                                           	extern	_PWMCR1
                                           	extern	_OSCMR
                                           	extern	_LVDCR
                                           	extern	_ADCR0
                                           	extern	_ADCR1
                                           	extern	_ADCR2
                                           	extern	_OSADJCR
                                           	extern	_ADRH
                                           	extern	_ADRL
                                           	extern	_P0ADCR
                                           	extern	_P1ADCR
                                           	extern	_IOP2
                                           	extern	_OEP2
                                           	extern	_PUP2
                                           	extern	_PDP2
                                           	extern	_PMOD
                                           	extern	_PWMCR3
                                           	extern	_PWMCR2
                                           	extern	_PFRCCR
                                           	extern	_PFRCCAL
                                           	extern	_EECR
                                           	extern	_EEPR
                                           	extern	_EEAR
                                           	extern	_EEDRH
                                           	extern	_EEDRL
                                           	extern	_DBGCR
                                           	extern	_DBGPR
                                           	extern	_HIRCCAL
                                           	extern	__gptrget1
                                           	extern	__mulchar
                                           ;--------------------------------------------------------
                                           ; global declarations
                                           ;--------------------------------------------------------
                                           	global	_Sys_Init
                                           	global	_IO_Init
                                           	global	_CLR_RAM
                                           	global	_delay_ms
                                           	global	_send_data_msb
                                           	global	_delay_us
                                           	global	_adc_config
                                           	global	_timer0_config
                                           	global	_timer1_config
                                           	global	_timer3_config
                                           	global	_pwm_led_config
                                           	global	_start_send
                                           	global	_timer_100us_isr
                                           	global	_example
                                           	global	_adc_channel_sel
                                           	global	_adc_single_convert
                                           	global	_adc_get_val
                                           	global	_get_key_id
                                           	global	_ad_key_event_10ms_isr
                                           	global	_key_ad_key_event_deal
                                           	global	_bsp_i2c_init
                                           	global	_bsp_i2c_start
                                           	global	_bsp_i2c_tx_byte
                                           	global	_bsp_i2c_rx_ack
                                           	global	_bsp_i2c_stop
                                           	global	_TM1650_WriteByte
                                           	global	_TM1650_Clear
                                           	global	_TM1650_Init
                                           	global	_TM1650_DisplayBit
                                           	global	_TM1650_DisplayNum
                                           	global	_main
                                           	global	_int_isr
                                           	global	_abuf
                                           	global	_statusbuf
                                           	global	_i
                                           	global	_tmp
                                           	global	_pin_state
                                           	global	_adc_val_tmp
                                           	global	_adc_val_sum
                                           	global	_get_adcmax
                                           	global	_get_adcmin
                                           	global	_adc_val
                                           	global	_ad_key_event
                                           	global	_cur_key_id
                                           	global	_set_time_hold_cnt
                                           	global	_cur_time
                                           	global	_cur_status
                                           	global	_set_time_delay_cnt
                                           	global	_set_time_done_cnt
                                           	global	_flag1
                                           	global	_id_table
                                           	global	_key_event_table
                                           	global	_NUM_TABLE
                                           
                                           	global STK06
                                           	global STK05
                                           	global STK04
                                           	global STK03
                                           	global STK02
                                           	global STK01
                                           	global STK00
                                           
                                           sharebank udata_ovr 0x0000
                                           STK06	res 1
                                           STK05	res 1
                                           STK04	res 1
                                           STK03	res 1
                                           STK02	res 1
                                           STK01	res 1
                                           STK00	res 1
                                           
                                           ;--------------------------------------------------------
                                           ; global definitions
                                           ;--------------------------------------------------------
                                           UD_MC32F7361_0	udata
                                           _abuf	res	1
                                           
                                           UD_MC32F7361_1	udata
                                           _statusbuf	res	1
                                           
                                           UD_MC32F7361_2	udata
                                           _i	res	2
                                           
                                           UD_MC32F7361_3	udata
                                           _tmp	res	2
                                           
                                           UD_MC32F7361_4	udata
                                           _pin_state	res	1
                                           
                                           UD_MC32F7361_5	udata
                                           _adc_val_tmp	res	2
                                           
                                           UD_MC32F7361_6	udata
                                           _adc_val_sum	res	4
                                           
                                           UD_MC32F7361_7	udata
                                           _get_adcmax	res	2
                                           
                                           UD_MC32F7361_8	udata
                                           _get_adcmin	res	2
                                           
                                           UD_MC32F7361_9	udata
                                           _adc_val	res	2
                                           
                                           UD_MC32F7361_10	udata
                                           _ad_key_event	res	1
                                           
                                           UD_MC32F7361_11	udata
                                           _cur_key_id	res	1
                                           
                                           UD_MC32F7361_12	udata
                                           _set_time_hold_cnt	res	1
                                           
                                           UD_MC32F7361_13	udata
                                           _cur_time	res	2
                                           
                                           UD_MC32F7361_14	udata
                                           _cur_status	res	1
                                           
                                           UD_MC32F7361_15	udata
                                           _set_time_delay_cnt	res	2
                                           
                                           UD_MC32F7361_16	udata
                                           _set_time_done_cnt	res	2
                                           
                                           UD_MC32F7361_17	udata
                                           _flag1	res	1
                                           
                                           ;--------------------------------------------------------
                                           ; absolute symbol definitions
                                           ;--------------------------------------------------------
                                           ;--------------------------------------------------------
                                           ; compiler-defined variables
                                           ;--------------------------------------------------------
                                           UDL_MC32F7361_0	udata
                                           r0x1056	res	1
                                           r0x1055	res	1
                                           r0x1054	res	1
                                           r0x1053	res	1
                                           r0x1057	res	1
                                           r0x1058	res	1
                                           r0x105C	res	1
                                           r0x105B	res	1
                                           r0x105A	res	1
                                           r0x1059	res	1
                                           r0x102B	res	1
                                           r0x102A	res	1
                                           r0x102C	res	1
                                           r0x102D	res	1
                                           r0x102E	res	1
                                           r0x102F	res	1
                                           r0x1041	res	1
                                           r0x1040	res	1
                                           r0x103F	res	1
                                           r0x1042	res	1
                                           r0x1043	res	1
                                           r0x1044	res	1
                                           r0x1045	res	1
                                           r0x1046	res	1
                                           r0x1047	res	1
                                           r0x104B	res	1
                                           r0x104C	res	1
                                           r0x104D	res	1
                                           r0x104F	res	1
                                           r0x104E	res	1
                                           r0x1050	res	1
                                           r0x1051	res	1
                                           r0x1052	res	1
                                           r0x1049	res	1
                                           r0x1048	res	1
                                           r0x1030	res	1
                                           r0x103B	res	1
                                           r0x103C	res	1
                                           r0x103D	res	1
                                           r0x103E	res	1
                                           r0x1031	res	1
                                           r0x1033	res	1
                                           r0x1034	res	1
                                           r0x1035	res	1
                                           r0x1032	res	1
                                           r0x1037	res	1
                                           r0x1036	res	1
                                           r0x1038	res	1
                                           r0x1039	res	1
                                           r0x103A	res	1
                                           r0x105D	res	1
                                           r0x105E	res	1
                                           _g_byte_count	res	1
                                           _g_bit_count	res	1
                                           _g_timer_count	res	1
                                           _g_data	res	3
                                           _g_last_pin_state	res	1
                                           _example_send_buf_65536_72	res	3
                                           _ad_key_event_10ms_isr_count_65536_89	res	1
                                           _ad_key_event_10ms_isr_last_65536_89	res	1
                                           _int_isr_timer1_cnt_131072_152	res	2
                                           _int_isr_timer3_cnt_131072_154	res	1
                                           ;--------------------------------------------------------
                                           ; initialized data
                                           ;--------------------------------------------------------
                                           
                                           ID_MC32F7361_0	idata
                                           _g_state
                                           	db	0x00
                                           
                                           
                                           ID_MC32F7361_1	code
                                           _id_table
000001   0024     dw      0x24             	dw 0x24
000002   004e     dw      0x4e             	dw 0x4e
000003   0071     dw      0x71             	dw 0x71
000004   008d     dw      0x8d             	dw 0x8d
000005   00c0     dw      0xc0             	dw 0xc0
000006   00f3     dw      0xf3             	dw 0xf3
                                           
                                           
                                           ID_MC32F7361_2	code
                                           _key_event_table
00067c   0000     nop                      	dw 0x00
00067d   0001     dw      0x1              	dw 0x01
00067e   0002     dw      0x2              	dw 0x02
00067f   0003     dw      0x3              	dw 0x03
000680   0004     dw      0x4              	dw 0x04
000681   0005     dw      0x5              	dw 0x05
000682   0006     dw      0x6              	dw 0x06
000683   0007     dw      0x7              	dw 0x07
000684   0008     dw      0x8              	dw 0x08
000685   0009     dsa                      	dw 0x09
000686   000a     daa                      	dw 0x0a
000687   000b     stop                     	dw 0x0b
000688   000c     return                   	dw 0x0c
000689   000d     retie                    	dw 0x0d
00068a   000e     clrwdt                   	dw 0x0e
00068b   000f     dw      0xf              	dw 0x0f
00068c   0010     djza                     	dw 0x10
00068d   0011     deca                     	dw 0x11
                                           
                                           
                                           ID_MC32F7361_3	code
                                           _NUM_TABLE
0006a0   00eb     dw      0xeb             	dw 0xeb
0006a1   0088     dw      0x88             	dw 0x88
0006a2   00b3     dw      0xb3             	dw 0xb3
0006a3   00ba     dw      0xba             	dw 0xba
0006a4   00d8     dw      0xd8             	dw 0xd8
0006a5   007a     dw      0x7a             	dw 0x7a
0006a6   007b     dw      0x7b             	dw 0x7b
0006a7   00a8     dw      0xa8             	dw 0xa8
0006a8   00fb     dw      0xfb             	dw 0xfb
0006a9   00fa     dw      0xfa             	dw 0xfa
                                           
                                           
                                           ;@Allocation info for local variables in function 'send_data_msb'
                                           ;@send_data_msb Sys_Init                  Allocated to registers ;size:2
                                           ;@send_data_msb CLR_RAM                   Allocated to registers ;size:2
                                           ;@send_data_msb IO_Init                   Allocated to registers ;size:2
                                           ;@send_data_msb delay_ms                  Allocated to registers ;size:2
                                           ;@send_data_msb send_data_msb             Allocated to registers ;size:2
                                           ;@send_data_msb INDF0bits                 Allocated to registers ;size:1
                                           ;@send_data_msb INDF1bits                 Allocated to registers ;size:1
                                           ;@send_data_msb INDF2bits                 Allocated to registers ;size:1
                                           ;@send_data_msb HIBYTEbits                Allocated to registers ;size:1
                                           ;@send_data_msb FSR0bits                  Allocated to registers ;size:1
                                           ;@send_data_msb FSR1bits                  Allocated to registers ;size:1
                                           ;@send_data_msb PCLbits                   Allocated to registers ;size:1
                                           ;@send_data_msb PFLAGbits                 Allocated to registers ;size:1
                                           ;@send_data_msb MCRbits                   Allocated to registers ;size:1
                                           ;@send_data_msb INDF3bits                 Allocated to registers ;size:1
                                           ;@send_data_msb INTEbits                  Allocated to registers ;size:1
                                           ;@send_data_msb INTFbits                  Allocated to registers ;size:1
                                           ;@send_data_msb DRVCRbits                 Allocated to registers ;size:1
                                           ;@send_data_msb P0KBCRbits                Allocated to registers ;size:1
                                           ;@send_data_msb P1KBCRbits                Allocated to registers ;size:1
                                           ;@send_data_msb P2KBCRbits                Allocated to registers ;size:1
                                           ;@send_data_msb IOP0bits                  Allocated to registers ;size:1
                                           ;@send_data_msb OEP0bits                  Allocated to registers ;size:1
                                           ;@send_data_msb PUP0bits                  Allocated to registers ;size:1
                                           ;@send_data_msb PDP0bits                  Allocated to registers ;size:1
                                           ;@send_data_msb IOP1bits                  Allocated to registers ;size:1
                                           ;@send_data_msb OEP1bits                  Allocated to registers ;size:1
                                           ;@send_data_msb PUP1bits                  Allocated to registers ;size:1
                                           ;@send_data_msb PDP1bits                  Allocated to registers ;size:1
                                           ;@send_data_msb T0CRbits                  Allocated to registers ;size:1
                                           ;@send_data_msb T0CNTbits                 Allocated to registers ;size:1
                                           ;@send_data_msb T0LOADbits                Allocated to registers ;size:1
                                           ;@send_data_msb T0DATAbits                Allocated to registers ;size:1
                                           ;@send_data_msb T1CRbits                  Allocated to registers ;size:1
                                           ;@send_data_msb T1CNTbits                 Allocated to registers ;size:1
                                           ;@send_data_msb T1LOADbits                Allocated to registers ;size:1
                                           ;@send_data_msb T1DATAbits                Allocated to registers ;size:1
                                           ;@send_data_msb T2CRbits                  Allocated to registers ;size:1
                                           ;@send_data_msb T2CNTbits                 Allocated to registers ;size:1
                                           ;@send_data_msb T2LOADbits                Allocated to registers ;size:1
                                           ;@send_data_msb T2DATAbits                Allocated to registers ;size:1
                                           ;@send_data_msb T3CRbits                  Allocated to registers ;size:1
                                           ;@send_data_msb T3CNTbits                 Allocated to registers ;size:1
                                           ;@send_data_msb T3LOADbits                Allocated to registers ;size:1
                                           ;@send_data_msb PWM0DRbits                Allocated to registers ;size:1
                                           ;@send_data_msb PWM1DRbits                Allocated to registers ;size:1
                                           ;@send_data_msb PWM2DRbits                Allocated to registers ;size:1
                                           ;@send_data_msb PWMCR0bits                Allocated to registers ;size:1
                                           ;@send_data_msb PWMCR1bits                Allocated to registers ;size:1
                                           ;@send_data_msb OSCMRbits                 Allocated to registers ;size:1
                                           ;@send_data_msb LVDCRbits                 Allocated to registers ;size:1
                                           ;@send_data_msb ADCR0bits                 Allocated to registers ;size:1
                                           ;@send_data_msb ADCR1bits                 Allocated to registers ;size:1
                                           ;@send_data_msb ADCR2bits                 Allocated to registers ;size:1
                                           ;@send_data_msb OSADJCRbits               Allocated to registers ;size:1
                                           ;@send_data_msb ADRHbits                  Allocated to registers ;size:1
                                           ;@send_data_msb ADRLbits                  Allocated to registers ;size:1
                                           ;@send_data_msb P0ADCRbits                Allocated to registers ;size:1
                                           ;@send_data_msb P1ADCRbits                Allocated to registers ;size:1
                                           ;@send_data_msb IOP2bits                  Allocated to registers ;size:1
                                           ;@send_data_msb OEP2bits                  Allocated to registers ;size:1
                                           ;@send_data_msb PUP2bits                  Allocated to registers ;size:1
                                           ;@send_data_msb PDP2bits                  Allocated to registers ;size:1
                                           ;@send_data_msb PMODbits                  Allocated to registers ;size:1
                                           ;@send_data_msb PWMCR3bits                Allocated to registers ;size:1
                                           ;@send_data_msb PWMCR2bits                Allocated to registers ;size:1
                                           ;@send_data_msb PFRCCRbits                Allocated to registers ;size:1
                                           ;@send_data_msb PFRCCALbits               Allocated to registers ;size:1
                                           ;@send_data_msb EECRbits                  Allocated to registers ;size:1
                                           ;@send_data_msb EEPRbits                  Allocated to registers ;size:1
                                           ;@send_data_msb EEARbits                  Allocated to registers ;size:1
                                           ;@send_data_msb EEDRHbits                 Allocated to registers ;size:1
                                           ;@send_data_msb EEDRLbits                 Allocated to registers ;size:1
                                           ;@send_data_msb DBGCRbits                 Allocated to registers ;size:1
                                           ;@send_data_msb DBGPRbits                 Allocated to registers ;size:1
                                           ;@send_data_msb HIRCCALbits               Allocated to registers ;size:1
                                           ;@send_data_msb abuf                      Allocated to registers ;size:1
                                           ;@send_data_msb statusbuf                 Allocated to registers ;size:1
                                           ;@send_data_msb i                         Allocated to registers ;size:2
                                           ;@send_data_msb tmp                       Allocated to registers ;size:2
                                           ;@send_data_msb g_data                    Allocated to registers ;size:3
                                           ;@send_data_msb g_byte_count              Allocated to registers ;size:1
                                           ;@send_data_msb g_bit_count               Allocated to registers ;size:1
                                           ;@send_data_msb g_timer_count             Allocated to registers ;size:1
                                           ;@send_data_msb g_state                   Allocated to registers ;size:1
                                           ;@send_data_msb g_last_pin_state          Allocated to registers ;size:1
                                           ;@send_data_msb pin_state                 Allocated to registers ;size:1
                                           ;@send_data_msb adc_val_tmp               Allocated to registers ;size:2
                                           ;@send_data_msb adc_val_sum               Allocated to registers ;size:4
                                           ;@send_data_msb get_adcmax                Allocated to registers ;size:2
                                           ;@send_data_msb get_adcmin                Allocated to registers ;size:2
                                           ;@send_data_msb adc_val                   Allocated to registers ;size:2
                                           ;@send_data_msb ad_key_event              Allocated to registers ;size:1
                                           ;@send_data_msb cur_key_id                Allocated to registers ;size:1
                                           ;@send_data_msb set_time_hold_cnt         Allocated to registers ;size:1
                                           ;@send_data_msb cur_time                  Allocated to registers ;size:2
                                           ;@send_data_msb cur_status                Allocated to registers ;size:1
                                           ;@send_data_msb set_time_delay_cnt        Allocated to registers ;size:2
                                           ;@send_data_msb set_time_done_cnt         Allocated to registers ;size:2
                                           ;@send_data_msb flag1                     Allocated to registers ;size:1
                                           ;@send_data_msb send_data                 Allocated to registers r0x1056 r0x1055 r0x1054 r0x1053 ;size:4
                                           ;@send_data_msb i                         Allocated to registers r0x1057 ;size:1
                                           ;@send_data_msb INDF0                     Allocated to registers ;size:1
                                           ;@send_data_msb INDF1                     Allocated to registers ;size:1
                                           ;@send_data_msb INDF2                     Allocated to registers ;size:1
                                           ;@send_data_msb HIBYTE                    Allocated to registers ;size:1
                                           ;@send_data_msb FSR0                      Allocated to registers ;size:1
                                           ;@send_data_msb FSR1                      Allocated to registers ;size:1
                                           ;@send_data_msb PCL                       Allocated to registers ;size:1
                                           ;@send_data_msb PFLAG                     Allocated to registers ;size:1
                                           ;@send_data_msb MCR                       Allocated to registers ;size:1
                                           ;@send_data_msb INDF3                     Allocated to registers ;size:1
                                           ;@send_data_msb INTE                      Allocated to registers ;size:1
                                           ;@send_data_msb INTF                      Allocated to registers ;size:1
                                           ;@send_data_msb DRVCR                     Allocated to registers ;size:1
                                           ;@send_data_msb P0KBCR                    Allocated to registers ;size:1
                                           ;@send_data_msb P1KBCR                    Allocated to registers ;size:1
                                           ;@send_data_msb P2KBCR                    Allocated to registers ;size:1
                                           ;@send_data_msb IOP0                      Allocated to registers ;size:1
                                           ;@send_data_msb OEP0                      Allocated to registers ;size:1
                                           ;@send_data_msb PUP0                      Allocated to registers ;size:1
                                           ;@send_data_msb PDP0                      Allocated to registers ;size:1
                                           ;@send_data_msb IOP1                      Allocated to registers ;size:1
                                           ;@send_data_msb OEP1                      Allocated to registers ;size:1
                                           ;@send_data_msb PUP1                      Allocated to registers ;size:1
                                           ;@send_data_msb PDP1                      Allocated to registers ;size:1
                                           ;@send_data_msb T0CR                      Allocated to registers ;size:1
                                           ;@send_data_msb T0CNT                     Allocated to registers ;size:1
                                           ;@send_data_msb T0LOAD                    Allocated to registers ;size:1
                                           ;@send_data_msb T0DATA                    Allocated to registers ;size:1
                                           ;@send_data_msb T1CR                      Allocated to registers ;size:1
                                           ;@send_data_msb T1CNT                     Allocated to registers ;size:1
                                           ;@send_data_msb T1LOAD                    Allocated to registers ;size:1
                                           ;@send_data_msb T1DATA                    Allocated to registers ;size:1
                                           ;@send_data_msb T2CR                      Allocated to registers ;size:1
                                           ;@send_data_msb T2CNT                     Allocated to registers ;size:1
                                           ;@send_data_msb T2LOAD                    Allocated to registers ;size:1
                                           ;@send_data_msb T2DATA                    Allocated to registers ;size:1
                                           ;@send_data_msb T3CR                      Allocated to registers ;size:1
                                           ;@send_data_msb T3CNT                     Allocated to registers ;size:1
                                           ;@send_data_msb T3LOAD                    Allocated to registers ;size:1
                                           ;@send_data_msb PWM0DR                    Allocated to registers ;size:1
                                           ;@send_data_msb PWM1DR                    Allocated to registers ;size:1
                                           ;@send_data_msb PWM2DR                    Allocated to registers ;size:1
                                           ;@send_data_msb PWMCR0                    Allocated to registers ;size:1
                                           ;@send_data_msb PWMCR1                    Allocated to registers ;size:1
                                           ;@send_data_msb OSCMR                     Allocated to registers ;size:1
                                           ;@send_data_msb LVDCR                     Allocated to registers ;size:1
                                           ;@send_data_msb ADCR0                     Allocated to registers ;size:1
                                           ;@send_data_msb ADCR1                     Allocated to registers ;size:1
                                           ;@send_data_msb ADCR2                     Allocated to registers ;size:1
                                           ;@send_data_msb OSADJCR                   Allocated to registers ;size:1
                                           ;@send_data_msb ADRH                      Allocated to registers ;size:1
                                           ;@send_data_msb ADRL                      Allocated to registers ;size:1
                                           ;@send_data_msb P0ADCR                    Allocated to registers ;size:1
                                           ;@send_data_msb P1ADCR                    Allocated to registers ;size:1
                                           ;@send_data_msb IOP2                      Allocated to registers ;size:1
                                           ;@send_data_msb OEP2                      Allocated to registers ;size:1
                                           ;@send_data_msb PUP2                      Allocated to registers ;size:1
                                           ;@send_data_msb PDP2                      Allocated to registers ;size:1
                                           ;@send_data_msb PMOD                      Allocated to registers ;size:1
                                           ;@send_data_msb PWMCR3                    Allocated to registers ;size:1
                                           ;@send_data_msb PWMCR2                    Allocated to registers ;size:1
                                           ;@send_data_msb PFRCCR                    Allocated to registers ;size:1
                                           ;@send_data_msb PFRCCAL                   Allocated to registers ;size:1
                                           ;@send_data_msb EECR                      Allocated to registers ;size:1
                                           ;@send_data_msb EEPR                      Allocated to registers ;size:1
                                           ;@send_data_msb EEAR                      Allocated to registers ;size:1
                                           ;@send_data_msb EEDRH                     Allocated to registers ;size:1
                                           ;@send_data_msb EEDRL                     Allocated to registers ;size:1
                                           ;@send_data_msb DBGCR                     Allocated to registers ;size:1
                                           ;@send_data_msb DBGPR                     Allocated to registers ;size:1
                                           ;@send_data_msb HIRCCAL                   Allocated to registers ;size:1
                                           ;@end Allocation info for local variables in function 'send_data_msb';
                                           ;@Allocation info for local variables in function 'delay_ms'
                                           ;@delay_ms xms                       Allocated to registers ;size:2
                                           ;@delay_ms i                         Allocated to registers r0x102C r0x102D ;size:2
                                           ;@end Allocation info for local variables in function 'delay_ms';
                                           ;@Allocation info for local variables in function 'delay_us'
                                           ;@delay_us xus                       Allocated to registers ;size:1
                                           ;@end Allocation info for local variables in function 'delay_us';
                                           ;@Allocation info for local variables in function 'CLR_RAM'
                                           ;@end Allocation info for local variables in function 'CLR_RAM';
                                           ;@Allocation info for local variables in function 'IO_Init'
                                           ;@end Allocation info for local variables in function 'IO_Init';
                                           ;@Allocation info for local variables in function 'adc_config'
                                           ;@end Allocation info for local variables in function 'adc_config';
                                           ;@Allocation info for local variables in function 'timer0_config'
                                           ;@end Allocation info for local variables in function 'timer0_config';
                                           ;@Allocation info for local variables in function 'timer1_config'
                                           ;@end Allocation info for local variables in function 'timer1_config';
                                           ;@Allocation info for local variables in function 'timer3_config'
                                           ;@end Allocation info for local variables in function 'timer3_config';
                                           ;@Allocation info for local variables in function 'pwm_led_config'
                                           ;@end Allocation info for local variables in function 'pwm_led_config';
                                           ;@Allocation info for local variables in function 'start_send'
                                           ;@start_send data                      Allocated to registers r0x1041 r0x1040 r0x103F ;size:3
                                           ;@end Allocation info for local variables in function 'start_send';
                                           ;@Allocation info for local variables in function 'timer_100us_isr'
                                           ;@end Allocation info for local variables in function 'timer_100us_isr';
                                           ;@Allocation info for local variables in function 'example'
                                           ;@example send_buf                  Allocated to registers ;size:3
                                           ;@end Allocation info for local variables in function 'example';
                                           ;@Allocation info for local variables in function 'Sys_Init'
                                           ;@end Allocation info for local variables in function 'Sys_Init';
                                           ;@Allocation info for local variables in function 'adc_channel_sel'
                                           ;@adc_channel_sel adc_channel               Allocated to registers r0x1030 ;size:1
                                           ;@end Allocation info for local variables in function 'adc_channel_sel';
                                           ;@Allocation info for local variables in function 'adc_single_convert'
                                           ;@end Allocation info for local variables in function 'adc_single_convert';
                                           ;@Allocation info for local variables in function 'adc_get_val'
                                           ;@end Allocation info for local variables in function 'adc_get_val';
                                           ;@Allocation info for local variables in function 'get_key_id'
                                           ;@end Allocation info for local variables in function 'get_key_id';
                                           ;@Allocation info for local variables in function 'ad_key_event_10ms_isr'
                                           ;@ad_key_event_10ms_isr last                      Allocated to registers ;size:1
                                           ;@ad_key_event_10ms_isr count                     Allocated to registers ;size:1
                                           ;@end Allocation info for local variables in function 'ad_key_event_10ms_isr';
                                           ;@Allocation info for local variables in function 'ad_key_event_10ms_isr'
                                           ;@ad_key_event_10ms_isr last                      Allocated to registers ;size:1
                                           ;@ad_key_event_10ms_isr count                     Allocated to registers ;size:1
                                           ;@end Allocation info for local variables in function 'ad_key_event_10ms_isr';
                                           ;@Allocation info for local variables in function 'key_ad_key_event_deal'
                                           ;@end Allocation info for local variables in function 'key_ad_key_event_deal';
                                           ;@Allocation info for local variables in function 'bsp_i2c_init'
                                           ;@end Allocation info for local variables in function 'bsp_i2c_init';
                                           ;@Allocation info for local variables in function 'bsp_i2c_start'
                                           ;@end Allocation info for local variables in function 'bsp_i2c_start';
                                           ;@Allocation info for local variables in function 'bsp_i2c_tx_byte'
                                           ;@bsp_i2c_tx_byte dat                       Allocated to registers r0x102B ;size:1
                                           ;@bsp_i2c_tx_byte i                         Allocated to registers r0x102C ;size:1
                                           ;@end Allocation info for local variables in function 'bsp_i2c_tx_byte';
                                           ;@Allocation info for local variables in function 'bsp_i2c_rx_ack'
                                           ;@bsp_i2c_rx_ack ret                       Allocated to registers r0x102B ;size:1
                                           ;@end Allocation info for local variables in function 'bsp_i2c_rx_ack';
                                           ;@Allocation info for local variables in function 'bsp_i2c_stop'
                                           ;@end Allocation info for local variables in function 'bsp_i2c_stop';
                                           ;@Allocation info for local variables in function 'TM1650_WriteByte'
                                           ;@TM1650_WriteByte data                      Allocated to registers r0x102F ;size:1
                                           ;@TM1650_WriteByte addr                      Allocated to registers r0x102E ;size:1
                                           ;@end Allocation info for local variables in function 'TM1650_WriteByte';
                                           ;@Allocation info for local variables in function 'TM1650_Clear'
                                           ;@end Allocation info for local variables in function 'TM1650_Clear';
                                           ;@Allocation info for local variables in function 'TM1650_Init'
                                           ;@end Allocation info for local variables in function 'TM1650_Init';
                                           ;@Allocation info for local variables in function 'TM1650_DisplayBit'
                                           ;@TM1650_DisplayBit num                       Allocated to registers r0x1031 ;size:1
                                           ;@TM1650_DisplayBit pos                       Allocated to registers r0x1030 ;size:1
                                           ;@TM1650_DisplayBit addr                      Allocated to registers r0x1030 ;size:1
                                           ;@end Allocation info for local variables in function 'TM1650_DisplayBit';
                                           ;@Allocation info for local variables in function 'TM1650_DisplayNum'
                                           ;@TM1650_DisplayNum num                       Allocated to registers r0x1035 r0x1034 ;size:2
                                           ;@TM1650_DisplayNum thousand                  Allocated to registers r0x1038 ;size:1
                                           ;@TM1650_DisplayNum hundred                   Allocated to registers r0x1039 ;size:1
                                           ;@TM1650_DisplayNum decade                    Allocated to registers r0x103A ;size:1
                                           ;@TM1650_DisplayNum unit                      Allocated to registers r0x1037 ;size:1
                                           ;@end Allocation info for local variables in function 'TM1650_DisplayNum';
                                           ;@Allocation info for local variables in function 'main'
                                           ;@end Allocation info for local variables in function 'main';
                                           ;@Allocation info for local variables in function 'int_isr'
                                           ;@int_isr timer1_cnt                Allocated to registers ;size:2
                                           ;@int_isr timer3_cnt                Allocated to registers ;size:1
                                           ;@end Allocation info for local variables in function 'int_isr';
                                           ;@Allocation info for local variables in function 'int_isr'
                                           ;@int_isr timer1_cnt                Allocated to registers ;size:2
                                           ;@int_isr timer3_cnt                Allocated to registers ;size:1
                                           ;@end Allocation info for local variables in function 'int_isr';
                                           
                                           ;--------------------------------------------------------
                                           ; overlayable items in internal ram 
                                           ;--------------------------------------------------------
                                           ;	udata_ovr
                                           ;--------------------------------------------------------
                                           ; reset vector 
                                           ;--------------------------------------------------------
                                           STARTUP	code 0x0000
000000   a057     goto    0x57             	goto	_main
                                           ;--------------------------------------------------------
                                           ; interrupt and initialization code
                                           ;--------------------------------------------------------
                                           c_interrupt	code	0x8
                                           __sdcc_interrupt
                                           ;***
                                           ;  pBlock Stats: dbName = I
                                           ;***
                                           ;entry:  _int_isr	;Function start
                                           ; 0 exit points
                                           ;2 compiler assigned registers:
                                           ;   r0x105D
                                           ;   r0x105E
                                           ;; Starting pCode block
                                           _int_isr	;Function start
                                           ; 0 exit points
                                           ;	.line	839; "MC32F7361.c"	__endasm;
                                           	;
000008   5672     movra   0x72             	movra	_abuf;
000009   4587     swapar  0x187            	swapar	_PFLAG;
00000a   5673     movra   0x73             	movra	_statusbuf;
                                           	
                                           ;	.line	842; "MC32F7361.c"	if (T1IF & T1IE)
00000b   7639     clrr    0x39             	CLRR	r0x105D
00000c   f38b     jbclr   0x18b, 0x1       	JBCLR	_INTFbits,1
00000d   6639     incr    0x39             	INCR	r0x105D
00000e   763a     clrr    0x3a             	CLRR	r0x105E
00000f   f38a     jbclr   0x18a, 0x1       	JBCLR	_INTEbits,1
000010   663a     incr    0x3a             	INCR	r0x105E
000011   583a     movar   0x3a             	MOVAR	r0x105E
000012   7a39     andra   0x39             	ANDRA	r0x105D
000013   3c00     movai   0                	MOVAI	0x00
000014   5c39     orar    0x39             	ORAR	r0x105D
000015   f587     jbclr   0x187, 0x2       	JBCLR	PFLAG,2
000016   a02f     goto    0x2f             	GOTO	_00863_DS_
                                           ;	.line	845; "MC32F7361.c"	timer1_cnt++;
000017   6647     incr    0x47             	INCR	_int_isr_timer1_cnt_131072_152
000018   f587     jbclr   0x187, 0x2       	JBCLR	PFLAG,2
000019   6648     incr    0x48             	INCR	(_int_isr_timer1_cnt_131072_152 + 1)
                                           ;;unsigned compare: left < lit(0x400=1024), size=2
                                           ;	.line	846; "MC32F7361.c"	if (timer1_cnt >= 1024)
00001a   3c04     movai   0x4              	MOVAI	0x04
00001b   4848     rsubar  0x48             	RSUBAR	(_int_isr_timer1_cnt_131072_152 + 1)
00001c   e587     jbset   0x187, 0x2       	JBSET	PFLAG,2
00001d   a020     goto    0x20             	GOTO	_00893_DS_
00001e   3c00     movai   0                	MOVAI	0x00
00001f   4847     rsubar  0x47             	RSUBAR	_int_isr_timer1_cnt_131072_152
                                           _00893_DS_
000020   e187     jbset   0x187, 0         	JBSET	PFLAG,0
000021   a02e     goto    0x2e             	GOTO	_00861_DS_
                                           ;;genSkipc:3291: created from rifx:013B5EFC
                                           ;	.line	848; "MC32F7361.c"	P12D = ~P12D;
000022   7639     clrr    0x39             	CLRR	r0x105D
000023   f594     jbclr   0x194, 0x2       	JBCLR	_IOP1bits,2
000024   6639     incr    0x39             	INCR	r0x105D
000025   7039     comar   0x39             	COMAR	r0x105D
000026   5639     movra   0x39             	MOVRA	r0x105D
000027   4c39     rrar    0x39             	RRAR	r0x105D
000028   e187     jbset   0x187, 0         	JBSET	PFLAG,0
000029   d594     bclr    0x194, 0x2       	BCLR	_IOP1bits,2
00002a   f187     jbclr   0x187, 0         	JBCLR	PFLAG,0
00002b   c594     bset    0x194, 0x2       	BSET	_IOP1bits,2
                                           ;	.line	849; "MC32F7361.c"	timer1_cnt = 0;
00002c   7647     clrr    0x47             	CLRR	_int_isr_timer1_cnt_131072_152
00002d   7648     clrr    0x48             	CLRR	(_int_isr_timer1_cnt_131072_152 + 1)
                                           _00861_DS_
                                           ;	.line	863; "MC32F7361.c"	T1IF = 0;
00002e   d38b     bclr    0x18b, 0x1       	BCLR	_INTFbits,1
                                           _00863_DS_
                                           ;	.line	866; "MC32F7361.c"	if (T3IF & T3IE)
00002f   7639     clrr    0x39             	CLRR	r0x105D
000030   ff8b     jbclr   0x18b, 0x7       	JBCLR	_INTFbits,7
000031   6639     incr    0x39             	INCR	r0x105D
000032   763a     clrr    0x3a             	CLRR	r0x105E
000033   ff8a     jbclr   0x18a, 0x7       	JBCLR	_INTEbits,7
000034   663a     incr    0x3a             	INCR	r0x105E
000035   583a     movar   0x3a             	MOVAR	r0x105E
000036   7a39     andra   0x39             	ANDRA	r0x105D
000037   3c00     movai   0                	MOVAI	0x00
000038   5c39     orar    0x39             	ORAR	r0x105D
000039   f587     jbclr   0x187, 0x2       	JBCLR	PFLAG,2
00003a   a052     goto    0x52             	GOTO	_00870_DS_
                                           ;	.line	869; "MC32F7361.c"	timer3_cnt++;
00003b   6649     incr    0x49             	INCR	_int_isr_timer3_cnt_131072_154
                                           ;;unsigned compare: left < lit(0xA=10), size=1
                                           ;	.line	870; "MC32F7361.c"	if (timer3_cnt >= 10)
00003c   3c0a     movai   0xa              	MOVAI	0x0a
00003d   4849     rsubar  0x49             	RSUBAR	_int_isr_timer3_cnt_131072_154
00003e   e187     jbset   0x187, 0         	JBSET	PFLAG,0
00003f   a042     goto    0x42             	GOTO	_00865_DS_
                                           ;;genSkipc:3291: created from rifx:013B5EFC
                                           ;	.line	872; "MC32F7361.c"	flag_10ms = 1;
000040   c079     bset    0x79, 0          	BSET	_flag1,0
                                           ;	.line	873; "MC32F7361.c"	timer3_cnt = 0;
000041   7649     clrr    0x49             	CLRR	_int_isr_timer3_cnt_131072_154
                                           _00865_DS_
                                           ;	.line	876; "MC32F7361.c"	if (STATUS_SET_TIME_HOUR == cur_status ||
000042   5878     movar   0x78             	MOVAR	_cur_status
000043   3901     xorai   0x1              	XORAI	0x01
000044   e587     jbset   0x187, 0x2       	JBSET	PFLAG,2
000045   a047     goto    0x47             	GOTO	_00895_DS_
000046   a04b     goto    0x4b             	GOTO	_00866_DS_
                                           _00895_DS_
                                           ;	.line	877; "MC32F7361.c"	STATUS_SET_TIME_MIN == cur_status)
000047   5878     movar   0x78             	MOVAR	_cur_status
000048   3902     xorai   0x2              	XORAI	0x02
000049   e587     jbset   0x187, 0x2       	JBSET	PFLAG,2
00004a   a051     goto    0x51             	GOTO	_00867_DS_
                                           _00866_DS_
                                           ;	.line	879; "MC32F7361.c"	set_time_delay_cnt++;
00004b   666e     incr    0x6e             	INCR	_set_time_delay_cnt
00004c   f587     jbclr   0x187, 0x2       	JBCLR	PFLAG,2
00004d   666f     incr    0x6f             	INCR	(_set_time_delay_cnt + 1)
                                           ;	.line	880; "MC32F7361.c"	set_time_done_cnt++;
00004e   6670     incr    0x70             	INCR	_set_time_done_cnt
00004f   f587     jbclr   0x187, 0x2       	JBCLR	PFLAG,2
000050   6671     incr    0x71             	INCR	(_set_time_done_cnt + 1)
                                           _00867_DS_
                                           ;	.line	883; "MC32F7361.c"	T3IF = 0;
000051   df8b     bclr    0x18b, 0x7       	BCLR	_INTFbits,7
                                           _00870_DS_
                                           ;	.line	891; "MC32F7361.c"	__endasm;
                                           	;
000052   4473     swapar  0x73             	swapar	_statusbuf;
000053   5787     movra   0x187            	movra	_PFLAG;
000054   4672     swapr   0x72             	swapr	_abuf;
000055   4472     swapar  0x72             	swapar	_abuf;
                                           	
                                           END_OF_INTERRUPT
                                           ;	.line	892; "MC32F7361.c"	}
000056   000d     retie                    	RETIE	
                                           
                                           ;--------------------------------------------------------
                                           ; code
                                           ;--------------------------------------------------------
                                           code_MC32F7361	code
                                           ;***
                                           ;  pBlock Stats: dbName = M
                                           ;***
                                           ;entry:  _main	;Function start
                                           ; 2 exit points
                                           ;has an exit
                                           ;functions called:
                                           ;   _Sys_Init
                                           ;   _adc_channel_sel
                                           ;   _key_ad_key_event_deal
                                           ;   _TM1650_DisplayNum
                                           ;   _TM1650_WriteByte
                                           ;   _TM1650_WriteByte
                                           ;   _TM1650_DisplayNum
                                           ;   _TM1650_WriteByte
                                           ;   _TM1650_WriteByte
                                           ;   _Sys_Init
                                           ;   _adc_channel_sel
                                           ;   _key_ad_key_event_deal
                                           ;   _TM1650_DisplayNum
                                           ;   _TM1650_WriteByte
                                           ;   _TM1650_WriteByte
                                           ;   _TM1650_DisplayNum
                                           ;   _TM1650_WriteByte
                                           ;   _TM1650_WriteByte
                                           ;1 compiler assigned register :
                                           ;   STK00
                                           ;; Starting pCode block
                                           _main	;Function start
                                           ; 2 exit points
                                           ;	.line	760; "MC32F7361.c"	Sys_Init();
000057   8397     call    0x397            	CALL	_Sys_Init
                                           _00810_DS_
                                           ;	.line	764; "MC32F7361.c"	adc_channel_sel(ADC_CHANNEL_KEY);
000058   3c01     movai   0x1              	MOVAI	0x01
000059   8380     call    0x380            	CALL	_adc_channel_sel
                                           ;	.line	765; "MC32F7361.c"	key_ad_key_event_deal();
00005a   81a8     call    0x1a8            	CALL	_key_ad_key_event_deal
                                           ;	.line	767; "MC32F7361.c"	if (STATUS_SET_TIME_HOUR == cur_status)
00005b   5878     movar   0x78             	MOVAR	_cur_status
00005c   3901     xorai   0x1              	XORAI	0x01
00005d   e587     jbset   0x187, 0x2       	JBSET	PFLAG,2
00005e   a08b     goto    0x8b             	GOTO	_00807_DS_
                                           ;;unsigned compare: left < lit(0x1F4=500), size=2
                                           ;	.line	775; "MC32F7361.c"	if (set_time_delay_cnt < 500)
00005f   3c01     movai   0x1              	MOVAI	0x01
000060   486f     rsubar  0x6f             	RSUBAR	(_set_time_delay_cnt + 1)
000061   e587     jbset   0x187, 0x2       	JBSET	PFLAG,2
000062   a065     goto    0x65             	GOTO	_00850_DS_
000063   3cf4     movai   0xf4             	MOVAI	0xf4
000064   486e     rsubar  0x6e             	RSUBAR	_set_time_delay_cnt
                                           _00850_DS_
000065   f187     jbclr   0x187, 0         	JBCLR	PFLAG,0
000066   a06c     goto    0x6c             	GOTO	_00793_DS_
                                           ;;genSkipc:3291: created from rifx:013B5EFC
                                           ;	.line	777; "MC32F7361.c"	TM1650_DisplayNum(cur_time);
000067   586c     movar   0x6c             	MOVAR	_cur_time
000068   5606     movra   0x6              	MOVRA	STK00
000069   586d     movar   0x6d             	MOVAR	(_cur_time + 1)
00006a   80bb     call    0xbb             	CALL	_TM1650_DisplayNum
00006b   a07e     goto    0x7e             	GOTO	_00794_DS_
                                           _00793_DS_
                                           ;	.line	781; "MC32F7361.c"	TM1650_WriteByte(0x6E, 0x00); // 4
00006c   3c00     movai   0                	MOVAI	0x00
00006d   5606     movra   0x6              	MOVRA	STK00
00006e   3c6e     movai   0x6e             	MOVAI	0x6e
00006f   8159     call    0x159            	CALL	_TM1650_WriteByte
                                           ;	.line	782; "MC32F7361.c"	TM1650_WriteByte(0x6C, 0x00); // 3
000070   3c00     movai   0                	MOVAI	0x00
000071   5606     movra   0x6              	MOVRA	STK00
000072   3c6c     movai   0x6c             	MOVAI	0x6c
000073   8159     call    0x159            	CALL	_TM1650_WriteByte
                                           ;;unsigned compare: left < lit(0x3E7=999), size=2
                                           ;	.line	784; "MC32F7361.c"	if (set_time_delay_cnt >= 1000 - 1)
000074   3c03     movai   0x3              	MOVAI	0x03
000075   486f     rsubar  0x6f             	RSUBAR	(_set_time_delay_cnt + 1)
000076   e587     jbset   0x187, 0x2       	JBSET	PFLAG,2
000077   a07a     goto    0x7a             	GOTO	_00851_DS_
000078   3ce7     movai   0xe7             	MOVAI	0xe7
000079   486e     rsubar  0x6e             	RSUBAR	_set_time_delay_cnt
                                           _00851_DS_
00007a   e187     jbset   0x187, 0         	JBSET	PFLAG,0
00007b   a07e     goto    0x7e             	GOTO	_00794_DS_
                                           ;;genSkipc:3291: created from rifx:013B5EFC
                                           ;	.line	786; "MC32F7361.c"	set_time_delay_cnt = 0;
00007c   766e     clrr    0x6e             	CLRR	_set_time_delay_cnt
00007d   766f     clrr    0x6f             	CLRR	(_set_time_delay_cnt + 1)
                                           ;;unsigned compare: left < lit(0x1388=5000), size=2
                                           _00794_DS_
                                           ;	.line	790; "MC32F7361.c"	if (set_time_done_cnt >= 5000)
00007e   3c13     movai   0x13             	MOVAI	0x13
00007f   4871     rsubar  0x71             	RSUBAR	(_set_time_done_cnt + 1)
000080   e587     jbset   0x187, 0x2       	JBSET	PFLAG,2
000081   a084     goto    0x84             	GOTO	_00852_DS_
000082   3c88     movai   0x88             	MOVAI	0x88
000083   4870     rsubar  0x70             	RSUBAR	_set_time_done_cnt
                                           _00852_DS_
000084   e187     jbset   0x187, 0         	JBSET	PFLAG,0
000085   a058     goto    0x58             	GOTO	_00810_DS_
                                           ;;genSkipc:3291: created from rifx:013B5EFC
                                           ;	.line	792; "MC32F7361.c"	cur_status = STATUS_SET_TIME_MIN;
000086   3c02     movai   0x2              	MOVAI	0x02
000087   5678     movra   0x78             	MOVRA	_cur_status
                                           ;	.line	793; "MC32F7361.c"	set_time_done_cnt = 0;
000088   7670     clrr    0x70             	CLRR	_set_time_done_cnt
000089   7671     clrr    0x71             	CLRR	(_set_time_done_cnt + 1)
00008a   a058     goto    0x58             	GOTO	_00810_DS_
                                           _00807_DS_
                                           ;	.line	796; "MC32F7361.c"	else if (STATUS_SET_TIME_MIN == cur_status)
00008b   5878     movar   0x78             	MOVAR	_cur_status
00008c   3902     xorai   0x2              	XORAI	0x02
00008d   e587     jbset   0x187, 0x2       	JBSET	PFLAG,2
00008e   a058     goto    0x58             	GOTO	_00810_DS_
                                           ;;unsigned compare: left < lit(0x1F4=500), size=2
                                           ;	.line	804; "MC32F7361.c"	if (set_time_delay_cnt < 500)
00008f   3c01     movai   0x1              	MOVAI	0x01
000090   486f     rsubar  0x6f             	RSUBAR	(_set_time_delay_cnt + 1)
000091   e587     jbset   0x187, 0x2       	JBSET	PFLAG,2
000092   a095     goto    0x95             	GOTO	_00853_DS_
000093   3cf4     movai   0xf4             	MOVAI	0xf4
000094   486e     rsubar  0x6e             	RSUBAR	_set_time_delay_cnt
                                           _00853_DS_
000095   f187     jbclr   0x187, 0         	JBCLR	PFLAG,0
000096   a09c     goto    0x9c             	GOTO	_00800_DS_
                                           ;;genSkipc:3291: created from rifx:013B5EFC
                                           ;	.line	806; "MC32F7361.c"	TM1650_DisplayNum(cur_time);
000097   586c     movar   0x6c             	MOVAR	_cur_time
000098   5606     movra   0x6              	MOVRA	STK00
000099   586d     movar   0x6d             	MOVAR	(_cur_time + 1)
00009a   80bb     call    0xbb             	CALL	_TM1650_DisplayNum
00009b   a0ae     goto    0xae             	GOTO	_00801_DS_
                                           _00800_DS_
                                           ;	.line	810; "MC32F7361.c"	TM1650_WriteByte(0x6A, 0x00); // 2
00009c   3c00     movai   0                	MOVAI	0x00
00009d   5606     movra   0x6              	MOVRA	STK00
00009e   3c6a     movai   0x6a             	MOVAI	0x6a
00009f   8159     call    0x159            	CALL	_TM1650_WriteByte
                                           ;	.line	811; "MC32F7361.c"	TM1650_WriteByte(0x68, 0x00); // 1
0000a0   3c00     movai   0                	MOVAI	0x00
0000a1   5606     movra   0x6              	MOVRA	STK00
0000a2   3c68     movai   0x68             	MOVAI	0x68
0000a3   8159     call    0x159            	CALL	_TM1650_WriteByte
                                           ;;unsigned compare: left < lit(0x3E7=999), size=2
                                           ;	.line	813; "MC32F7361.c"	if (set_time_delay_cnt >= 1000 - 1)
0000a4   3c03     movai   0x3              	MOVAI	0x03
0000a5   486f     rsubar  0x6f             	RSUBAR	(_set_time_delay_cnt + 1)
0000a6   e587     jbset   0x187, 0x2       	JBSET	PFLAG,2
0000a7   a0aa     goto    0xaa             	GOTO	_00854_DS_
0000a8   3ce7     movai   0xe7             	MOVAI	0xe7
0000a9   486e     rsubar  0x6e             	RSUBAR	_set_time_delay_cnt
                                           _00854_DS_
0000aa   e187     jbset   0x187, 0         	JBSET	PFLAG,0
0000ab   a0ae     goto    0xae             	GOTO	_00801_DS_
                                           ;;genSkipc:3291: created from rifx:013B5EFC
                                           ;	.line	815; "MC32F7361.c"	set_time_delay_cnt = 0;
0000ac   766e     clrr    0x6e             	CLRR	_set_time_delay_cnt
0000ad   766f     clrr    0x6f             	CLRR	(_set_time_delay_cnt + 1)
                                           ;;unsigned compare: left < lit(0x1388=5000), size=2
                                           _00801_DS_
                                           ;	.line	819; "MC32F7361.c"	if (set_time_done_cnt >= 5000)
0000ae   3c13     movai   0x13             	MOVAI	0x13
0000af   4871     rsubar  0x71             	RSUBAR	(_set_time_done_cnt + 1)
0000b0   e587     jbset   0x187, 0x2       	JBSET	PFLAG,2
0000b1   a0b4     goto    0xb4             	GOTO	_00855_DS_
0000b2   3c88     movai   0x88             	MOVAI	0x88
0000b3   4870     rsubar  0x70             	RSUBAR	_set_time_done_cnt
                                           _00855_DS_
0000b4   e187     jbset   0x187, 0         	JBSET	PFLAG,0
0000b5   a058     goto    0x58             	GOTO	_00810_DS_
                                           ;;genSkipc:3291: created from rifx:013B5EFC
                                           ;	.line	821; "MC32F7361.c"	cur_status = STATUS_NONE;
0000b6   7678     clrr    0x78             	CLRR	_cur_status
                                           ;	.line	822; "MC32F7361.c"	set_time_done_cnt = 0;
0000b7   7670     clrr    0x70             	CLRR	_set_time_done_cnt
0000b8   7671     clrr    0x71             	CLRR	(_set_time_done_cnt + 1)
0000b9   a058     goto    0x58             	GOTO	_00810_DS_
                                           ;	.line	826; "MC32F7361.c"	}
0000ba   000c     return                   	RETURN	
                                           ; exit point of _main
                                           
                                           ;***
                                           ;  pBlock Stats: dbName = C
                                           ;***
                                           ;entry:  _TM1650_DisplayNum	;Function start
                                           ; 2 exit points
                                           ;has an exit
                                           ;functions called:
                                           ;   __divuint
                                           ;   __moduint
                                           ;   __divuint
                                           ;   __moduint
                                           ;   __divuint
                                           ;   __moduint
                                           ;   _TM1650_DisplayBit
                                           ;   _TM1650_DisplayBit
                                           ;   _TM1650_DisplayBit
                                           ;   _TM1650_DisplayBit
                                           ;   __divuint
                                           ;   __moduint
                                           ;   __divuint
                                           ;   __moduint
                                           ;   __divuint
                                           ;   __moduint
                                           ;   _TM1650_DisplayBit
                                           ;   _TM1650_DisplayBit
                                           ;   _TM1650_DisplayBit
                                           ;   _TM1650_DisplayBit
                                           ;10 compiler assigned registers:
                                           ;   r0x1034
                                           ;   STK00
                                           ;   r0x1035
                                           ;   STK02
                                           ;   STK01
                                           ;   r0x1036
                                           ;   r0x1037
                                           ;   r0x1038
                                           ;   r0x1039
                                           ;   r0x103A
                                           ;; Starting pCode block
                                           _TM1650_DisplayNum	;Function start
                                           ; 2 exit points
                                           ;	.line	732; "MC32F7361.c"	void TM1650_DisplayNum(uint16_t num)
0000bb   5631     movra   0x31             	MOVRA	r0x1034
0000bc   5806     movar   0x6              	MOVAR	STK00
0000bd   5632     movra   0x32             	MOVRA	r0x1035
                                           ;;swapping arguments (AOP_TYPEs 1/2)
                                           ;;unsigned compare: left >= lit(0x2710=10000), size=2
                                           ;	.line	736; "MC32F7361.c"	if (num > 9999)
0000be   3c27     movai   0x27             	MOVAI	0x27
0000bf   4831     rsubar  0x31             	RSUBAR	r0x1034
0000c0   e587     jbset   0x187, 0x2       	JBSET	PFLAG,2
0000c1   a0c4     goto    0xc4             	GOTO	_00785_DS_
0000c2   3c10     movai   0x10             	MOVAI	0x10
0000c3   4832     rsubar  0x32             	RSUBAR	r0x1035
                                           _00785_DS_
0000c4   e187     jbset   0x187, 0         	JBSET	PFLAG,0
0000c5   a0c7     goto    0xc7             	GOTO	_00778_DS_
                                           ;;genSkipc:3291: created from rifx:013B5EFC
                                           ;	.line	737; "MC32F7361.c"	return; // 
0000c6   a11d     goto    0x11d            	GOTO	_00779_DS_
                                           _00778_DS_
                                           ;	.line	740; "MC32F7361.c"	thousand = num / 1000;
0000c7   3ce8     movai   0xe8             	MOVAI	0xe8
0000c8   5604     movra   0x4              	MOVRA	STK02
0000c9   3c03     movai   0x3              	MOVAI	0x03
0000ca   5605     movra   0x5              	MOVRA	STK01
0000cb   5832     movar   0x32             	MOVAR	r0x1035
0000cc   5606     movra   0x6              	MOVRA	STK00
0000cd   5831     movar   0x31             	MOVAR	r0x1034
0000ce   85f2     call    0x5f2            	CALL	__divuint
0000cf   5635     movra   0x35             	MOVRA	r0x1036
0000d0   5806     movar   0x6              	MOVAR	STK00
0000d1   5636     movra   0x36             	MOVRA	r0x1038
0000d2   5634     movra   0x34             	MOVRA	r0x1037
                                           ;;116	MOVAR	r0x1037
                                           ;	.line	741; "MC32F7361.c"	hundred = (num % 1000) / 100;
0000d3   3ce8     movai   0xe8             	MOVAI	0xe8
0000d4   5604     movra   0x4              	MOVRA	STK02
0000d5   3c03     movai   0x3              	MOVAI	0x03
0000d6   5605     movra   0x5              	MOVRA	STK01
0000d7   5832     movar   0x32             	MOVAR	r0x1035
0000d8   5606     movra   0x6              	MOVRA	STK00
0000d9   5831     movar   0x31             	MOVAR	r0x1034
0000da   8632     call    0x632            	CALL	__moduint
0000db   5635     movra   0x35             	MOVRA	r0x1036
0000dc   5806     movar   0x6              	MOVAR	STK00
0000dd   5634     movra   0x34             	MOVRA	r0x1037
0000de   3c64     movai   0x64             	MOVAI	0x64
0000df   5604     movra   0x4              	MOVRA	STK02
0000e0   3c00     movai   0                	MOVAI	0x00
0000e1   5605     movra   0x5              	MOVRA	STK01
0000e2   5834     movar   0x34             	MOVAR	r0x1037
0000e3   5606     movra   0x6              	MOVRA	STK00
0000e4   5835     movar   0x35             	MOVAR	r0x1036
0000e5   85f2     call    0x5f2            	CALL	__divuint
0000e6   5635     movra   0x35             	MOVRA	r0x1036
0000e7   5806     movar   0x6              	MOVAR	STK00
0000e8   5637     movra   0x37             	MOVRA	r0x1039
0000e9   5634     movra   0x34             	MOVRA	r0x1037
                                           ;;115	MOVAR	r0x1037
                                           ;	.line	742; "MC32F7361.c"	decade = (num % 100) / 10;
0000ea   3c64     movai   0x64             	MOVAI	0x64
0000eb   5604     movra   0x4              	MOVRA	STK02
0000ec   3c00     movai   0                	MOVAI	0x00
0000ed   5605     movra   0x5              	MOVRA	STK01
0000ee   5832     movar   0x32             	MOVAR	r0x1035
0000ef   5606     movra   0x6              	MOVRA	STK00
0000f0   5831     movar   0x31             	MOVAR	r0x1034
0000f1   8632     call    0x632            	CALL	__moduint
0000f2   5635     movra   0x35             	MOVRA	r0x1036
0000f3   5806     movar   0x6              	MOVAR	STK00
0000f4   5634     movra   0x34             	MOVRA	r0x1037
0000f5   3c0a     movai   0xa              	MOVAI	0x0a
0000f6   5604     movra   0x4              	MOVRA	STK02
0000f7   3c00     movai   0                	MOVAI	0x00
0000f8   5605     movra   0x5              	MOVRA	STK01
0000f9   5834     movar   0x34             	MOVAR	r0x1037
0000fa   5606     movra   0x6              	MOVRA	STK00
0000fb   5835     movar   0x35             	MOVAR	r0x1036
0000fc   85f2     call    0x5f2            	CALL	__divuint
0000fd   5635     movra   0x35             	MOVRA	r0x1036
0000fe   5806     movar   0x6              	MOVAR	STK00
0000ff   5638     movra   0x38             	MOVRA	r0x103A
000100   5634     movra   0x34             	MOVRA	r0x1037
                                           ;;112	MOVAR	r0x1037
                                           ;	.line	743; "MC32F7361.c"	unit = num % 10;
000101   3c0a     movai   0xa              	MOVAI	0x0a
000102   5604     movra   0x4              	MOVRA	STK02
000103   3c00     movai   0                	MOVAI	0x00
000104   5605     movra   0x5              	MOVRA	STK01
000105   5832     movar   0x32             	MOVAR	r0x1035
000106   5606     movra   0x6              	MOVRA	STK00
000107   5831     movar   0x31             	MOVAR	r0x1034
000108   8632     call    0x632            	CALL	__moduint
000109   5631     movra   0x31             	MOVRA	r0x1034
00010a   5806     movar   0x6              	MOVAR	STK00
00010b   5634     movra   0x34             	MOVRA	r0x1037
00010c   5632     movra   0x32             	MOVRA	r0x1035
                                           ;;111	MOVAR	r0x1035
                                           ;	.line	746; "MC32F7361.c"	TM1650_DisplayBit(4, thousand);
00010d   5836     movar   0x36             	MOVAR	r0x1038
00010e   5606     movra   0x6              	MOVRA	STK00
00010f   3c04     movai   0x4              	MOVAI	0x04
000110   811e     call    0x11e            	CALL	_TM1650_DisplayBit
                                           ;	.line	747; "MC32F7361.c"	TM1650_DisplayBit(3, hundred);
000111   5837     movar   0x37             	MOVAR	r0x1039
000112   5606     movra   0x6              	MOVRA	STK00
000113   3c03     movai   0x3              	MOVAI	0x03
000114   811e     call    0x11e            	CALL	_TM1650_DisplayBit
                                           ;	.line	748; "MC32F7361.c"	TM1650_DisplayBit(2, decade);
000115   5838     movar   0x38             	MOVAR	r0x103A
000116   5606     movra   0x6              	MOVRA	STK00
000117   3c02     movai   0x2              	MOVAI	0x02
000118   811e     call    0x11e            	CALL	_TM1650_DisplayBit
                                           ;	.line	749; "MC32F7361.c"	TM1650_DisplayBit(1, unit);
000119   5834     movar   0x34             	MOVAR	r0x1037
00011a   5606     movra   0x6              	MOVRA	STK00
00011b   3c01     movai   0x1              	MOVAI	0x01
00011c   811e     call    0x11e            	CALL	_TM1650_DisplayBit
                                           _00779_DS_
                                           ;	.line	750; "MC32F7361.c"	}
00011d   000c     return                   	RETURN	
                                           ; exit point of _TM1650_DisplayNum
                                           
                                           ;***
                                           ;  pBlock Stats: dbName = C
                                           ;***
                                           ;entry:  _TM1650_DisplayBit	;Function start
                                           ; 2 exit points
                                           ;has an exit
                                           ;functions called:
                                           ;   __gptrget1
                                           ;   _TM1650_WriteByte
                                           ;   __gptrget1
                                           ;   _TM1650_WriteByte
                                           ;6 compiler assigned registers:
                                           ;   r0x1030
                                           ;   STK00
                                           ;   r0x1031
                                           ;   r0x1032
                                           ;   STK01
                                           ;   r0x1033
                                           ;; Starting pCode block
                                           _TM1650_DisplayBit	;Function start
                                           ; 2 exit points
00011e   5633     movra   0x33             	MOVRA	r0x1032
                                           ;	.line	717; "MC32F7361.c"	void TM1650_DisplayBit(uint8_t pos, uint8_t num)
00011f   562a     movra   0x2a             	MOVRA	r0x1030
000120   5806     movar   0x6              	MOVAR	STK00
000121   562f     movra   0x2f             	MOVRA	r0x1031
                                           ;;110	MOVAR	r0x1030
                                           ;	.line	725; "MC32F7361.c"	addr = 0x68 + (pos - 1) * 2;
000122   6c33     decar   0x33             	DECAR	r0x1032
000123   562a     movra   0x2a             	MOVRA	r0x1030
000124   d187     bclr    0x187, 0         	BCLR	PFLAG,0
000125   502a     rlar    0x2a             	RLAR	r0x1030
000126   5633     movra   0x33             	MOVRA	r0x1032
000127   3c68     movai   0x68             	MOVAI	0x68
000128   7c33     addar   0x33             	ADDAR	r0x1032
000129   562a     movra   0x2a             	MOVRA	r0x1030
                                           ;	.line	728; "MC32F7361.c"	TM1650_WriteByte(addr, NUM_TABLE[num]);
00012a   582f     movar   0x2f             	MOVAR	r0x1031
00012b   3fa0     addai   0xa0             	ADDAI	(_NUM_TABLE + 0)
00012c   562f     movra   0x2f             	MOVRA	r0x1031
00012d   3c06     movai   0x6              	MOVAI	high (_NUM_TABLE + 0)
00012e   f187     jbclr   0x187, 0         	JBCLR	PFLAG,0
00012f   3f01     addai   0x1              	ADDAI	0x01
000130   5633     movra   0x33             	MOVRA	r0x1032
000131   582f     movar   0x2f             	MOVAR	r0x1031
000132   5605     movra   0x5              	MOVRA	STK01
000133   5833     movar   0x33             	MOVAR	r0x1032
000134   5606     movra   0x6              	MOVRA	STK00
000135   3c80     movai   0x80             	MOVAI	0x80
000136   868e     call    0x68e            	CALL	__gptrget1
000137   5630     movra   0x30             	MOVRA	r0x1033
000138   5830     movar   0x30             	MOVAR	r0x1033
000139   5606     movra   0x6              	MOVRA	STK00
00013a   582a     movar   0x2a             	MOVAR	r0x1030
00013b   8159     call    0x159            	CALL	_TM1650_WriteByte
                                           ;	.line	729; "MC32F7361.c"	}
00013c   000c     return                   	RETURN	
                                           ; exit point of _TM1650_DisplayBit
                                           
                                           ;***
                                           ;  pBlock Stats: dbName = C
                                           ;***
                                           ;entry:  _TM1650_Init	;Function start
                                           ; 2 exit points
                                           ;has an exit
                                           ;functions called:
                                           ;   _bsp_i2c_init
                                           ;   _TM1650_WriteByte
                                           ;   _TM1650_WriteByte
                                           ;   _TM1650_Clear
                                           ;   _bsp_i2c_init
                                           ;   _TM1650_WriteByte
                                           ;   _TM1650_WriteByte
                                           ;   _TM1650_Clear
                                           ;1 compiler assigned register :
                                           ;   STK00
                                           ;; Starting pCode block
                                           _TM1650_Init	;Function start
                                           ; 2 exit points
                                           ;	.line	704; "MC32F7361.c"	bsp_i2c_init();
00013d   81a0     call    0x1a0            	CALL	_bsp_i2c_init
                                           ;	.line	707; "MC32F7361.c"	TM1650_WriteByte(0x48, 0x01); // 
00013e   3c01     movai   0x1              	MOVAI	0x01
00013f   5606     movra   0x6              	MOVRA	STK00
000140   3c48     movai   0x48             	MOVAI	0x48
000141   8159     call    0x159            	CALL	_TM1650_WriteByte
                                           ;	.line	710; "MC32F7361.c"	TM1650_WriteByte(0x48, TM1650_DISPLAY_ON | TM1650_BRIGHT_MAX);
000142   3c71     movai   0x71             	MOVAI	0x71
000143   5606     movra   0x6              	MOVRA	STK00
000144   3c48     movai   0x48             	MOVAI	0x48
000145   8159     call    0x159            	CALL	_TM1650_WriteByte
                                           ;	.line	713; "MC32F7361.c"	TM1650_Clear();
000146   8148     call    0x148            	CALL	_TM1650_Clear
                                           ;	.line	714; "MC32F7361.c"	}
000147   000c     return                   	RETURN	
                                           ; exit point of _TM1650_Init
                                           
                                           ;***
                                           ;  pBlock Stats: dbName = C
                                           ;***
                                           ;entry:  _TM1650_Clear	;Function start
                                           ; 2 exit points
                                           ;has an exit
                                           ;functions called:
                                           ;   _TM1650_WriteByte
                                           ;   _TM1650_WriteByte
                                           ;   _TM1650_WriteByte
                                           ;   _TM1650_WriteByte
                                           ;   _TM1650_WriteByte
                                           ;   _TM1650_WriteByte
                                           ;   _TM1650_WriteByte
                                           ;   _TM1650_WriteByte
                                           ;1 compiler assigned register :
                                           ;   STK00
                                           ;; Starting pCode block
                                           _TM1650_Clear	;Function start
                                           ; 2 exit points
                                           ;	.line	695; "MC32F7361.c"	TM1650_WriteByte(0x68, 0x00); // 1
000148   3c00     movai   0                	MOVAI	0x00
000149   5606     movra   0x6              	MOVRA	STK00
00014a   3c68     movai   0x68             	MOVAI	0x68
00014b   8159     call    0x159            	CALL	_TM1650_WriteByte
                                           ;	.line	696; "MC32F7361.c"	TM1650_WriteByte(0x6A, 0x00); // 2
00014c   3c00     movai   0                	MOVAI	0x00
00014d   5606     movra   0x6              	MOVRA	STK00
00014e   3c6a     movai   0x6a             	MOVAI	0x6a
00014f   8159     call    0x159            	CALL	_TM1650_WriteByte
                                           ;	.line	697; "MC32F7361.c"	TM1650_WriteByte(0x6C, 0x00); // 3
000150   3c00     movai   0                	MOVAI	0x00
000151   5606     movra   0x6              	MOVRA	STK00
000152   3c6c     movai   0x6c             	MOVAI	0x6c
000153   8159     call    0x159            	CALL	_TM1650_WriteByte
                                           ;	.line	698; "MC32F7361.c"	TM1650_WriteByte(0x6E, 0x00); // 4
000154   3c00     movai   0                	MOVAI	0x00
000155   5606     movra   0x6              	MOVRA	STK00
000156   3c6e     movai   0x6e             	MOVAI	0x6e
000157   8159     call    0x159            	CALL	_TM1650_WriteByte
                                           ;	.line	699; "MC32F7361.c"	}
000158   000c     return                   	RETURN	
                                           ; exit point of _TM1650_Clear
                                           
                                           ;***
                                           ;  pBlock Stats: dbName = C
                                           ;***
                                           ;entry:  _TM1650_WriteByte	;Function start
                                           ; 2 exit points
                                           ;has an exit
                                           ;functions called:
                                           ;   _bsp_i2c_start
                                           ;   _bsp_i2c_tx_byte
                                           ;   _bsp_i2c_rx_ack
                                           ;   _bsp_i2c_tx_byte
                                           ;   _bsp_i2c_rx_ack
                                           ;   _bsp_i2c_stop
                                           ;   _bsp_i2c_start
                                           ;   _bsp_i2c_tx_byte
                                           ;   _bsp_i2c_rx_ack
                                           ;   _bsp_i2c_tx_byte
                                           ;   _bsp_i2c_rx_ack
                                           ;   _bsp_i2c_stop
                                           ;3 compiler assigned registers:
                                           ;   r0x102E
                                           ;   STK00
                                           ;   r0x102F
                                           ;; Starting pCode block
                                           _TM1650_WriteByte	;Function start
                                           ; 2 exit points
                                           ;	.line	681; "MC32F7361.c"	void TM1650_WriteByte(uint8_t addr, uint8_t data)
000159   5615     movra   0x15             	MOVRA	r0x102E
00015a   5806     movar   0x6              	MOVAR	STK00
00015b   5616     movra   0x16             	MOVRA	r0x102F
                                           ;	.line	683; "MC32F7361.c"	bsp_i2c_start();
00015c   8195     call    0x195            	CALL	_bsp_i2c_start
                                           ;	.line	684; "MC32F7361.c"	bsp_i2c_tx_byte(addr);
00015d   5815     movar   0x15             	MOVAR	r0x102E
00015e   817c     call    0x17c            	CALL	_bsp_i2c_tx_byte
                                           ;	.line	685; "MC32F7361.c"	bsp_i2c_rx_ack();
00015f   816e     call    0x16e            	CALL	_bsp_i2c_rx_ack
                                           ;	.line	686; "MC32F7361.c"	bsp_i2c_tx_byte(data);
000160   5816     movar   0x16             	MOVAR	r0x102F
000161   817c     call    0x17c            	CALL	_bsp_i2c_tx_byte
                                           ;	.line	687; "MC32F7361.c"	bsp_i2c_rx_ack();
000162   816e     call    0x16e            	CALL	_bsp_i2c_rx_ack
                                           ;	.line	688; "MC32F7361.c"	bsp_i2c_stop();
000163   8165     call    0x165            	CALL	_bsp_i2c_stop
                                           ;	.line	689; "MC32F7361.c"	}
000164   000c     return                   	RETURN	
                                           ; exit point of _TM1650_WriteByte
                                           
                                           ;***
                                           ;  pBlock Stats: dbName = C
                                           ;***
                                           ;entry:  _bsp_i2c_stop	;Function start
                                           ; 2 exit points
                                           ;has an exit
                                           ;functions called:
                                           ;   _delay_us
                                           ;   _delay_us
                                           ;   _delay_us
                                           ;   _delay_us
                                           ;; Starting pCode block
                                           _bsp_i2c_stop	;Function start
                                           ; 2 exit points
                                           ;	.line	672; "MC32F7361.c"	I2C_SDA_OUT();
000165   c991     bset    0x191, 0x4       	BSET	_OEP0bits,4
                                           ;	.line	673; "MC32F7361.c"	I2C_SDA_L();
000166   d990     bclr    0x190, 0x4       	BCLR	_IOP0bits,4
                                           ;	.line	674; "MC32F7361.c"	delay_us(5);
000167   3c05     movai   0x5              	MOVAI	0x05
000168   8579     call    0x579            	CALL	_delay_us
                                           ;	.line	675; "MC32F7361.c"	I2C_SCL_H();
000169   c394     bset    0x194, 0x1       	BSET	_IOP1bits,1
                                           ;	.line	676; "MC32F7361.c"	delay_us(5);
00016a   3c05     movai   0x5              	MOVAI	0x05
00016b   8579     call    0x579            	CALL	_delay_us
                                           ;	.line	677; "MC32F7361.c"	I2C_SDA_H();
00016c   c990     bset    0x190, 0x4       	BSET	_IOP0bits,4
                                           ;	.line	678; "MC32F7361.c"	}
00016d   000c     return                   	RETURN	
                                           ; exit point of _bsp_i2c_stop
                                           
                                           ;***
                                           ;  pBlock Stats: dbName = C
                                           ;***
                                           ;entry:  _bsp_i2c_rx_ack	;Function start
                                           ; 2 exit points
                                           ;has an exit
                                           ;functions called:
                                           ;   _delay_us
                                           ;   _delay_us
                                           ;   _delay_us
                                           ;   _delay_us
                                           ;1 compiler assigned register :
                                           ;   r0x102B
                                           ;; Starting pCode block
                                           _bsp_i2c_rx_ack	;Function start
                                           ; 2 exit points
                                           ;	.line	657; "MC32F7361.c"	u8 ret = 0;
00016e   7611     clrr    0x11             	CLRR	r0x102B
                                           ;	.line	658; "MC32F7361.c"	I2C_SDA_IN();
00016f   d991     bclr    0x191, 0x4       	BCLR	_OEP0bits,4
                                           ;	.line	659; "MC32F7361.c"	delay_us(5);
000170   3c05     movai   0x5              	MOVAI	0x05
000171   8579     call    0x579            	CALL	_delay_us
                                           ;	.line	660; "MC32F7361.c"	I2C_SCL_H();
000172   c394     bset    0x194, 0x1       	BSET	_IOP1bits,1
                                           ;	.line	661; "MC32F7361.c"	delay_us(5);
000173   3c05     movai   0x5              	MOVAI	0x05
000174   8579     call    0x579            	CALL	_delay_us
                                           ;	.line	662; "MC32F7361.c"	if (!I2C_SDA_IS_H())
000175   f990     jbclr   0x190, 0x4       	JBCLR	_IOP0bits,4
000176   a179     goto    0x179            	GOTO	_00752_DS_
                                           ;	.line	665; "MC32F7361.c"	ret = 1;
000177   3c01     movai   0x1              	MOVAI	0x01
000178   5611     movra   0x11             	MOVRA	r0x102B
                                           _00752_DS_
                                           ;	.line	667; "MC32F7361.c"	I2C_SCL_L();
000179   d394     bclr    0x194, 0x1       	BCLR	_IOP1bits,1
                                           ;	.line	668; "MC32F7361.c"	return ret;
00017a   5811     movar   0x11             	MOVAR	r0x102B
                                           ;	.line	669; "MC32F7361.c"	}
00017b   000c     return                   	RETURN	
                                           ; exit point of _bsp_i2c_rx_ack
                                           
                                           ;***
                                           ;  pBlock Stats: dbName = C
                                           ;***
                                           ;entry:  _bsp_i2c_tx_byte	;Function start
                                           ; 2 exit points
                                           ;has an exit
                                           ;functions called:
                                           ;   _delay_us
                                           ;   _delay_us
                                           ;   _delay_us
                                           ;   _delay_us
                                           ;3 compiler assigned registers:
                                           ;   r0x102B
                                           ;   r0x102C
                                           ;   r0x102D
                                           ;; Starting pCode block
                                           _bsp_i2c_tx_byte	;Function start
                                           ; 2 exit points
                                           ;	.line	633; "MC32F7361.c"	void bsp_i2c_tx_byte(uint8_t dat)
00017c   5611     movra   0x11             	MOVRA	r0x102B
                                           ;	.line	636; "MC32F7361.c"	I2C_SDA_OUT();
00017d   c991     bset    0x191, 0x4       	BSET	_OEP0bits,4
                                           ;	.line	637; "MC32F7361.c"	for (i = 0; i < 8; i++)
00017e   7613     clrr    0x13             	CLRR	r0x102C
                                           _00746_DS_
                                           ;	.line	639; "MC32F7361.c"	if (dat & 0x80)
00017f   ee11     jbset   0x11, 0x7        	JBSET	r0x102B,7
000180   a183     goto    0x183            	GOTO	_00743_DS_
                                           ;	.line	641; "MC32F7361.c"	I2C_SDA_H();
000181   c990     bset    0x190, 0x4       	BSET	_IOP0bits,4
000182   a184     goto    0x184            	GOTO	_00744_DS_
                                           _00743_DS_
                                           ;	.line	645; "MC32F7361.c"	I2C_SDA_L();
000183   d990     bclr    0x190, 0x4       	BCLR	_IOP0bits,4
                                           _00744_DS_
                                           ;	.line	647; "MC32F7361.c"	delay_us(5);
000184   3c05     movai   0x5              	MOVAI	0x05
000185   8579     call    0x579            	CALL	_delay_us
                                           ;	.line	648; "MC32F7361.c"	I2C_SCL_H();
000186   c394     bset    0x194, 0x1       	BSET	_IOP1bits,1
                                           ;	.line	649; "MC32F7361.c"	delay_us(5);
000187   3c05     movai   0x5              	MOVAI	0x05
000188   8579     call    0x579            	CALL	_delay_us
                                           ;	.line	650; "MC32F7361.c"	I2C_SCL_L();
000189   d394     bclr    0x194, 0x1       	BCLR	_IOP1bits,1
                                           ;	.line	651; "MC32F7361.c"	dat <<= 1;
00018a   5811     movar   0x11             	MOVAR	r0x102B
00018b   5614     movra   0x14             	MOVRA	r0x102D
00018c   d187     bclr    0x187, 0         	BCLR	PFLAG,0
00018d   5014     rlar    0x14             	RLAR	r0x102D
00018e   5611     movra   0x11             	MOVRA	r0x102B
                                           ;	.line	637; "MC32F7361.c"	for (i = 0; i < 8; i++)
00018f   6613     incr    0x13             	INCR	r0x102C
                                           ;;unsigned compare: left < lit(0x8=8), size=1
000190   3c08     movai   0x8              	MOVAI	0x08
000191   4813     rsubar  0x13             	RSUBAR	r0x102C
000192   e187     jbset   0x187, 0         	JBSET	PFLAG,0
000193   a17f     goto    0x17f            	GOTO	_00746_DS_
                                           ;;genSkipc:3291: created from rifx:013B5EFC
                                           ;	.line	653; "MC32F7361.c"	}
000194   000c     return                   	RETURN	
                                           ; exit point of _bsp_i2c_tx_byte
                                           
                                           ;***
                                           ;  pBlock Stats: dbName = C
                                           ;***
                                           ;entry:  _bsp_i2c_start	;Function start
                                           ; 2 exit points
                                           ;has an exit
                                           ;functions called:
                                           ;   _delay_us
                                           ;   _delay_us
                                           ;   _delay_us
                                           ;   _delay_us
                                           ;; Starting pCode block
                                           _bsp_i2c_start	;Function start
                                           ; 2 exit points
                                           ;	.line	624; "MC32F7361.c"	I2C_SDA_OUT();
000195   c991     bset    0x191, 0x4       	BSET	_OEP0bits,4
                                           ;	.line	625; "MC32F7361.c"	I2C_SCL_OUT();
000196   c395     bset    0x195, 0x1       	BSET	_OEP1bits,1
                                           ;	.line	626; "MC32F7361.c"	I2C_SDA_H();
000197   c990     bset    0x190, 0x4       	BSET	_IOP0bits,4
                                           ;	.line	627; "MC32F7361.c"	I2C_SCL_H();
000198   c394     bset    0x194, 0x1       	BSET	_IOP1bits,1
                                           ;	.line	628; "MC32F7361.c"	delay_us(5);
000199   3c05     movai   0x5              	MOVAI	0x05
00019a   8579     call    0x579            	CALL	_delay_us
                                           ;	.line	629; "MC32F7361.c"	I2C_SDA_L();
00019b   d990     bclr    0x190, 0x4       	BCLR	_IOP0bits,4
                                           ;	.line	630; "MC32F7361.c"	delay_us(5);
00019c   3c05     movai   0x5              	MOVAI	0x05
00019d   8579     call    0x579            	CALL	_delay_us
                                           ;	.line	631; "MC32F7361.c"	I2C_SCL_L();
00019e   d394     bclr    0x194, 0x1       	BCLR	_IOP1bits,1
                                           ;	.line	632; "MC32F7361.c"	}
00019f   000c     return                   	RETURN	
                                           ; exit point of _bsp_i2c_start
                                           
                                           ;***
                                           ;  pBlock Stats: dbName = C
                                           ;***
                                           ;entry:  _bsp_i2c_init	;Function start
                                           ; 2 exit points
                                           ;has an exit
                                           ;functions called:
                                           ;   _delay_ms
                                           ;   _delay_ms
                                           ;1 compiler assigned register :
                                           ;   STK00
                                           ;; Starting pCode block
                                           _bsp_i2c_init	;Function start
                                           ; 2 exit points
                                           ;	.line	617; "MC32F7361.c"	I2C_SDA_OUT();
0001a0   c991     bset    0x191, 0x4       	BSET	_OEP0bits,4
                                           ;	.line	618; "MC32F7361.c"	I2C_SCL_OUT();
0001a1   c395     bset    0x195, 0x1       	BSET	_OEP1bits,1
                                           ;	.line	619; "MC32F7361.c"	I2C_SDA_H();
0001a2   c990     bset    0x190, 0x4       	BSET	_IOP0bits,4
                                           ;	.line	620; "MC32F7361.c"	delay_ms(5);
0001a3   3c05     movai   0x5              	MOVAI	0x05
0001a4   5606     movra   0x6              	MOVRA	STK00
0001a5   3c00     movai   0                	MOVAI	0x00
0001a6   8582     call    0x582            	CALL	_delay_ms
                                           ;	.line	621; "MC32F7361.c"	}
0001a7   000c     return                   	RETURN	
                                           ; exit point of _bsp_i2c_init
                                           
                                           ;***
                                           ;  pBlock Stats: dbName = C
                                           ;***
                                           ;entry:  _key_ad_key_event_deal	;Function start
                                           ; 2 exit points
                                           ;has an exit
                                           ;functions called:
                                           ;   _ad_key_event_10ms_isr
                                           ;   __mulchar
                                           ;   __gptrget1
                                           ;   __moduint
                                           ;   __moduint
                                           ;   _ad_key_event_10ms_isr
                                           ;   __mulchar
                                           ;   __gptrget1
                                           ;   __moduint
                                           ;   __moduint
                                           ;6 compiler assigned registers:
                                           ;   STK00
                                           ;   r0x1033
                                           ;   r0x1034
                                           ;   STK01
                                           ;   r0x1035
                                           ;   STK02
                                           ;; Starting pCode block
                                           _key_ad_key_event_deal	;Function start
                                           ; 2 exit points
                                           ;	.line	486; "MC32F7361.c"	if (!flag_10ms)
0001a8   f079     jbclr   0x79, 0          	JBCLR	_flag1,0
0001a9   a1ab     goto    0x1ab            	GOTO	_00578_DS_
                                           ;	.line	487; "MC32F7361.c"	return;
0001aa   a26a     goto    0x26a            	GOTO	_00621_DS_
                                           _00578_DS_
                                           ;	.line	489; "MC32F7361.c"	flag_10ms = 0;
0001ab   d079     bclr    0x79, 0          	BCLR	_flag1,0
                                           ;	.line	491; "MC32F7361.c"	ad_key_event_10ms_isr();
0001ac   826b     call    0x26b            	CALL	_ad_key_event_10ms_isr
                                           ;;unsigned compare: left < lit(0x6=6), size=1
                                           ;	.line	505; "MC32F7361.c"	if (cur_key_id < AD_KEY_ID_NONE && ad_key_event != KEY_EVENT_NONE)
0001ad   3c06     movai   0x6              	MOVAI	0x06
0001ae   4876     rsubar  0x76             	RSUBAR	_cur_key_id
0001af   f187     jbclr   0x187, 0         	JBCLR	PFLAG,0
0001b0   a26a     goto    0x26a            	GOTO	_00621_DS_
                                           ;;genSkipc:3291: created from rifx:013B5EFC
0001b1   5875     movar   0x75             	MOVAR	_ad_key_event
0001b2   3903     xorai   0x3              	XORAI	0x03
0001b3   e587     jbset   0x187, 0x2       	JBSET	PFLAG,2
0001b4   a1b6     goto    0x1b6            	GOTO	_00716_DS_
0001b5   a26a     goto    0x26a            	GOTO	_00621_DS_
                                           _00716_DS_
                                           ;	.line	510; "MC32F7361.c"	switch (key_event_table[cur_key_id][ad_key_event])
0001b6   3c03     movai   0x3              	MOVAI	0x03
0001b7   5606     movra   0x6              	MOVRA	STK00
0001b8   5876     movar   0x76             	MOVAR	_cur_key_id
0001b9   8665     call    0x665            	CALL	__mulchar
0001ba   5630     movra   0x30             	MOVRA	r0x1033
0001bb   5830     movar   0x30             	MOVAR	r0x1033
0001bc   3f7c     addai   0x7c             	ADDAI	(_key_event_table + 0)
0001bd   5630     movra   0x30             	MOVRA	r0x1033
0001be   3c06     movai   0x6              	MOVAI	high (_key_event_table + 0)
0001bf   f187     jbclr   0x187, 0         	JBCLR	PFLAG,0
0001c0   3f01     addai   0x1              	ADDAI	0x01
0001c1   5631     movra   0x31             	MOVRA	r0x1034
0001c2   5875     movar   0x75             	MOVAR	_ad_key_event
0001c3   7e30     addra   0x30             	ADDRA	r0x1033
0001c4   5831     movar   0x31             	MOVAR	r0x1034
0001c5   f187     jbclr   0x187, 0         	JBCLR	PFLAG,0
0001c6   3f01     addai   0x1              	ADDAI	0x01
0001c7   5631     movra   0x31             	MOVRA	r0x1034
0001c8   5830     movar   0x30             	MOVAR	r0x1033
0001c9   5605     movra   0x5              	MOVRA	STK01
0001ca   5831     movar   0x31             	MOVAR	r0x1034
0001cb   5606     movra   0x6              	MOVRA	STK00
0001cc   3c80     movai   0x80             	MOVAI	0x80
0001cd   868e     call    0x68e            	CALL	__gptrget1
0001ce   5632     movra   0x32             	MOVRA	r0x1035
0001cf   5832     movar   0x32             	MOVAR	r0x1035
0001d0   3901     xorai   0x1              	XORAI	0x01
0001d1   e587     jbset   0x187, 0x2       	JBSET	PFLAG,2
0001d2   a1d4     goto    0x1d4            	GOTO	_00717_DS_
0001d3   a202     goto    0x202            	GOTO	_00582_DS_
                                           _00717_DS_
0001d4   5832     movar   0x32             	MOVAR	r0x1035
0001d5   3902     xorai   0x2              	XORAI	0x02
0001d6   e587     jbset   0x187, 0x2       	JBSET	PFLAG,2
0001d7   a1d9     goto    0x1d9            	GOTO	_00718_DS_
0001d8   a268     goto    0x268            	GOTO	_00617_DS_
                                           _00718_DS_
0001d9   5832     movar   0x32             	MOVAR	r0x1035
0001da   3903     xorai   0x3              	XORAI	0x03
0001db   e587     jbset   0x187, 0x2       	JBSET	PFLAG,2
0001dc   a1de     goto    0x1de            	GOTO	_00719_DS_
0001dd   a268     goto    0x268            	GOTO	_00617_DS_
                                           _00719_DS_
0001de   5832     movar   0x32             	MOVAR	r0x1035
0001df   3905     xorai   0x5              	XORAI	0x05
0001e0   e587     jbset   0x187, 0x2       	JBSET	PFLAG,2
0001e1   a1e3     goto    0x1e3            	GOTO	_00720_DS_
0001e2   a268     goto    0x268            	GOTO	_00617_DS_
                                           _00720_DS_
0001e3   5832     movar   0x32             	MOVAR	r0x1035
0001e4   3908     xorai   0x8              	XORAI	0x08
0001e5   e587     jbset   0x187, 0x2       	JBSET	PFLAG,2
0001e6   a1e8     goto    0x1e8            	GOTO	_00721_DS_
0001e7   a20b     goto    0x20b            	GOTO	_00589_DS_
                                           _00721_DS_
0001e8   5832     movar   0x32             	MOVAR	r0x1035
0001e9   3909     xorai   0x9              	XORAI	0x09
0001ea   e587     jbset   0x187, 0x2       	JBSET	PFLAG,2
0001eb   a1ed     goto    0x1ed            	GOTO	_00722_DS_
0001ec   a214     goto    0x214            	GOTO	_00592_DS_
                                           _00722_DS_
0001ed   5832     movar   0x32             	MOVAR	r0x1035
0001ee   390b     xorai   0xb              	XORAI	0x0b
0001ef   e587     jbset   0x187, 0x2       	JBSET	PFLAG,2
0001f0   a1f2     goto    0x1f2            	GOTO	_00723_DS_
0001f1   a268     goto    0x268            	GOTO	_00617_DS_
                                           _00723_DS_
0001f2   5832     movar   0x32             	MOVAR	r0x1035
0001f3   390c     xorai   0xc              	XORAI	0x0c
0001f4   e587     jbset   0x187, 0x2       	JBSET	PFLAG,2
0001f5   a1f7     goto    0x1f7            	GOTO	_00724_DS_
0001f6   a268     goto    0x268            	GOTO	_00617_DS_
                                           _00724_DS_
0001f7   5832     movar   0x32             	MOVAR	r0x1035
0001f8   390e     xorai   0xe              	XORAI	0x0e
0001f9   e587     jbset   0x187, 0x2       	JBSET	PFLAG,2
0001fa   a1fc     goto    0x1fc            	GOTO	_00725_DS_
0001fb   a268     goto    0x268            	GOTO	_00617_DS_
                                           _00725_DS_
0001fc   5832     movar   0x32             	MOVAR	r0x1035
0001fd   390f     xorai   0xf              	XORAI	0x0f
0001fe   e587     jbset   0x187, 0x2       	JBSET	PFLAG,2
0001ff   a201     goto    0x201            	GOTO	_00726_DS_
000200   a242     goto    0x242            	GOTO	_00605_DS_
                                           _00726_DS_
000201   a268     goto    0x268            	GOTO	_00617_DS_
                                           _00582_DS_
                                           ;	.line	516; "MC32F7361.c"	if (flag_is_ble_open)
000202   e279     jbset   0x79, 0x1        	JBSET	_flag1,1
000203   a207     goto    0x207            	GOTO	_00584_DS_
                                           ;	.line	518; "MC32F7361.c"	BLE_CTL_PIN_IN();
000204   df95     bclr    0x195, 0x7       	BCLR	_OEP1bits,7
                                           ;	.line	519; "MC32F7361.c"	flag_is_ble_open = 0;
000205   d279     bclr    0x79, 0x1        	BCLR	_flag1,1
000206   a268     goto    0x268            	GOTO	_00617_DS_
                                           _00584_DS_
                                           ;	.line	523; "MC32F7361.c"	BLE_CTL_PIN_OUT();
000207   cf95     bset    0x195, 0x7       	BSET	_OEP1bits,7
                                           ;	.line	524; "MC32F7361.c"	BLE_CTL_PIN_LOW(); // 
000208   df94     bclr    0x194, 0x7       	BCLR	_IOP1bits,7
                                           ;	.line	525; "MC32F7361.c"	flag_is_ble_open = 1;
000209   c279     bset    0x79, 0x1        	BSET	_flag1,1
                                           ;	.line	528; "MC32F7361.c"	break;
00020a   a268     goto    0x268            	GOTO	_00617_DS_
                                           _00589_DS_
                                           ;	.line	544; "MC32F7361.c"	set_time_hold_cnt++;
00020b   6677     incr    0x77             	INCR	_set_time_hold_cnt
                                           ;;unsigned compare: left < lit(0xDC=220), size=1
                                           ;	.line	545; "MC32F7361.c"	if (set_time_hold_cnt >= 220)
00020c   3cdc     movai   0xdc             	MOVAI	0xdc
00020d   4877     rsubar  0x77             	RSUBAR	_set_time_hold_cnt
00020e   e187     jbset   0x187, 0         	JBSET	PFLAG,0
00020f   a268     goto    0x268            	GOTO	_00617_DS_
                                           ;;genSkipc:3291: created from rifx:013B5EFC
                                           ;	.line	547; "MC32F7361.c"	set_time_hold_cnt = 0;
000210   7677     clrr    0x77             	CLRR	_set_time_hold_cnt
                                           ;	.line	548; "MC32F7361.c"	cur_status = STATUS_SET_TIME_HOUR;
000211   3c01     movai   0x1              	MOVAI	0x01
000212   5678     movra   0x78             	MOVRA	_cur_status
                                           ;	.line	551; "MC32F7361.c"	break;
000213   a268     goto    0x268            	GOTO	_00617_DS_
                                           _00592_DS_
                                           ;	.line	555; "MC32F7361.c"	set_time_done_cnt = 0;
000214   7670     clrr    0x70             	CLRR	_set_time_done_cnt
000215   7671     clrr    0x71             	CLRR	(_set_time_done_cnt + 1)
                                           ;	.line	556; "MC32F7361.c"	if (STATUS_SET_TIME_HOUR == cur_status)
000216   5878     movar   0x78             	MOVAR	_cur_status
000217   3901     xorai   0x1              	XORAI	0x01
000218   e587     jbset   0x187, 0x2       	JBSET	PFLAG,2
000219   a227     goto    0x227            	GOTO	_00600_DS_
                                           ;;unsigned compare: left < lit(0x8FC=2300), size=2
                                           ;	.line	558; "MC32F7361.c"	if (cur_time < 2300)
00021a   3c08     movai   0x8              	MOVAI	0x08
00021b   486d     rsubar  0x6d             	RSUBAR	(_cur_time + 1)
00021c   e587     jbset   0x187, 0x2       	JBSET	PFLAG,2
00021d   a220     goto    0x220            	GOTO	_00728_DS_
00021e   3cfc     movai   0xfc             	MOVAI	0xfc
00021f   486c     rsubar  0x6c             	RSUBAR	_cur_time
                                           _00728_DS_
000220   f187     jbclr   0x187, 0         	JBCLR	PFLAG,0
000221   a268     goto    0x268            	GOTO	_00617_DS_
                                           ;;genSkipc:3291: created from rifx:013B5EFC
                                           ;	.line	559; "MC32F7361.c"	cur_time += 100;
000222   3c64     movai   0x64             	MOVAI	0x64
000223   7e6c     addra   0x6c             	ADDRA	_cur_time
000224   f187     jbclr   0x187, 0         	JBCLR	PFLAG,0
000225   666d     incr    0x6d             	INCR	(_cur_time + 1)
000226   a268     goto    0x268            	GOTO	_00617_DS_
                                           _00600_DS_
                                           ;	.line	561; "MC32F7361.c"	else if (STATUS_SET_TIME_MIN == cur_status)
000227   5878     movar   0x78             	MOVAR	_cur_status
000228   3902     xorai   0x2              	XORAI	0x02
000229   e587     jbset   0x187, 0x2       	JBSET	PFLAG,2
00022a   a268     goto    0x268            	GOTO	_00617_DS_
                                           ;	.line	563; "MC32F7361.c"	if ((cur_time % 100) < 59)
00022b   3c64     movai   0x64             	MOVAI	0x64
00022c   5604     movra   0x4              	MOVRA	STK02
00022d   3c00     movai   0                	MOVAI	0x00
00022e   5605     movra   0x5              	MOVRA	STK01
00022f   586c     movar   0x6c             	MOVAR	_cur_time
000230   5606     movra   0x6              	MOVRA	STK00
000231   586d     movar   0x6d             	MOVAR	(_cur_time + 1)
000232   8632     call    0x632            	CALL	__moduint
000233   5631     movra   0x31             	MOVRA	r0x1034
000234   5806     movar   0x6              	MOVAR	STK00
000235   5630     movra   0x30             	MOVRA	r0x1033
                                           ;;unsigned compare: left < lit(0x3B=59), size=2
000236   3c00     movai   0                	MOVAI	0x00
000237   4831     rsubar  0x31             	RSUBAR	r0x1034
000238   e587     jbset   0x187, 0x2       	JBSET	PFLAG,2
000239   a23c     goto    0x23c            	GOTO	_00729_DS_
00023a   3c3b     movai   0x3b             	MOVAI	0x3b
00023b   4830     rsubar  0x30             	RSUBAR	r0x1033
                                           _00729_DS_
00023c   f187     jbclr   0x187, 0         	JBCLR	PFLAG,0
00023d   a268     goto    0x268            	GOTO	_00617_DS_
                                           ;;genSkipc:3291: created from rifx:013B5EFC
                                           ;	.line	565; "MC32F7361.c"	cur_time++;
00023e   666c     incr    0x6c             	INCR	_cur_time
00023f   f587     jbclr   0x187, 0x2       	JBCLR	PFLAG,2
000240   666d     incr    0x6d             	INCR	(_cur_time + 1)
                                           ;	.line	569; "MC32F7361.c"	break;
000241   a268     goto    0x268            	GOTO	_00617_DS_
                                           _00605_DS_
                                           ;	.line	585; "MC32F7361.c"	set_time_done_cnt = 0;
000242   7670     clrr    0x70             	CLRR	_set_time_done_cnt
000243   7671     clrr    0x71             	CLRR	(_set_time_done_cnt + 1)
                                           ;	.line	586; "MC32F7361.c"	if (STATUS_SET_TIME_HOUR == cur_status)
000244   5878     movar   0x78             	MOVAR	_cur_status
000245   3901     xorai   0x1              	XORAI	0x01
000246   e587     jbset   0x187, 0x2       	JBSET	PFLAG,2
000247   a251     goto    0x251            	GOTO	_00613_DS_
                                           ;	.line	588; "MC32F7361.c"	if (cur_time > 0)
000248   586c     movar   0x6c             	MOVAR	_cur_time
000249   5c6d     orar    0x6d             	ORAR	(_cur_time + 1)
00024a   f587     jbclr   0x187, 0x2       	JBCLR	PFLAG,2
00024b   a268     goto    0x268            	GOTO	_00617_DS_
                                           ;	.line	589; "MC32F7361.c"	cur_time -= 100;
00024c   3c9c     movai   0x9c             	MOVAI	0x9c
00024d   7e6c     addra   0x6c             	ADDRA	_cur_time
00024e   e187     jbset   0x187, 0         	JBSET	PFLAG,0
00024f   6e6d     decr    0x6d             	DECR	(_cur_time + 1)
000250   a268     goto    0x268            	GOTO	_00617_DS_
                                           _00613_DS_
                                           ;	.line	591; "MC32F7361.c"	else if (STATUS_SET_TIME_MIN == cur_status)
000251   5878     movar   0x78             	MOVAR	_cur_status
000252   3902     xorai   0x2              	XORAI	0x02
000253   e587     jbset   0x187, 0x2       	JBSET	PFLAG,2
000254   a268     goto    0x268            	GOTO	_00617_DS_
                                           ;	.line	593; "MC32F7361.c"	if ((cur_time % 100) > 0)
000255   3c64     movai   0x64             	MOVAI	0x64
000256   5604     movra   0x4              	MOVRA	STK02
000257   3c00     movai   0                	MOVAI	0x00
000258   5605     movra   0x5              	MOVRA	STK01
000259   586c     movar   0x6c             	MOVAR	_cur_time
00025a   5606     movra   0x6              	MOVRA	STK00
00025b   586d     movar   0x6d             	MOVAR	(_cur_time + 1)
00025c   8632     call    0x632            	CALL	__moduint
00025d   5631     movra   0x31             	MOVRA	r0x1034
00025e   5806     movar   0x6              	MOVAR	STK00
00025f   5630     movra   0x30             	MOVRA	r0x1033
000260   5830     movar   0x30             	MOVAR	r0x1033
000261   5c31     orar    0x31             	ORAR	r0x1034
000262   f587     jbclr   0x187, 0x2       	JBCLR	PFLAG,2
000263   a268     goto    0x268            	GOTO	_00617_DS_
                                           ;	.line	595; "MC32F7361.c"	cur_time--;
000264   3cff     movai   0xff             	MOVAI	0xff
000265   7e6c     addra   0x6c             	ADDRA	_cur_time
000266   e187     jbset   0x187, 0         	JBSET	PFLAG,0
000267   6e6d     decr    0x6d             	DECR	(_cur_time + 1)
                                           _00617_DS_
                                           ;	.line	609; "MC32F7361.c"	ad_key_event = KEY_EVENT_NONE; // 
000268   3c03     movai   0x3              	MOVAI	0x03
000269   5675     movra   0x75             	MOVRA	_ad_key_event
                                           _00621_DS_
                                           ;	.line	611; "MC32F7361.c"	}
00026a   000c     return                   	RETURN	
                                           ; exit point of _key_ad_key_event_deal
                                           
                                           ;***
                                           ;  pBlock Stats: dbName = C
                                           ;***
                                           ;entry:  _ad_key_event_10ms_isr	;Function start
                                           ; 2 exit points
                                           ;has an exit
                                           ;functions called:
                                           ;   _get_key_id
                                           ;   _get_key_id
                                           ;; Starting pCode block
                                           _ad_key_event_10ms_isr	;Function start
                                           ; 2 exit points
                                           ;	.line	437; "MC32F7361.c"	cur_key_id = get_key_id();
00026b   829a     call    0x29a            	CALL	_get_key_id
00026c   5676     movra   0x76             	MOVRA	_cur_key_id
                                           ;	.line	442; "MC32F7361.c"	if (last != cur_key_id) //  / 
00026d   5876     movar   0x76             	MOVAR	_cur_key_id
00026e   4046     xorar   0x46             	XORAR	_ad_key_event_10ms_isr_last_65536_89
00026f   e587     jbset   0x187, 0x2       	JBSET	PFLAG,2
000270   a272     goto    0x272            	GOTO	_00570_DS_
000271   a282     goto    0x282            	GOTO	_00538_DS_
                                           _00570_DS_
                                           ;	.line	444; "MC32F7361.c"	if (last == AD_KEY_ID_NONE)
000272   5846     movar   0x46             	MOVAR	_ad_key_event_10ms_isr_last_65536_89
000273   3906     xorai   0x6              	XORAI	0x06
000274   e587     jbset   0x187, 0x2       	JBSET	PFLAG,2
000275   a278     goto    0x278            	GOTO	_00528_DS_
                                           ;	.line	447; "MC32F7361.c"	count = 0;
000276   7645     clrr    0x45             	CLRR	_ad_key_event_10ms_isr_count_65536_89
000277   a297     goto    0x297            	GOTO	_00539_DS_
                                           _00528_DS_
                                           ;	.line	449; "MC32F7361.c"	else if (cur_key_id == AD_KEY_ID_NONE)
000278   5876     movar   0x76             	MOVAR	_cur_key_id
000279   3906     xorai   0x6              	XORAI	0x06
00027a   e587     jbset   0x187, 0x2       	JBSET	PFLAG,2
00027b   a297     goto    0x297            	GOTO	_00539_DS_
                                           ;;unsigned compare: left < lit(0x4B=75), size=1
                                           ;	.line	452; "MC32F7361.c"	if (count < 75)
00027c   3c4b     movai   0x4b             	MOVAI	0x4b
00027d   4845     rsubar  0x45             	RSUBAR	_ad_key_event_10ms_isr_count_65536_89
00027e   f187     jbclr   0x187, 0         	JBCLR	PFLAG,0
00027f   a297     goto    0x297            	GOTO	_00539_DS_
                                           ;;genSkipc:3291: created from rifx:013B5EFC
                                           ;	.line	455; "MC32F7361.c"	ad_key_event = KEY_EVENT_CLICK;
000280   7675     clrr    0x75             	CLRR	_ad_key_event
000281   a297     goto    0x297            	GOTO	_00539_DS_
                                           _00538_DS_
                                           ;	.line	463; "MC32F7361.c"	else if (cur_key_id != AD_KEY_ID_NONE)
000282   5876     movar   0x76             	MOVAR	_cur_key_id
000283   3906     xorai   0x6              	XORAI	0x06
000284   e587     jbset   0x187, 0x2       	JBSET	PFLAG,2
000285   a287     goto    0x287            	GOTO	_00572_DS_
000286   a297     goto    0x297            	GOTO	_00539_DS_
                                           _00572_DS_
                                           ;	.line	466; "MC32F7361.c"	count++;
000287   6645     incr    0x45             	INCR	_ad_key_event_10ms_isr_count_65536_89
                                           ;	.line	468; "MC32F7361.c"	if (count == 70)
000288   5845     movar   0x45             	MOVAR	_ad_key_event_10ms_isr_count_65536_89
000289   3946     xorai   0x46             	XORAI	0x46
00028a   e587     jbset   0x187, 0x2       	JBSET	PFLAG,2
00028b   a28f     goto    0x28f            	GOTO	_00533_DS_
                                           ;	.line	471; "MC32F7361.c"	ad_key_event = KEY_EVENT_LONG;
00028c   3c01     movai   0x1              	MOVAI	0x01
00028d   5675     movra   0x75             	MOVRA	_ad_key_event
00028e   a297     goto    0x297            	GOTO	_00539_DS_
                                           ;;unsigned compare: left < lit(0x50=80), size=1
                                           _00533_DS_
                                           ;	.line	473; "MC32F7361.c"	else if (count >= 70 + 10)
00028f   3c50     movai   0x50             	MOVAI	0x50
000290   4845     rsubar  0x45             	RSUBAR	_ad_key_event_10ms_isr_count_65536_89
000291   e187     jbset   0x187, 0         	JBSET	PFLAG,0
000292   a297     goto    0x297            	GOTO	_00539_DS_
                                           ;;genSkipc:3291: created from rifx:013B5EFC
                                           ;	.line	476; "MC32F7361.c"	ad_key_event = KEY_EVENT_HOLD;
000293   3c02     movai   0x2              	MOVAI	0x02
000294   5675     movra   0x75             	MOVRA	_ad_key_event
                                           ;	.line	477; "MC32F7361.c"	count = 70;
000295   3c46     movai   0x46             	MOVAI	0x46
000296   5645     movra   0x45             	MOVRA	_ad_key_event_10ms_isr_count_65536_89
                                           _00539_DS_
                                           ;	.line	481; "MC32F7361.c"	last = cur_key_id;
000297   5876     movar   0x76             	MOVAR	_cur_key_id
000298   5646     movra   0x46             	MOVRA	_ad_key_event_10ms_isr_last_65536_89
                                           ;	.line	482; "MC32F7361.c"	}
000299   000c     return                   	RETURN	
                                           ; exit point of _ad_key_event_10ms_isr
                                           
                                           ;***
                                           ;  pBlock Stats: dbName = C
                                           ;***
                                           ;entry:  _get_key_id	;Function start
                                           ; 2 exit points
                                           ;has an exit
                                           ;functions called:
                                           ;   _adc_single_convert
                                           ;   __gptrget1
                                           ;   _adc_single_convert
                                           ;   __gptrget1
                                           ;5 compiler assigned registers:
                                           ;   r0x1030
                                           ;   STK00
                                           ;   r0x1031
                                           ;   STK01
                                           ;   r0x1032
                                           ;; Starting pCode block
                                           _get_key_id	;Function start
                                           ; 2 exit points
                                           ;	.line	422; "MC32F7361.c"	adc_val = adc_single_convert() >> 4;
00029a   8362     call    0x362            	CALL	_adc_single_convert
00029b   562a     movra   0x2a             	MOVRA	r0x1030
00029c   5806     movar   0x6              	MOVAR	STK00
00029d   562f     movra   0x2f             	MOVRA	r0x1031
00029e   442f     swapar  0x2f             	SWAPAR	r0x1031
00029f   3e0f     andai   0xf              	ANDAI	0x0f
0002a0   566a     movra   0x6a             	MOVRA	_adc_val
0002a1   442a     swapar  0x2a             	SWAPAR	r0x1030
0002a2   566b     movra   0x6b             	MOVRA	(_adc_val + 1)
0002a3   3ef0     andai   0xf0             	ANDAI	0xf0
0002a4   5e6a     orra    0x6a             	ORRA	_adc_val
0002a5   426b     xorra   0x6b             	XORRA	(_adc_val + 1)
                                           ;	.line	423; "MC32F7361.c"	for (i = 0; i < AD_KEY_ID_NONE; i++)
0002a6   7660     clrr    0x60             	CLRR	_i
0002a7   7661     clrr    0x61             	CLRR	(_i + 1)
                                           _00501_DS_
                                           ;	.line	425; "MC32F7361.c"	if (adc_val <= id_table[i])
0002a8   5860     movar   0x60             	MOVAR	_i
0002a9   3f01     addai   0x1              	ADDAI	(_id_table + 0)
0002aa   562f     movra   0x2f             	MOVRA	r0x1031
0002ab   3c00     movai   0                	MOVAI	high (_id_table + 0)
0002ac   562a     movra   0x2a             	MOVRA	r0x1030
0002ad   5861     movar   0x61             	MOVAR	(_i + 1)
0002ae   f187     jbclr   0x187, 0         	JBCLR	PFLAG,0
0002af   6061     jzar    0x61             	JZAR	(_i + 1)
0002b0   7e2a     addra   0x2a             	ADDRA	r0x1030
0002b1   582f     movar   0x2f             	MOVAR	r0x1031
0002b2   5605     movra   0x5              	MOVRA	STK01
0002b3   582a     movar   0x2a             	MOVAR	r0x1030
0002b4   5606     movra   0x6              	MOVRA	STK00
0002b5   3c80     movai   0x80             	MOVAI	0x80
0002b6   868e     call    0x68e            	CALL	__gptrget1
0002b7   562f     movra   0x2f             	MOVRA	r0x1031
                                           ;;1	MOVRA	r0x1032
                                           ;;105	MOVAR	r0x1032
0002b8   762a     clrr    0x2a             	CLRR	r0x1030
0002b9   586b     movar   0x6b             	MOVAR	(_adc_val + 1)
0002ba   482a     rsubar  0x2a             	RSUBAR	r0x1030
0002bb   e587     jbset   0x187, 0x2       	JBSET	PFLAG,2
0002bc   a2bf     goto    0x2bf            	GOTO	_00517_DS_
0002bd   586a     movar   0x6a             	MOVAR	_adc_val
0002be   482f     rsubar  0x2f             	RSUBAR	r0x1031
                                           _00517_DS_
0002bf   e187     jbset   0x187, 0         	JBSET	PFLAG,0
0002c0   a2c5     goto    0x2c5            	GOTO	_00502_DS_
                                           ;;genSkipc:3291: created from rifx:013B5EFC
                                           ;	.line	426; "MC32F7361.c"	return i;
0002c1   5860     movar   0x60             	MOVAR	_i
0002c2   562f     movra   0x2f             	MOVRA	r0x1031
0002c3   582f     movar   0x2f             	MOVAR	r0x1031
0002c4   a2d1     goto    0x2d1            	GOTO	_00503_DS_
                                           _00502_DS_
                                           ;	.line	423; "MC32F7361.c"	for (i = 0; i < AD_KEY_ID_NONE; i++)
0002c5   6660     incr    0x60             	INCR	_i
0002c6   f587     jbclr   0x187, 0x2       	JBCLR	PFLAG,2
0002c7   6661     incr    0x61             	INCR	(_i + 1)
                                           ;;unsigned compare: left < lit(0x6=6), size=2
0002c8   3c00     movai   0                	MOVAI	0x00
0002c9   4861     rsubar  0x61             	RSUBAR	(_i + 1)
0002ca   e587     jbset   0x187, 0x2       	JBSET	PFLAG,2
0002cb   a2ce     goto    0x2ce            	GOTO	_00518_DS_
0002cc   3c06     movai   0x6              	MOVAI	0x06
0002cd   4860     rsubar  0x60             	RSUBAR	_i
                                           _00518_DS_
0002ce   e187     jbset   0x187, 0         	JBSET	PFLAG,0
0002cf   a2a8     goto    0x2a8            	GOTO	_00501_DS_
                                           ;;genSkipc:3291: created from rifx:013B5EFC
                                           ;	.line	428; "MC32F7361.c"	return AD_KEY_ID_NONE;
0002d0   3c06     movai   0x6              	MOVAI	0x06
                                           _00503_DS_
                                           ;	.line	429; "MC32F7361.c"	}
0002d1   000c     return                   	RETURN	
                                           ; exit point of _get_key_id
                                           
                                           ;***
                                           ;  pBlock Stats: dbName = C
                                           ;***
                                           ;entry:  _adc_get_val	;Function start
                                           ; 2 exit points
                                           ;has an exit
                                           ;functions called:
                                           ;   _adc_single_convert
                                           ;   _adc_single_convert
                                           ;5 compiler assigned registers:
                                           ;   STK00
                                           ;   r0x103B
                                           ;   r0x103C
                                           ;   r0x103D
                                           ;   r0x103E
                                           ;; Starting pCode block
                                           _adc_get_val	;Function start
                                           ; 2 exit points
                                           ;	.line	397; "MC32F7361.c"	adc_val_sum = 0;
0002d2   765c     clrr    0x5c             	CLRR	_adc_val_sum
0002d3   765d     clrr    0x5d             	CLRR	(_adc_val_sum + 1)
0002d4   765e     clrr    0x5e             	CLRR	(_adc_val_sum + 2)
0002d5   765f     clrr    0x5f             	CLRR	(_adc_val_sum + 3)
                                           ;	.line	398; "MC32F7361.c"	get_adcmax = 0;
0002d6   7666     clrr    0x66             	CLRR	_get_adcmax
0002d7   7667     clrr    0x67             	CLRR	(_get_adcmax + 1)
                                           ;	.line	399; "MC32F7361.c"	get_adcmin = 0xFFFF;
0002d8   3cff     movai   0xff             	MOVAI	0xff
0002d9   5668     movra   0x68             	MOVRA	_get_adcmin
0002da   5669     movra   0x69             	MOVRA	(_get_adcmin + 1)
                                           ;	.line	401; "MC32F7361.c"	for (i = 0; i < 20; i++)
0002db   7660     clrr    0x60             	CLRR	_i
0002dc   7661     clrr    0x61             	CLRR	(_i + 1)
                                           _00467_DS_
                                           ;	.line	403; "MC32F7361.c"	adc_val_tmp = adc_single_convert(); // adc
0002dd   8362     call    0x362            	CALL	_adc_single_convert
0002de   5665     movra   0x65             	MOVRA	(_adc_val_tmp + 1)
0002df   5806     movar   0x6              	MOVAR	STK00
0002e0   5664     movra   0x64             	MOVRA	_adc_val_tmp
                                           ;;unsigned compare: left < lit(0x2=2), size=2
                                           ;	.line	404; "MC32F7361.c"	if (i < 2)
0002e1   3c00     movai   0                	MOVAI	0x00
0002e2   4861     rsubar  0x61             	RSUBAR	(_i + 1)
0002e3   e587     jbset   0x187, 0x2       	JBSET	PFLAG,2
0002e4   a2e7     goto    0x2e7            	GOTO	_00490_DS_
0002e5   3c02     movai   0x2              	MOVAI	0x02
0002e6   4860     rsubar  0x60             	RSUBAR	_i
                                           _00490_DS_
0002e7   e187     jbset   0x187, 0         	JBSET	PFLAG,0
0002e8   a315     goto    0x315            	GOTO	_00465_DS_
                                           ;;genSkipc:3291: created from rifx:013B5EFC
                                           ;	.line	406; "MC32F7361.c"	if (adc_val_tmp > get_adcmax)
0002e9   5865     movar   0x65             	MOVAR	(_adc_val_tmp + 1)
0002ea   4867     rsubar  0x67             	RSUBAR	(_get_adcmax + 1)
0002eb   e587     jbset   0x187, 0x2       	JBSET	PFLAG,2
0002ec   a2ef     goto    0x2ef            	GOTO	_00491_DS_
0002ed   5864     movar   0x64             	MOVAR	_adc_val_tmp
0002ee   4866     rsubar  0x66             	RSUBAR	_get_adcmax
                                           _00491_DS_
0002ef   f187     jbclr   0x187, 0         	JBCLR	PFLAG,0
0002f0   a2f5     goto    0x2f5            	GOTO	_00462_DS_
                                           ;;genSkipc:3291: created from rifx:013B5EFC
                                           ;	.line	407; "MC32F7361.c"	get_adcmax = adc_val_tmp; // 
0002f1   5864     movar   0x64             	MOVAR	_adc_val_tmp
0002f2   5666     movra   0x66             	MOVRA	_get_adcmax
0002f3   5865     movar   0x65             	MOVAR	(_adc_val_tmp + 1)
0002f4   5667     movra   0x67             	MOVRA	(_get_adcmax + 1)
                                           _00462_DS_
                                           ;	.line	408; "MC32F7361.c"	if (adc_val_tmp < get_adcmin)
0002f5   5869     movar   0x69             	MOVAR	(_get_adcmin + 1)
0002f6   4865     rsubar  0x65             	RSUBAR	(_adc_val_tmp + 1)
0002f7   e587     jbset   0x187, 0x2       	JBSET	PFLAG,2
0002f8   a2fb     goto    0x2fb            	GOTO	_00492_DS_
0002f9   5868     movar   0x68             	MOVAR	_get_adcmin
0002fa   4864     rsubar  0x64             	RSUBAR	_adc_val_tmp
                                           _00492_DS_
0002fb   f187     jbclr   0x187, 0         	JBCLR	PFLAG,0
0002fc   a301     goto    0x301            	GOTO	_00464_DS_
                                           ;;genSkipc:3291: created from rifx:013B5EFC
                                           ;	.line	409; "MC32F7361.c"	get_adcmin = adc_val_tmp; // 
0002fd   5864     movar   0x64             	MOVAR	_adc_val_tmp
0002fe   5668     movra   0x68             	MOVRA	_get_adcmin
0002ff   5865     movar   0x65             	MOVAR	(_adc_val_tmp + 1)
000300   5669     movra   0x69             	MOVRA	(_get_adcmin + 1)
                                           _00464_DS_
                                           ;	.line	410; "MC32F7361.c"	adc_val_sum += adc_val_tmp;
000301   5864     movar   0x64             	MOVAR	_adc_val_tmp
000302   562b     movra   0x2b             	MOVRA	r0x103B
000303   5865     movar   0x65             	MOVAR	(_adc_val_tmp + 1)
000304   562c     movra   0x2c             	MOVRA	r0x103C
000305   762d     clrr    0x2d             	CLRR	r0x103D
000306   762e     clrr    0x2e             	CLRR	r0x103E
000307   582b     movar   0x2b             	MOVAR	r0x103B
000308   7e5c     addra   0x5c             	ADDRA	_adc_val_sum
000309   582c     movar   0x2c             	MOVAR	r0x103C
00030a   f187     jbclr   0x187, 0         	JBCLR	PFLAG,0
00030b   602c     jzar    0x2c             	JZAR	r0x103C
00030c   7e5d     addra   0x5d             	ADDRA	(_adc_val_sum + 1)
00030d   582d     movar   0x2d             	MOVAR	r0x103D
00030e   f187     jbclr   0x187, 0         	JBCLR	PFLAG,0
00030f   602d     jzar    0x2d             	JZAR	r0x103D
000310   7e5e     addra   0x5e             	ADDRA	(_adc_val_sum + 2)
000311   582e     movar   0x2e             	MOVAR	r0x103E
000312   f187     jbclr   0x187, 0         	JBCLR	PFLAG,0
000313   602e     jzar    0x2e             	JZAR	r0x103E
000314   7e5f     addra   0x5f             	ADDRA	(_adc_val_sum + 3)
                                           _00465_DS_
                                           ;	.line	401; "MC32F7361.c"	for (i = 0; i < 20; i++)
000315   6660     incr    0x60             	INCR	_i
000316   f587     jbclr   0x187, 0x2       	JBCLR	PFLAG,2
000317   6661     incr    0x61             	INCR	(_i + 1)
                                           ;;unsigned compare: left < lit(0x14=20), size=2
000318   3c00     movai   0                	MOVAI	0x00
000319   4861     rsubar  0x61             	RSUBAR	(_i + 1)
00031a   e587     jbset   0x187, 0x2       	JBSET	PFLAG,2
00031b   a31e     goto    0x31e            	GOTO	_00493_DS_
00031c   3c14     movai   0x14             	MOVAI	0x14
00031d   4860     rsubar  0x60             	RSUBAR	_i
                                           _00493_DS_
00031e   e187     jbset   0x187, 0         	JBSET	PFLAG,0
00031f   a2dd     goto    0x2dd            	GOTO	_00467_DS_
                                           ;;genSkipc:3291: created from rifx:013B5EFC
                                           ;	.line	413; "MC32F7361.c"	adc_val_sum -= get_adcmax;        // 
000320   5866     movar   0x66             	MOVAR	_get_adcmax
000321   562b     movra   0x2b             	MOVRA	r0x103B
000322   5867     movar   0x67             	MOVAR	(_get_adcmax + 1)
000323   562c     movra   0x2c             	MOVRA	r0x103C
000324   762d     clrr    0x2d             	CLRR	r0x103D
000325   762e     clrr    0x2e             	CLRR	r0x103E
000326   582b     movar   0x2b             	MOVAR	r0x103B
000327   4a5c     rsubra  0x5c             	RSUBRA	_adc_val_sum
000328   582c     movar   0x2c             	MOVAR	r0x103C
000329   e187     jbset   0x187, 0         	JBSET	PFLAG,0
00032a   602c     jzar    0x2c             	JZAR	r0x103C
00032b   4a5d     rsubra  0x5d             	RSUBRA	(_adc_val_sum + 1)
00032c   582d     movar   0x2d             	MOVAR	r0x103D
00032d   e187     jbset   0x187, 0         	JBSET	PFLAG,0
00032e   602d     jzar    0x2d             	JZAR	r0x103D
00032f   4a5e     rsubra  0x5e             	RSUBRA	(_adc_val_sum + 2)
000330   582e     movar   0x2e             	MOVAR	r0x103E
000331   e187     jbset   0x187, 0         	JBSET	PFLAG,0
000332   602e     jzar    0x2e             	JZAR	r0x103E
000333   4a5f     rsubra  0x5f             	RSUBRA	(_adc_val_sum + 3)
                                           ;	.line	414; "MC32F7361.c"	adc_val_sum -= get_adcmin;        // 
000334   5868     movar   0x68             	MOVAR	_get_adcmin
000335   562b     movra   0x2b             	MOVRA	r0x103B
000336   5869     movar   0x69             	MOVAR	(_get_adcmin + 1)
000337   562c     movra   0x2c             	MOVRA	r0x103C
000338   762d     clrr    0x2d             	CLRR	r0x103D
000339   762e     clrr    0x2e             	CLRR	r0x103E
00033a   582b     movar   0x2b             	MOVAR	r0x103B
00033b   4a5c     rsubra  0x5c             	RSUBRA	_adc_val_sum
00033c   582c     movar   0x2c             	MOVAR	r0x103C
00033d   e187     jbset   0x187, 0         	JBSET	PFLAG,0
00033e   602c     jzar    0x2c             	JZAR	r0x103C
00033f   4a5d     rsubra  0x5d             	RSUBRA	(_adc_val_sum + 1)
000340   582d     movar   0x2d             	MOVAR	r0x103D
000341   e187     jbset   0x187, 0         	JBSET	PFLAG,0
000342   602d     jzar    0x2d             	JZAR	r0x103D
000343   4a5e     rsubra  0x5e             	RSUBRA	(_adc_val_sum + 2)
000344   582e     movar   0x2e             	MOVAR	r0x103E
000345   e187     jbset   0x187, 0         	JBSET	PFLAG,0
000346   602e     jzar    0x2e             	JZAR	r0x103E
000347   4a5f     rsubra  0x5f             	RSUBRA	(_adc_val_sum + 3)
                                           ;	.line	415; "MC32F7361.c"	adc_val_tmp = (adc_val_sum >> 4); // 16
000348   445c     swapar  0x5c             	SWAPAR	_adc_val_sum
000349   3e0f     andai   0xf              	ANDAI	0x0f
00034a   562b     movra   0x2b             	MOVRA	r0x103B
00034b   445d     swapar  0x5d             	SWAPAR	(_adc_val_sum + 1)
00034c   562c     movra   0x2c             	MOVRA	r0x103C
00034d   3ef0     andai   0xf0             	ANDAI	0xf0
00034e   5e2b     orra    0x2b             	ORRA	r0x103B
00034f   422c     xorra   0x2c             	XORRA	r0x103C
000350   445e     swapar  0x5e             	SWAPAR	(_adc_val_sum + 2)
000351   562d     movra   0x2d             	MOVRA	r0x103D
000352   3ef0     andai   0xf0             	ANDAI	0xf0
000353   5e2c     orra    0x2c             	ORRA	r0x103C
000354   422d     xorra   0x2d             	XORRA	r0x103D
000355   445f     swapar  0x5f             	SWAPAR	(_adc_val_sum + 3)
000356   562e     movra   0x2e             	MOVRA	r0x103E
000357   3ef0     andai   0xf0             	ANDAI	0xf0
000358   5e2d     orra    0x2d             	ORRA	r0x103D
000359   422e     xorra   0x2e             	XORRA	r0x103E
00035a   582b     movar   0x2b             	MOVAR	r0x103B
00035b   5664     movra   0x64             	MOVRA	_adc_val_tmp
00035c   582c     movar   0x2c             	MOVAR	r0x103C
00035d   5665     movra   0x65             	MOVRA	(_adc_val_tmp + 1)
                                           ;	.line	417; "MC32F7361.c"	return adc_val_tmp;
00035e   5864     movar   0x64             	MOVAR	_adc_val_tmp
00035f   5606     movra   0x6              	MOVRA	STK00
000360   5865     movar   0x65             	MOVAR	(_adc_val_tmp + 1)
                                           ;	.line	418; "MC32F7361.c"	}
000361   000c     return                   	RETURN	
                                           ; exit point of _adc_get_val
                                           
                                           ;***
                                           ;  pBlock Stats: dbName = C
                                           ;***
                                           ;entry:  _adc_single_convert	;Function start
                                           ; 2 exit points
                                           ;has an exit
                                           ;7 compiler assigned registers:
                                           ;   r0x102A
                                           ;   r0x102B
                                           ;   r0x102C
                                           ;   r0x102D
                                           ;   r0x102E
                                           ;   r0x102F
                                           ;   STK00
                                           ;; Starting pCode block
                                           _adc_single_convert	;Function start
                                           ; 2 exit points
                                           ;	.line	387; "MC32F7361.c"	ADEOC = 0;
000362   d3b0     bclr    0x1b0, 0x1       	BCLR	_ADCR0bits,1
                                           _00454_DS_
                                           ;	.line	388; "MC32F7361.c"	while (!ADEOC)
000363   e3b0     jbset   0x1b0, 0x1       	JBSET	_ADCR0bits,1
000364   a363     goto    0x363            	GOTO	_00454_DS_
                                           ;	.line	390; "MC32F7361.c"	adc_val_tmp = ADRH;
000365   59b4     movar   0x1b4            	MOVAR	_ADRH
000366   5664     movra   0x64             	MOVRA	_adc_val_tmp
000367   7665     clrr    0x65             	CLRR	(_adc_val_tmp + 1)
                                           ;	.line	391; "MC32F7361.c"	adc_val_tmp = adc_val_tmp << 4 | (ADRL & 0x0F);
000368   4465     swapar  0x65             	SWAPAR	(_adc_val_tmp + 1)
000369   3ef0     andai   0xf0             	ANDAI	0xf0
00036a   5612     movra   0x12             	MOVRA	r0x102A
00036b   4464     swapar  0x64             	SWAPAR	_adc_val_tmp
00036c   5611     movra   0x11             	MOVRA	r0x102B
00036d   3e0f     andai   0xf              	ANDAI	0x0f
00036e   5e12     orra    0x12             	ORRA	r0x102A
00036f   4211     xorra   0x11             	XORRA	r0x102B
000370   59b5     movar   0x1b5            	MOVAR	_ADRL
000371   5613     movra   0x13             	MOVRA	r0x102C
000372   7614     clrr    0x14             	CLRR	r0x102D
000373   3c0f     movai   0xf              	MOVAI	0x0f
000374   7a13     andra   0x13             	ANDRA	r0x102C
000375   7614     clrr    0x14             	CLRR	r0x102D
                                           ;;101	MOVAR	r0x102C
                                           ;;99	MOVRA	r0x102E
                                           ;;104	MOVAR	r0x102D
                                           ;;102	MOVRA	r0x102F
                                           ;;100	MOVAR	r0x102E
000376   5813     movar   0x13             	MOVAR	r0x102C
000377   5c11     orar    0x11             	ORAR	r0x102B
000378   5664     movra   0x64             	MOVRA	_adc_val_tmp
                                           ;;103	MOVAR	r0x102F
000379   3c00     movai   0                	MOVAI	0x00
00037a   5c12     orar    0x12             	ORAR	r0x102A
00037b   5665     movra   0x65             	MOVRA	(_adc_val_tmp + 1)
                                           ;	.line	392; "MC32F7361.c"	return adc_val_tmp;
00037c   5864     movar   0x64             	MOVAR	_adc_val_tmp
00037d   5606     movra   0x6              	MOVRA	STK00
00037e   5865     movar   0x65             	MOVAR	(_adc_val_tmp + 1)
                                           ;	.line	393; "MC32F7361.c"	}
00037f   000c     return                   	RETURN	
                                           ; exit point of _adc_single_convert
                                           
                                           ;***
                                           ;  pBlock Stats: dbName = C
                                           ;***
                                           ;entry:  _adc_channel_sel	;Function start
                                           ; 2 exit points
                                           ;has an exit
                                           ;functions called:
                                           ;   _delay_ms
                                           ;   _delay_ms
                                           ;2 compiler assigned registers:
                                           ;   r0x1030
                                           ;   STK00
                                           ;; Starting pCode block
                                           _adc_channel_sel	;Function start
                                           ; 2 exit points
                                           ;	.line	365; "MC32F7361.c"	void adc_channel_sel(u8 adc_channel)
000380   562a     movra   0x2a             	MOVRA	r0x1030
                                           ;	.line	367; "MC32F7361.c"	switch (adc_channel)
000381   582a     movar   0x2a             	MOVAR	r0x1030
000382   e587     jbset   0x187, 0x2       	JBSET	PFLAG,2
000383   a385     goto    0x385            	GOTO	_00449_DS_
000384   a38e     goto    0x38e            	GOTO	_00436_DS_
                                           _00449_DS_
000385   582a     movar   0x2a             	MOVAR	r0x1030
000386   3901     xorai   0x1              	XORAI	0x01
000387   e587     jbset   0x187, 0x2       	JBSET	PFLAG,2
000388   a392     goto    0x392            	GOTO	_00438_DS_
                                           ;	.line	370; "MC32F7361.c"	ADCR0 = 0x7F; // AN7ADC
000389   3c7f     movai   0x7f             	MOVAI	0x7f
00038a   57b0     movra   0x1b0            	MOVRA	_ADCR0
                                           ;	.line	371; "MC32F7361.c"	ADCR1 = 0x82; // adc == FHIRC/324V
00038b   3c82     movai   0x82             	MOVAI	0x82
00038c   57b1     movra   0x1b1            	MOVRA	_ADCR1
                                           ;	.line	372; "MC32F7361.c"	break;
00038d   a392     goto    0x392            	GOTO	_00438_DS_
                                           _00436_DS_
                                           ;	.line	375; "MC32F7361.c"	ADCR0 = 0xAF; // 1/VDDADC
00038e   3caf     movai   0xaf             	MOVAI	0xaf
00038f   57b0     movra   0x1b0            	MOVRA	_ADCR0
                                           ;	.line	376; "MC32F7361.c"	ADCR1 = 0x80; // adc == FHIRC/322V
000390   3c80     movai   0x80             	MOVAI	0x80
000391   57b1     movra   0x1b1            	MOVRA	_ADCR1
                                           _00438_DS_
                                           ;	.line	382; "MC32F7361.c"	delay_ms(1);
000392   3c01     movai   0x1              	MOVAI	0x01
000393   5606     movra   0x6              	MOVRA	STK00
000394   3c00     movai   0                	MOVAI	0x00
000395   8582     call    0x582            	CALL	_delay_ms
                                           ;	.line	383; "MC32F7361.c"	}
000396   000c     return                   	RETURN	
                                           ; exit point of _adc_channel_sel
                                           
                                           ;***
                                           ;  pBlock Stats: dbName = C
                                           ;***
                                           ;entry:  _Sys_Init	;Function start
                                           ; 2 exit points
                                           ;has an exit
                                           ;functions called:
                                           ;   _CLR_RAM
                                           ;   _IO_Init
                                           ;   _adc_config
                                           ;   _TM1650_Init
                                           ;   _pwm_led_config
                                           ;   _timer3_config
                                           ;   _CLR_RAM
                                           ;   _IO_Init
                                           ;   _adc_config
                                           ;   _TM1650_Init
                                           ;   _pwm_led_config
                                           ;   _timer3_config
                                           ;; Starting pCode block
                                           _Sys_Init	;Function start
                                           ; 2 exit points
                                           ;	.line	340; "MC32F7361.c"	GIE = 0;
000397   df88     bclr    0x188, 0x7       	BCLR	_MCRbits,7
                                           ;	.line	341; "MC32F7361.c"	CLR_RAM();
000398   856d     call    0x56d            	CALL	_CLR_RAM
                                           ;	.line	342; "MC32F7361.c"	IO_Init();
000399   8558     call    0x558            	CALL	_IO_Init
                                           ;	.line	344; "MC32F7361.c"	adc_config();
00039a   854e     call    0x54e            	CALL	_adc_config
                                           ;	.line	346; "MC32F7361.c"	TM1650_Init();
00039b   813d     call    0x13d            	CALL	_TM1650_Init
                                           ;	.line	347; "MC32F7361.c"	pwm_led_config();
00039c   853c     call    0x53c            	CALL	_pwm_led_config
                                           ;	.line	348; "MC32F7361.c"	timer3_config();
00039d   853d     call    0x53d            	CALL	_timer3_config
                                           ;	.line	351; "MC32F7361.c"	P03PD = 1; // 
00039e   c793     bset    0x193, 0x3       	BSET	_PDP0bits,3
                                           ;	.line	352; "MC32F7361.c"	P03OE = 1; // 
00039f   c791     bset    0x191, 0x3       	BSET	_OEP0bits,3
                                           ;	.line	355; "MC32F7361.c"	BLE_CTL_PIN_IN();
0003a0   df95     bclr    0x195, 0x7       	BCLR	_OEP1bits,7
                                           ;	.line	357; "MC32F7361.c"	ad_key_event = KEY_EVENT_NONE;
0003a1   3c03     movai   0x3              	MOVAI	0x03
0003a2   5675     movra   0x75             	MOVRA	_ad_key_event
                                           ;	.line	358; "MC32F7361.c"	cur_key_id = AD_KEY_ID_NONE;
0003a3   3c06     movai   0x6              	MOVAI	0x06
0003a4   5676     movra   0x76             	MOVRA	_cur_key_id
                                           ;	.line	360; "MC32F7361.c"	GIE = 1;
0003a5   cf88     bset    0x188, 0x7       	BSET	_MCRbits,7
                                           ;	.line	361; "MC32F7361.c"	}
0003a6   000c     return                   	RETURN	
                                           ; exit point of _Sys_Init
                                           
                                           ;***
                                           ;  pBlock Stats: dbName = C
                                           ;***
                                           ;entry:  _example	;Function start
                                           ; 2 exit points
                                           ;has an exit
                                           ;functions called:
                                           ;   _start_send
                                           ;   _start_send
                                           ;5 compiler assigned registers:
                                           ;   r0x1048
                                           ;   r0x1049
                                           ;   r0x104A
                                           ;   STK01
                                           ;   STK00
                                           ;; Starting pCode block
                                           _example	;Function start
                                           ; 2 exit points
                                           ;;gen.c:6570: size=0, offset=0, AOP_TYPE(res)=8
                                           ;	.line	331; "MC32F7361.c"	uint8_t send_buf[SEND_DATA_LEN] = {0x01, 0x02, 0x03};
0003a7   3c01     movai   0x1              	MOVAI	0x01
0003a8   5642     movra   0x42             	MOVRA	(_example_send_buf_65536_72 + 0)
                                           ;;gen.c:6570: size=0, offset=0, AOP_TYPE(res)=8
0003a9   3c02     movai   0x2              	MOVAI	0x02
0003aa   5643     movra   0x43             	MOVRA	(_example_send_buf_65536_72 + 1)
                                           ;;gen.c:6570: size=0, offset=0, AOP_TYPE(res)=8
0003ab   3c03     movai   0x3              	MOVAI	0x03
0003ac   5644     movra   0x44             	MOVRA	(_example_send_buf_65536_72 + 2)
                                           ;	.line	333; "MC32F7361.c"	start_send(send_buf);
0003ad   3c00     movai   0                	MOVAI	high (_example_send_buf_65536_72 + 0)
0003ae   5629     movra   0x29             	MOVRA	r0x1048
0003af   3c42     movai   0x42             	MOVAI	(_example_send_buf_65536_72 + 0)
0003b0   5628     movra   0x28             	MOVRA	r0x1049
                                           ;;1	CLRR	r0x104A
0003b1   5828     movar   0x28             	MOVAR	r0x1049
0003b2   5605     movra   0x5              	MOVRA	STK01
0003b3   5829     movar   0x29             	MOVAR	r0x1048
0003b4   5606     movra   0x6              	MOVRA	STK00
0003b5   3c00     movai   0                	MOVAI	0x00
0003b6   84fc     call    0x4fc            	CALL	_start_send
                                           ;	.line	336; "MC32F7361.c"	}
0003b7   000c     return                   	RETURN	
                                           ; exit point of _example
                                           
                                           ;***
                                           ;  pBlock Stats: dbName = C
                                           ;***
                                           ;entry:  _timer_100us_isr	;Function start
                                           ; 2 exit points
                                           ;has an exit
                                           ;8 compiler assigned registers:
                                           ;   r0x104B
                                           ;   r0x104C
                                           ;   r0x104D
                                           ;   r0x104E
                                           ;   r0x104F
                                           ;   r0x1050
                                           ;   r0x1051
                                           ;   r0x1052
                                           ;; Starting pCode block
                                           _timer_100us_isr	;Function start
                                           ; 2 exit points
                                           ;	.line	171; "MC32F7361.c"	if (g_state == TX_START || g_state == TX_SENDING_BIT || g_state == TX_SENDING_LOW)
0003b8   587a     movar   0x7a             	MOVAR	_g_state
0003b9   3901     xorai   0x1              	XORAI	0x01
0003ba   e587     jbset   0x187, 0x2       	JBSET	PFLAG,2
0003bb   a3bd     goto    0x3bd            	GOTO	_00393_DS_
0003bc   a3c6     goto    0x3c6            	GOTO	_00240_DS_
                                           _00393_DS_
0003bd   587a     movar   0x7a             	MOVAR	_g_state
0003be   3902     xorai   0x2              	XORAI	0x02
0003bf   e587     jbset   0x187, 0x2       	JBSET	PFLAG,2
0003c0   a3c2     goto    0x3c2            	GOTO	_00394_DS_
0003c1   a3c6     goto    0x3c6            	GOTO	_00240_DS_
                                           _00394_DS_
0003c2   587a     movar   0x7a             	MOVAR	_g_state
0003c3   3903     xorai   0x3              	XORAI	0x03
0003c4   e587     jbset   0x187, 0x2       	JBSET	PFLAG,2
0003c5   a472     goto    0x472            	GOTO	_00241_DS_
                                           ;;unsigned compare: left < lit(0x1=1), size=1
                                           _00240_DS_
                                           ;	.line	173; "MC32F7361.c"	switch (g_state)
0003c6   3c01     movai   0x1              	MOVAI	0x01
0003c7   487a     rsubar  0x7a             	RSUBAR	_g_state
0003c8   e187     jbset   0x187, 0         	JBSET	PFLAG,0
0003c9   a471     goto    0x471            	GOTO	_00239_DS_
                                           ;;genSkipc:3291: created from rifx:013B5EFC
                                           ;;swapping arguments (AOP_TYPEs 1/3)
                                           ;;unsigned compare: left >= lit(0x4=4), size=1
0003ca   3c04     movai   0x4              	MOVAI	0x04
0003cb   487a     rsubar  0x7a             	RSUBAR	_g_state
0003cc   f187     jbclr   0x187, 0         	JBCLR	PFLAG,0
0003cd   a471     goto    0x471            	GOTO	_00239_DS_
                                           ;;genSkipc:3291: created from rifx:013B5EFC
0003ce   6c7a     decar   0x7a             	DECAR	_g_state
0003cf   5620     movra   0x20             	MOVRA	r0x104B
0003d0   5820     movar   0x20             	MOVAR	r0x104B
0003d1   7f86     addra   0x186            	ADDRA	PCL
0003d2   a3d5     goto    0x3d5            	GOTO	_00208_DS_
0003d3   a3de     goto    0x3de            	GOTO	_00211_DS_
0003d4   a418     goto    0x418            	GOTO	_00219_DS_
                                           _00208_DS_
                                           ;	.line	176; "MC32F7361.c"	if (++g_timer_count >= START_SIGNAL_TIME)
0003d5   663d     incr    0x3d             	INCR	_g_timer_count
                                           ;;unsigned compare: left < lit(0x64=100), size=1
0003d6   3c64     movai   0x64             	MOVAI	0x64
0003d7   483d     rsubar  0x3d             	RSUBAR	_g_timer_count
0003d8   e187     jbset   0x187, 0         	JBSET	PFLAG,0
0003d9   a471     goto    0x471            	GOTO	_00239_DS_
                                           ;;genSkipc:3291: created from rifx:013B5EFC
                                           ;	.line	178; "MC32F7361.c"	g_timer_count = 0;
0003da   763d     clrr    0x3d             	CLRR	_g_timer_count
                                           ;	.line	179; "MC32F7361.c"	g_state = TX_SENDING_BIT;
0003db   3c02     movai   0x2              	MOVAI	0x02
0003dc   567a     movra   0x7a             	MOVRA	_g_state
                                           ;	.line	182; "MC32F7361.c"	break;
0003dd   a471     goto    0x471            	GOTO	_00239_DS_
                                           _00211_DS_
                                           ;	.line	185; "MC32F7361.c"	if (g_data[g_byte_count] & BIT(g_bit_count))
0003de   583b     movar   0x3b             	MOVAR	_g_byte_count
0003df   3f3e     addai   0x3e             	ADDAI	(_g_data + 0)
0003e0   5620     movra   0x20             	MOVRA	r0x104B
0003e1   3c00     movai   0                	MOVAI	high (_g_data + 0)
0003e2   f187     jbclr   0x187, 0         	JBCLR	PFLAG,0
0003e3   3f01     addai   0x1              	ADDAI	0x01
0003e4   5621     movra   0x21             	MOVRA	r0x104C
0003e5   5820     movar   0x20             	MOVAR	r0x104B
0003e6   5784     movra   0x184            	MOVRA	FSR0
0003e7   5821     movar   0x21             	MOVAR	r0x104C
0003e8   5785     movra   0x185            	MOVRA	FSR1
0003e9   5982     movar   0x182            	MOVAR	INDF2
0003ea   5622     movra   0x22             	MOVRA	r0x104D
                                           ;;114	MOVAR	_g_bit_count
0003eb   3c00     movai   0                	MOVAI	0x00
0003ec   5624     movra   0x24             	MOVRA	r0x104E
0003ed   3c01     movai   0x1              	MOVAI	0x01
0003ee   5623     movra   0x23             	MOVRA	r0x104F
                                           ;;113	MOVAR	r0x104B
0003ef   583c     movar   0x3c             	MOVAR	_g_bit_count
0003f0   5620     movra   0x20             	MOVRA	r0x104B
0003f1   3a00     isubai  0                	ISUBAI	0x00
0003f2   f587     jbclr   0x187, 0x2       	JBCLR	PFLAG,2
0003f3   a3f9     goto    0x3f9            	GOTO	_00400_DS_
                                           _00399_DS_
0003f4   5223     rlr     0x23             	RLR	r0x104F
0003f5   5224     rlr     0x24             	RLR	r0x104E
0003f6   3f01     addai   0x1              	ADDAI	0x01
0003f7   e187     jbset   0x187, 0         	JBSET	PFLAG,0
0003f8   a3f4     goto    0x3f4            	GOTO	_00399_DS_
                                           _00400_DS_
0003f9   5822     movar   0x22             	MOVAR	r0x104D
0003fa   5620     movra   0x20             	MOVRA	r0x104B
0003fb   7625     clrr    0x25             	CLRR	r0x1050
0003fc   5823     movar   0x23             	MOVAR	r0x104F
0003fd   7820     andar   0x20             	ANDAR	r0x104B
0003fe   5622     movra   0x22             	MOVRA	r0x104D
0003ff   5824     movar   0x24             	MOVAR	r0x104E
000400   7825     andar   0x25             	ANDAR	r0x1050
000401   5626     movra   0x26             	MOVRA	r0x1051
000402   5822     movar   0x22             	MOVAR	r0x104D
000403   5c26     orar    0x26             	ORAR	r0x1051
000404   f587     jbclr   0x187, 0x2       	JBCLR	PFLAG,2
000405   a40f     goto    0x40f            	GOTO	_00217_DS_
                                           ;	.line	188; "MC32F7361.c"	if (++g_timer_count >= BIT1_HIGH_TIME)
000406   663d     incr    0x3d             	INCR	_g_timer_count
                                           ;;unsigned compare: left < lit(0xA=10), size=1
000407   3c0a     movai   0xa              	MOVAI	0x0a
000408   483d     rsubar  0x3d             	RSUBAR	_g_timer_count
000409   e187     jbset   0x187, 0         	JBSET	PFLAG,0
00040a   a471     goto    0x471            	GOTO	_00239_DS_
                                           ;;genSkipc:3291: created from rifx:013B5EFC
                                           ;	.line	190; "MC32F7361.c"	g_timer_count = 0;
00040b   763d     clrr    0x3d             	CLRR	_g_timer_count
                                           ;	.line	191; "MC32F7361.c"	g_state = TX_SENDING_LOW;
00040c   3c03     movai   0x3              	MOVAI	0x03
00040d   567a     movra   0x7a             	MOVRA	_g_state
00040e   a471     goto    0x471            	GOTO	_00239_DS_
                                           _00217_DS_
                                           ;	.line	198; "MC32F7361.c"	if (++g_timer_count >= BIT0_HIGH_TIME)
00040f   663d     incr    0x3d             	INCR	_g_timer_count
                                           ;;unsigned compare: left < lit(0x5=5), size=1
000410   3c05     movai   0x5              	MOVAI	0x05
000411   483d     rsubar  0x3d             	RSUBAR	_g_timer_count
000412   e187     jbset   0x187, 0         	JBSET	PFLAG,0
000413   a471     goto    0x471            	GOTO	_00239_DS_
                                           ;;genSkipc:3291: created from rifx:013B5EFC
                                           ;	.line	200; "MC32F7361.c"	g_timer_count = 0;
000414   763d     clrr    0x3d             	CLRR	_g_timer_count
                                           ;	.line	201; "MC32F7361.c"	g_state = TX_SENDING_LOW;
000415   3c03     movai   0x3              	MOVAI	0x03
000416   567a     movra   0x7a             	MOVRA	_g_state
                                           ;	.line	205; "MC32F7361.c"	break;
000417   a471     goto    0x471            	GOTO	_00239_DS_
                                           _00219_DS_
                                           ;	.line	208; "MC32F7361.c"	if (g_data[g_byte_count] & BIT(g_bit_count))
000418   583b     movar   0x3b             	MOVAR	_g_byte_count
000419   3f3e     addai   0x3e             	ADDAI	(_g_data + 0)
00041a   5620     movra   0x20             	MOVRA	r0x104B
00041b   3c00     movai   0                	MOVAI	high (_g_data + 0)
00041c   f187     jbclr   0x187, 0         	JBCLR	PFLAG,0
00041d   3f01     addai   0x1              	ADDAI	0x01
00041e   5622     movra   0x22             	MOVRA	r0x104D
00041f   5820     movar   0x20             	MOVAR	r0x104B
000420   5784     movra   0x184            	MOVRA	FSR0
000421   5822     movar   0x22             	MOVAR	r0x104D
000422   5785     movra   0x185            	MOVRA	FSR1
000423   5982     movar   0x182            	MOVAR	INDF2
000424   5623     movra   0x23             	MOVRA	r0x104F
                                           ;;107	MOVAR	_g_bit_count
000425   3c00     movai   0                	MOVAI	0x00
000426   5625     movra   0x25             	MOVRA	r0x1050
000427   3c01     movai   0x1              	MOVAI	0x01
000428   5624     movra   0x24             	MOVRA	r0x104E
                                           ;;106	MOVAR	r0x104B
000429   583c     movar   0x3c             	MOVAR	_g_bit_count
00042a   5620     movra   0x20             	MOVRA	r0x104B
00042b   3a00     isubai  0                	ISUBAI	0x00
00042c   f587     jbclr   0x187, 0x2       	JBCLR	PFLAG,2
00042d   a433     goto    0x433            	GOTO	_00404_DS_
                                           _00403_DS_
00042e   5224     rlr     0x24             	RLR	r0x104E
00042f   5225     rlr     0x25             	RLR	r0x1050
000430   3f01     addai   0x1              	ADDAI	0x01
000431   e187     jbset   0x187, 0         	JBSET	PFLAG,0
000432   a42e     goto    0x42e            	GOTO	_00403_DS_
                                           _00404_DS_
000433   5823     movar   0x23             	MOVAR	r0x104F
000434   5620     movra   0x20             	MOVRA	r0x104B
000435   7626     clrr    0x26             	CLRR	r0x1051
000436   5824     movar   0x24             	MOVAR	r0x104E
000437   7820     andar   0x20             	ANDAR	r0x104B
000438   5623     movra   0x23             	MOVRA	r0x104F
000439   5825     movar   0x25             	MOVAR	r0x1050
00043a   7826     andar   0x26             	ANDAR	r0x1051
00043b   5627     movra   0x27             	MOVRA	r0x1052
00043c   5823     movar   0x23             	MOVAR	r0x104F
00043d   5c27     orar    0x27             	ORAR	r0x1052
00043e   f587     jbclr   0x187, 0x2       	JBCLR	PFLAG,2
00043f   a459     goto    0x459            	GOTO	_00237_DS_
                                           ;	.line	211; "MC32F7361.c"	if (++g_timer_count >= BIT1_LOW_TIME)
000440   663d     incr    0x3d             	INCR	_g_timer_count
                                           ;;unsigned compare: left < lit(0x5=5), size=1
000441   3c05     movai   0x5              	MOVAI	0x05
000442   483d     rsubar  0x3d             	RSUBAR	_g_timer_count
000443   e187     jbset   0x187, 0         	JBSET	PFLAG,0
000444   a471     goto    0x471            	GOTO	_00239_DS_
                                           ;;genSkipc:3291: created from rifx:013B5EFC
                                           ;	.line	213; "MC32F7361.c"	g_timer_count = 0;
000445   763d     clrr    0x3d             	CLRR	_g_timer_count
                                           ;	.line	214; "MC32F7361.c"	if (++g_bit_count >= 8)
000446   663c     incr    0x3c             	INCR	_g_bit_count
                                           ;;unsigned compare: left < lit(0x8=8), size=1
000447   3c08     movai   0x8              	MOVAI	0x08
000448   483c     rsubar  0x3c             	RSUBAR	_g_bit_count
000449   e187     jbset   0x187, 0         	JBSET	PFLAG,0
00044a   a452     goto    0x452            	GOTO	_00223_DS_
                                           ;;genSkipc:3291: created from rifx:013B5EFC
                                           ;	.line	216; "MC32F7361.c"	g_bit_count = 0;
00044b   763c     clrr    0x3c             	CLRR	_g_bit_count
                                           ;	.line	217; "MC32F7361.c"	if (++g_byte_count >= SEND_DATA_LEN)
00044c   663b     incr    0x3b             	INCR	_g_byte_count
                                           ;;unsigned compare: left < lit(0x3=3), size=1
00044d   3c03     movai   0x3              	MOVAI	0x03
00044e   483b     rsubar  0x3b             	RSUBAR	_g_byte_count
00044f   e187     jbset   0x187, 0         	JBSET	PFLAG,0
000450   a452     goto    0x452            	GOTO	_00223_DS_
                                           ;;genSkipc:3291: created from rifx:013B5EFC
                                           ;	.line	219; "MC32F7361.c"	g_state = IDLE;
000451   767a     clrr    0x7a             	CLRR	_g_state
                                           _00223_DS_
                                           ;	.line	222; "MC32F7361.c"	if (g_state != IDLE)
000452   3c00     movai   0                	MOVAI	0x00
000453   5c7a     orar    0x7a             	ORAR	_g_state
000454   f587     jbclr   0x187, 0x2       	JBCLR	PFLAG,2
000455   a471     goto    0x471            	GOTO	_00239_DS_
                                           ;	.line	224; "MC32F7361.c"	g_state = TX_SENDING_BIT;
000456   3c02     movai   0x2              	MOVAI	0x02
000457   567a     movra   0x7a             	MOVRA	_g_state
000458   a471     goto    0x471            	GOTO	_00239_DS_
                                           _00237_DS_
                                           ;	.line	232; "MC32F7361.c"	if (++g_timer_count >= BIT0_LOW_TIME)
000459   663d     incr    0x3d             	INCR	_g_timer_count
                                           ;;unsigned compare: left < lit(0xA=10), size=1
00045a   3c0a     movai   0xa              	MOVAI	0x0a
00045b   483d     rsubar  0x3d             	RSUBAR	_g_timer_count
00045c   e187     jbset   0x187, 0         	JBSET	PFLAG,0
00045d   a471     goto    0x471            	GOTO	_00239_DS_
                                           ;;genSkipc:3291: created from rifx:013B5EFC
                                           ;	.line	234; "MC32F7361.c"	g_timer_count = 0;
00045e   763d     clrr    0x3d             	CLRR	_g_timer_count
                                           ;	.line	235; "MC32F7361.c"	if (++g_bit_count >= 8)
00045f   663c     incr    0x3c             	INCR	_g_bit_count
                                           ;;unsigned compare: left < lit(0x8=8), size=1
000460   3c08     movai   0x8              	MOVAI	0x08
000461   483c     rsubar  0x3c             	RSUBAR	_g_bit_count
000462   e187     jbset   0x187, 0         	JBSET	PFLAG,0
000463   a46b     goto    0x46b            	GOTO	_00231_DS_
                                           ;;genSkipc:3291: created from rifx:013B5EFC
                                           ;	.line	237; "MC32F7361.c"	g_bit_count = 0;
000464   763c     clrr    0x3c             	CLRR	_g_bit_count
                                           ;	.line	238; "MC32F7361.c"	if (++g_byte_count >= SEND_DATA_LEN)
000465   663b     incr    0x3b             	INCR	_g_byte_count
                                           ;;unsigned compare: left < lit(0x3=3), size=1
000466   3c03     movai   0x3              	MOVAI	0x03
000467   483b     rsubar  0x3b             	RSUBAR	_g_byte_count
000468   e187     jbset   0x187, 0         	JBSET	PFLAG,0
000469   a46b     goto    0x46b            	GOTO	_00231_DS_
                                           ;;genSkipc:3291: created from rifx:013B5EFC
                                           ;	.line	240; "MC32F7361.c"	g_state = IDLE;
00046a   767a     clrr    0x7a             	CLRR	_g_state
                                           _00231_DS_
                                           ;	.line	243; "MC32F7361.c"	if (g_state != IDLE)
00046b   3c00     movai   0                	MOVAI	0x00
00046c   5c7a     orar    0x7a             	ORAR	_g_state
00046d   f587     jbclr   0x187, 0x2       	JBCLR	PFLAG,2
00046e   a471     goto    0x471            	GOTO	_00239_DS_
                                           ;	.line	245; "MC32F7361.c"	g_state = TX_SENDING_BIT;
00046f   3c02     movai   0x2              	MOVAI	0x02
000470   567a     movra   0x7a             	MOVRA	_g_state
                                           _00239_DS_
                                           ;	.line	252; "MC32F7361.c"	return;
000471   a4fb     goto    0x4fb            	GOTO	_00271_DS_
                                           _00241_DS_
                                           ;	.line	256; "MC32F7361.c"	pin_state = get_pin_state();
000472   7674     clrr    0x74             	CLRR	_pin_state
                                           ;	.line	258; "MC32F7361.c"	switch (g_state)
000473   587a     movar   0x7a             	MOVAR	_g_state
000474   e587     jbset   0x187, 0x2       	JBSET	PFLAG,2
000475   a477     goto    0x477            	GOTO	_00411_DS_
000476   a487     goto    0x487            	GOTO	_00244_DS_
                                           _00411_DS_
000477   587a     movar   0x7a             	MOVAR	_g_state
000478   3904     xorai   0x4              	XORAI	0x04
000479   e587     jbset   0x187, 0x2       	JBSET	PFLAG,2
00047a   a47c     goto    0x47c            	GOTO	_00412_DS_
00047b   a4a9     goto    0x4a9            	GOTO	_00248_DS_
                                           _00412_DS_
00047c   587a     movar   0x7a             	MOVAR	_g_state
00047d   3905     xorai   0x5              	XORAI	0x05
00047e   e587     jbset   0x187, 0x2       	JBSET	PFLAG,2
00047f   a481     goto    0x481            	GOTO	_00413_DS_
000480   a4ab     goto    0x4ab            	GOTO	_00255_DS_
                                           _00413_DS_
000481   587a     movar   0x7a             	MOVAR	_g_state
000482   3906     xorai   0x6              	XORAI	0x06
000483   e587     jbset   0x187, 0x2       	JBSET	PFLAG,2
000484   a486     goto    0x486            	GOTO	_00414_DS_
000485   a4f8     goto    0x4f8            	GOTO	_00267_DS_
                                           _00414_DS_
000486   a4f9     goto    0x4f9            	GOTO	_00268_DS_
                                           _00244_DS_
                                           ;	.line	263; "MC32F7361.c"	g_timer_count = 0;
000487   763d     clrr    0x3d             	CLRR	_g_timer_count
                                           ;	.line	264; "MC32F7361.c"	g_state = RX_START;
000488   3c04     movai   0x4              	MOVAI	0x04
000489   567a     movra   0x7a             	MOVRA	_g_state
                                           ;	.line	265; "MC32F7361.c"	g_byte_count = 0;
00048a   763b     clrr    0x3b             	CLRR	_g_byte_count
                                           ;	.line	266; "MC32F7361.c"	g_bit_count = 0;
00048b   763c     clrr    0x3c             	CLRR	_g_bit_count
                                           ;	.line	268; "MC32F7361.c"	for (i = 0; i < 9; i++)
00048c   7660     clrr    0x60             	CLRR	_i
00048d   7661     clrr    0x61             	CLRR	(_i + 1)
                                           _00269_DS_
                                           ;	.line	270; "MC32F7361.c"	g_data[i] = 0;
00048e   5860     movar   0x60             	MOVAR	_i
00048f   3f3e     addai   0x3e             	ADDAI	(_g_data + 0)
000490   5620     movra   0x20             	MOVRA	r0x104B
000491   3c00     movai   0                	MOVAI	high (_g_data + 0)
000492   5623     movra   0x23             	MOVRA	r0x104F
000493   5861     movar   0x61             	MOVAR	(_i + 1)
000494   f187     jbclr   0x187, 0         	JBCLR	PFLAG,0
000495   6061     jzar    0x61             	JZAR	(_i + 1)
000496   7e23     addra   0x23             	ADDRA	r0x104F
000497   5820     movar   0x20             	MOVAR	r0x104B
000498   5784     movra   0x184            	MOVRA	FSR0
000499   5823     movar   0x23             	MOVAR	r0x104F
00049a   5785     movra   0x185            	MOVRA	FSR1
00049b   3c00     movai   0                	MOVAI	0x00
00049c   5782     movra   0x182            	MOVRA	INDF2
                                           ;	.line	268; "MC32F7361.c"	for (i = 0; i < 9; i++)
00049d   6660     incr    0x60             	INCR	_i
00049e   f587     jbclr   0x187, 0x2       	JBCLR	PFLAG,2
00049f   6661     incr    0x61             	INCR	(_i + 1)
                                           ;;unsigned compare: left < lit(0x9=9), size=2
0004a0   3c00     movai   0                	MOVAI	0x00
0004a1   4861     rsubar  0x61             	RSUBAR	(_i + 1)
0004a2   e587     jbset   0x187, 0x2       	JBSET	PFLAG,2
0004a3   a4a6     goto    0x4a6            	GOTO	_00415_DS_
0004a4   3c09     movai   0x9              	MOVAI	0x09
0004a5   4860     rsubar  0x60             	RSUBAR	_i
                                           _00415_DS_
0004a6   e187     jbset   0x187, 0         	JBSET	PFLAG,0
0004a7   a48e     goto    0x48e            	GOTO	_00269_DS_
                                           ;;genSkipc:3291: created from rifx:013B5EFC
                                           ;	.line	273; "MC32F7361.c"	break;
0004a8   a4f9     goto    0x4f9            	GOTO	_00268_DS_
                                           _00248_DS_
                                           ;	.line	276; "MC32F7361.c"	g_timer_count++;
0004a9   663d     incr    0x3d             	INCR	_g_timer_count
                                           ;	.line	277; "MC32F7361.c"	if (pin_state == 1)
0004aa   a4f9     goto    0x4f9            	GOTO	_00268_DS_
                                           _00255_DS_
                                           ;	.line	293; "MC32F7361.c"	g_timer_count++;
0004ab   663d     incr    0x3d             	INCR	_g_timer_count
                                           ;	.line	294; "MC32F7361.c"	if (pin_state != g_last_pin_state)
0004ac   5841     movar   0x41             	MOVAR	_g_last_pin_state
0004ad   e587     jbset   0x187, 0x2       	JBSET	PFLAG,2
0004ae   a4b0     goto    0x4b0            	GOTO	_00416_DS_
0004af   a4f9     goto    0x4f9            	GOTO	_00268_DS_
                                           _00416_DS_
                                           ;	.line	296; "MC32F7361.c"	if (g_last_pin_state == 1)
0004b0   5841     movar   0x41             	MOVAR	_g_last_pin_state
0004b1   3901     xorai   0x1              	XORAI	0x01
0004b2   e587     jbset   0x187, 0x2       	JBSET	PFLAG,2
0004b3   a4f6     goto    0x4f6            	GOTO	_00264_DS_
                                           ;;unsigned compare: left < lit(0x8=8), size=1
                                           ;	.line	300; "MC32F7361.c"	if (g_timer_count >= RX_BIT1_MIN_TIME && g_timer_count <= RX_BIT1_MAX_TIME)
0004b4   3c08     movai   0x8              	MOVAI	0x08
0004b5   483d     rsubar  0x3d             	RSUBAR	_g_timer_count
0004b6   e187     jbset   0x187, 0         	JBSET	PFLAG,0
0004b7   a4e9     goto    0x4e9            	GOTO	_00257_DS_
                                           ;;genSkipc:3291: created from rifx:013B5EFC
                                           ;;swapping arguments (AOP_TYPEs 1/3)
                                           ;;unsigned compare: left >= lit(0xD=13), size=1
0004b8   3c0d     movai   0xd              	MOVAI	0x0d
0004b9   483d     rsubar  0x3d             	RSUBAR	_g_timer_count
0004ba   f187     jbclr   0x187, 0         	JBCLR	PFLAG,0
0004bb   a4e9     goto    0x4e9            	GOTO	_00257_DS_
                                           ;;genSkipc:3291: created from rifx:013B5EFC
                                           ;	.line	302; "MC32F7361.c"	g_data[g_byte_count] |= BIT(g_bit_count);
0004bc   583b     movar   0x3b             	MOVAR	_g_byte_count
0004bd   3f3e     addai   0x3e             	ADDAI	(_g_data + 0)
0004be   5620     movra   0x20             	MOVRA	r0x104B
0004bf   3c00     movai   0                	MOVAI	high (_g_data + 0)
0004c0   f187     jbclr   0x187, 0         	JBCLR	PFLAG,0
0004c1   3f01     addai   0x1              	ADDAI	0x01
0004c2   5623     movra   0x23             	MOVRA	r0x104F
0004c3   5820     movar   0x20             	MOVAR	r0x104B
0004c4   5784     movra   0x184            	MOVRA	FSR0
0004c5   5823     movar   0x23             	MOVAR	r0x104F
0004c6   5785     movra   0x185            	MOVRA	FSR1
0004c7   5982     movar   0x182            	MOVAR	INDF2
0004c8   5624     movra   0x24             	MOVRA	r0x104E
                                           ;;109	MOVAR	_g_bit_count
0004c9   3c01     movai   0x1              	MOVAI	0x01
0004ca   5626     movra   0x26             	MOVRA	r0x1051
                                           ;;108	MOVAR	r0x1050
0004cb   583c     movar   0x3c             	MOVAR	_g_bit_count
0004cc   5625     movra   0x25             	MOVRA	r0x1050
0004cd   fe25     jbclr   0x25, 0x7        	JBCLR	r0x1050,7
0004ce   a4d7     goto    0x4d7            	GOTO	_00422_DS_
0004cf   3a00     isubai  0                	ISUBAI	0x00
0004d0   f587     jbclr   0x187, 0x2       	JBCLR	PFLAG,2
0004d1   a4de     goto    0x4de            	GOTO	_00420_DS_
                                           _00419_DS_
0004d2   5226     rlr     0x26             	RLR	r0x1051
0004d3   3f01     addai   0x1              	ADDAI	0x01
0004d4   e187     jbset   0x187, 0         	JBSET	PFLAG,0
0004d5   a4d2     goto    0x4d2            	GOTO	_00419_DS_
0004d6   a4de     goto    0x4de            	GOTO	_00420_DS_
                                           _00422_DS_
0004d7   d187     bclr    0x187, 0         	BCLR	PFLAG,0
0004d8   fe26     jbclr   0x26, 0x7        	JBCLR	r0x1051,7
0004d9   c187     bset    0x187, 0         	BSET	PFLAG,0
0004da   4e26     rrr     0x26             	RRR	r0x1051
0004db   3f01     addai   0x1              	ADDAI	0x01
0004dc   e187     jbset   0x187, 0         	JBSET	PFLAG,0
0004dd   a4d7     goto    0x4d7            	GOTO	_00422_DS_
                                           _00420_DS_
0004de   5824     movar   0x24             	MOVAR	r0x104E
0004df   5625     movra   0x25             	MOVRA	r0x1050
0004e0   5826     movar   0x26             	MOVAR	r0x1051
0004e1   5c25     orar    0x25             	ORAR	r0x1050
0004e2   5624     movra   0x24             	MOVRA	r0x104E
0004e3   5820     movar   0x20             	MOVAR	r0x104B
0004e4   5784     movra   0x184            	MOVRA	FSR0
0004e5   5823     movar   0x23             	MOVAR	r0x104F
0004e6   5785     movra   0x185            	MOVRA	FSR1
0004e7   5824     movar   0x24             	MOVAR	r0x104E
0004e8   5782     movra   0x182            	MOVRA	INDF2
                                           _00257_DS_
                                           ;	.line	305; "MC32F7361.c"	g_bit_count++;
0004e9   663c     incr    0x3c             	INCR	_g_bit_count
                                           ;;unsigned compare: left < lit(0x8=8), size=1
                                           ;	.line	306; "MC32F7361.c"	if (g_bit_count >= 8)
0004ea   3c08     movai   0x8              	MOVAI	0x08
0004eb   483c     rsubar  0x3c             	RSUBAR	_g_bit_count
0004ec   e187     jbset   0x187, 0         	JBSET	PFLAG,0
0004ed   a4f6     goto    0x4f6            	GOTO	_00264_DS_
                                           ;;genSkipc:3291: created from rifx:013B5EFC
                                           ;	.line	308; "MC32F7361.c"	g_bit_count = 0;
0004ee   763c     clrr    0x3c             	CLRR	_g_bit_count
                                           ;	.line	309; "MC32F7361.c"	g_byte_count++;
0004ef   663b     incr    0x3b             	INCR	_g_byte_count
                                           ;;unsigned compare: left < lit(0x3=3), size=1
                                           ;	.line	310; "MC32F7361.c"	if (g_byte_count >= RX_DATA_LEN)
0004f0   3c03     movai   0x3              	MOVAI	0x03
0004f1   483b     rsubar  0x3b             	RSUBAR	_g_byte_count
0004f2   e187     jbset   0x187, 0         	JBSET	PFLAG,0
0004f3   a4f6     goto    0x4f6            	GOTO	_00264_DS_
                                           ;;genSkipc:3291: created from rifx:013B5EFC
                                           ;	.line	312; "MC32F7361.c"	g_state = RX_END; // 
0004f4   3c06     movai   0x6              	MOVAI	0x06
0004f5   567a     movra   0x7a             	MOVRA	_g_state
                                           _00264_DS_
                                           ;	.line	316; "MC32F7361.c"	g_timer_count = 0;
0004f6   763d     clrr    0x3d             	CLRR	_g_timer_count
                                           ;	.line	318; "MC32F7361.c"	break;
0004f7   a4f9     goto    0x4f9            	GOTO	_00268_DS_
                                           _00267_DS_
                                           ;	.line	322; "MC32F7361.c"	g_state = IDLE;
0004f8   767a     clrr    0x7a             	CLRR	_g_state
                                           _00268_DS_
                                           ;	.line	325; "MC32F7361.c"	g_last_pin_state = pin_state;
0004f9   5874     movar   0x74             	MOVAR	_pin_state
0004fa   5641     movra   0x41             	MOVRA	_g_last_pin_state
                                           _00271_DS_
                                           ;	.line	326; "MC32F7361.c"	}
0004fb   000c     return                   	RETURN	
                                           ; exit point of _timer_100us_isr
                                           
                                           ;***
                                           ;  pBlock Stats: dbName = C
                                           ;***
                                           ;entry:  _start_send	;Function start
                                           ; 2 exit points
                                           ;has an exit
                                           ;functions called:
                                           ;   __gptrget1
                                           ;   __gptrget1
                                           ;11 compiler assigned registers:
                                           ;   r0x103F
                                           ;   STK00
                                           ;   r0x1040
                                           ;   STK01
                                           ;   r0x1041
                                           ;   r0x1042
                                           ;   r0x1043
                                           ;   r0x1044
                                           ;   r0x1045
                                           ;   r0x1046
                                           ;   r0x1047
                                           ;; Starting pCode block
                                           _start_send	;Function start
                                           ; 2 exit points
                                           ;	.line	149; "MC32F7361.c"	void start_send(uint8_t *data)
0004fc   5619     movra   0x19             	MOVRA	r0x103F
0004fd   5806     movar   0x6              	MOVAR	STK00
0004fe   5618     movra   0x18             	MOVRA	r0x1040
0004ff   5805     movar   0x5              	MOVAR	STK01
000500   5617     movra   0x17             	MOVRA	r0x1041
                                           ;	.line	151; "MC32F7361.c"	if (g_state != IDLE)
000501   3c00     movai   0                	MOVAI	0x00
000502   5c7a     orar    0x7a             	ORAR	_g_state
000503   f587     jbclr   0x187, 0x2       	JBCLR	PFLAG,2
000504   a506     goto    0x506            	GOTO	_00185_DS_
                                           ;	.line	152; "MC32F7361.c"	return; // 
000505   a53b     goto    0x53b            	GOTO	_00189_DS_
                                           _00185_DS_
                                           ;	.line	155; "MC32F7361.c"	for (i = 0; i < SEND_DATA_LEN; i++)
000506   7660     clrr    0x60             	CLRR	_i
000507   7661     clrr    0x61             	CLRR	(_i + 1)
                                           _00187_DS_
                                           ;	.line	157; "MC32F7361.c"	g_data[i] = data[i];
000508   5860     movar   0x60             	MOVAR	_i
000509   3f3e     addai   0x3e             	ADDAI	(_g_data + 0)
00050a   561a     movra   0x1a             	MOVRA	r0x1042
00050b   3c00     movai   0                	MOVAI	high (_g_data + 0)
00050c   561b     movra   0x1b             	MOVRA	r0x1043
00050d   5861     movar   0x61             	MOVAR	(_i + 1)
00050e   f187     jbclr   0x187, 0         	JBCLR	PFLAG,0
00050f   6061     jzar    0x61             	JZAR	(_i + 1)
000510   7e1b     addra   0x1b             	ADDRA	r0x1043
000511   5860     movar   0x60             	MOVAR	_i
000512   7c17     addar   0x17             	ADDAR	r0x1041
000513   561c     movra   0x1c             	MOVRA	r0x1044
000514   5818     movar   0x18             	MOVAR	r0x1040
000515   561d     movra   0x1d             	MOVRA	r0x1045
000516   5861     movar   0x61             	MOVAR	(_i + 1)
000517   f187     jbclr   0x187, 0         	JBCLR	PFLAG,0
000518   6061     jzar    0x61             	JZAR	(_i + 1)
000519   7e1d     addra   0x1d             	ADDRA	r0x1045
00051a   5819     movar   0x19             	MOVAR	r0x103F
00051b   f187     jbclr   0x187, 0         	JBCLR	PFLAG,0
00051c   3f01     addai   0x1              	ADDAI	0x01
00051d   561e     movra   0x1e             	MOVRA	r0x1046
00051e   581c     movar   0x1c             	MOVAR	r0x1044
00051f   5605     movra   0x5              	MOVRA	STK01
000520   581d     movar   0x1d             	MOVAR	r0x1045
000521   5606     movra   0x6              	MOVRA	STK00
000522   581e     movar   0x1e             	MOVAR	r0x1046
000523   868e     call    0x68e            	CALL	__gptrget1
000524   561f     movra   0x1f             	MOVRA	r0x1047
000525   581a     movar   0x1a             	MOVAR	r0x1042
000526   5784     movra   0x184            	MOVRA	FSR0
000527   581b     movar   0x1b             	MOVAR	r0x1043
000528   5785     movra   0x185            	MOVRA	FSR1
000529   581f     movar   0x1f             	MOVAR	r0x1047
00052a   5782     movra   0x182            	MOVRA	INDF2
                                           ;	.line	155; "MC32F7361.c"	for (i = 0; i < SEND_DATA_LEN; i++)
00052b   6660     incr    0x60             	INCR	_i
00052c   f587     jbclr   0x187, 0x2       	JBCLR	PFLAG,2
00052d   6661     incr    0x61             	INCR	(_i + 1)
                                           ;;unsigned compare: left < lit(0x3=3), size=2
00052e   3c00     movai   0                	MOVAI	0x00
00052f   4861     rsubar  0x61             	RSUBAR	(_i + 1)
000530   e587     jbset   0x187, 0x2       	JBSET	PFLAG,2
000531   a534     goto    0x534            	GOTO	_00203_DS_
000532   3c03     movai   0x3              	MOVAI	0x03
000533   4860     rsubar  0x60             	RSUBAR	_i
                                           _00203_DS_
000534   e187     jbset   0x187, 0         	JBSET	PFLAG,0
000535   a508     goto    0x508            	GOTO	_00187_DS_
                                           ;;genSkipc:3291: created from rifx:013B5EFC
                                           ;	.line	159; "MC32F7361.c"	g_byte_count = 0;
000536   763b     clrr    0x3b             	CLRR	_g_byte_count
                                           ;	.line	160; "MC32F7361.c"	g_bit_count = 0;
000537   763c     clrr    0x3c             	CLRR	_g_bit_count
                                           ;	.line	161; "MC32F7361.c"	g_timer_count = 0;
000538   763d     clrr    0x3d             	CLRR	_g_timer_count
                                           ;	.line	162; "MC32F7361.c"	g_state = TX_START;
000539   3c01     movai   0x1              	MOVAI	0x01
00053a   567a     movra   0x7a             	MOVRA	_g_state
                                           _00189_DS_
                                           ;	.line	165; "MC32F7361.c"	}
00053b   000c     return                   	RETURN	
                                           ; exit point of _start_send
                                           
                                           ;***
                                           ;  pBlock Stats: dbName = C
                                           ;***
                                           ;entry:  _pwm_led_config	;Function start
                                           ; 2 exit points
                                           ;has an exit
                                           ;; Starting pCode block
                                           _pwm_led_config	;Function start
                                           ; 2 exit points
                                           ;	.line	146; "MC32F7361.c"	}
00053c   000c     return                   	RETURN	
                                           ; exit point of _pwm_led_config
                                           
                                           ;***
                                           ;  pBlock Stats: dbName = C
                                           ;***
                                           ;entry:  _timer3_config	;Function start
                                           ; 2 exit points
                                           ;has an exit
                                           ;; Starting pCode block
                                           _timer3_config	;Function start
                                           ; 2 exit points
                                           ;	.line	120; "MC32F7361.c"	T3CR = DEF_SET_BIT0 | DEF_SET_BIT2; // ,CPU,32
00053d   3c05     movai   0x5              	MOVAI	0x05
00053e   57a4     movra   0x1a4            	MOVRA	_T3CR
                                           ;	.line	121; "MC32F7361.c"	T3CNT = 250 - 1;                    // 1ms
00053f   3cf9     movai   0xf9             	MOVAI	0xf9
000540   57a5     movra   0x1a5            	MOVRA	_T3CNT
                                           ;	.line	122; "MC32F7361.c"	T3LOAD = 250 - 1;
000541   3cf9     movai   0xf9             	MOVAI	0xf9
000542   57a6     movra   0x1a6            	MOVRA	_T3LOAD
                                           ;	.line	123; "MC32F7361.c"	T3EN = 1;
000543   cfa4     bset    0x1a4, 0x7       	BSET	_T3CRbits,7
                                           ;	.line	124; "MC32F7361.c"	T3IE = 1;
000544   cf8a     bset    0x18a, 0x7       	BSET	_INTEbits,7
                                           ;	.line	125; "MC32F7361.c"	}
000545   000c     return                   	RETURN	
                                           ; exit point of _timer3_config
                                           
                                           ;***
                                           ;  pBlock Stats: dbName = C
                                           ;***
                                           ;entry:  _timer1_config	;Function start
                                           ; 2 exit points
                                           ;has an exit
                                           ;; Starting pCode block
                                           _timer1_config	;Function start
                                           ; 2 exit points
                                           ;	.line	111; "MC32F7361.c"	T1CR = 0x15; // FLOSC3232Khz(32768) / 32  1Khz0.9765625ms
000546   3c15     movai   0x15             	MOVAI	0x15
000547   579c     movra   0x19c            	MOVRA	_T1CR
                                           ;	.line	113; "MC32F7361.c"	T1LOAD = 10 - 1; //
000548   3c09     movai   0x9              	MOVAI	0x09
000549   579e     movra   0x19e            	MOVRA	_T1LOAD
                                           ;	.line	114; "MC32F7361.c"	T1EN = 1;
00054a   cf9c     bset    0x19c, 0x7       	BSET	_T1CRbits,7
                                           ;	.line	115; "MC32F7361.c"	T1IE = 1;
00054b   c38a     bset    0x18a, 0x1       	BSET	_INTEbits,1
                                           ;	.line	116; "MC32F7361.c"	}
00054c   000c     return                   	RETURN	
                                           ; exit point of _timer1_config
                                           
                                           ;***
                                           ;  pBlock Stats: dbName = C
                                           ;***
                                           ;entry:  _timer0_config	;Function start
                                           ; 2 exit points
                                           ;has an exit
                                           ;; Starting pCode block
                                           _timer0_config	;Function start
                                           ; 2 exit points
                                           ;	.line	106; "MC32F7361.c"	}
00054d   000c     return                   	RETURN	
                                           ; exit point of _timer0_config
                                           
                                           ;***
                                           ;  pBlock Stats: dbName = C
                                           ;***
                                           ;entry:  _adc_config	;Function start
                                           ; 2 exit points
                                           ;has an exit
                                           ;; Starting pCode block
                                           _adc_config	;Function start
                                           ; 2 exit points
                                           ;	.line	90; "MC32F7361.c"	P12OE = 0;    // 
00054e   d595     bclr    0x195, 0x2       	BCLR	_OEP1bits,2
                                           ;	.line	91; "MC32F7361.c"	P12DC = 1;    // 
00054f   c5b7     bset    0x1b7, 0x2       	BSET	_P1ADCRbits,2
                                           ;	.line	92; "MC32F7361.c"	ADCR0 = 0xFB; // ADC12H8L4
000550   3cfb     movai   0xfb             	MOVAI	0xfb
000551   57b0     movra   0x1b0            	MOVRA	_ADCR0
                                           ;	.line	93; "MC32F7361.c"	ADCR1 = 0x80; // adc322V
000552   3c80     movai   0x80             	MOVAI	0x80
000553   57b1     movra   0x1b1            	MOVRA	_ADCR1
                                           ;	.line	94; "MC32F7361.c"	ADCR2 = 0xFF; // 15ADCLK
000554   3cff     movai   0xff             	MOVAI	0xff
000555   57b2     movra   0x1b2            	MOVRA	_ADCR2
                                           ;	.line	96; "MC32F7361.c"	ADEN = 1;
000556   c1b0     bset    0x1b0, 0         	BSET	_ADCR0bits,0
                                           ;	.line	97; "MC32F7361.c"	}
000557   000c     return                   	RETURN	
                                           ; exit point of _adc_config
                                           
                                           ;***
                                           ;  pBlock Stats: dbName = C
                                           ;***
                                           ;entry:  _IO_Init	;Function start
                                           ; 2 exit points
                                           ;has an exit
                                           ;; Starting pCode block
                                           _IO_Init	;Function start
                                           ; 2 exit points
                                           ;	.line	66; "MC32F7361.c"	IOP0 = 0x00;   // io
000558   7790     clrr    0x190            	CLRR	_IOP0
                                           ;	.line	67; "MC32F7361.c"	OEP0 = 0x3F;   // io 1:out  0:in
000559   3c3f     movai   0x3f             	MOVAI	0x3f
00055a   5791     movra   0x191            	MOVRA	_OEP0
                                           ;	.line	68; "MC32F7361.c"	PUP0 = 0x00;   // io   1:enable  0:disable
00055b   7792     clrr    0x192            	CLRR	_PUP0
                                           ;	.line	69; "MC32F7361.c"	PDP0 = 0x00;   // io   1:enable  0:disable
00055c   7793     clrr    0x193            	CLRR	_PDP0
                                           ;	.line	70; "MC32F7361.c"	P0ADCR = 0x00; // io  1:  0:io
00055d   77b6     clrr    0x1b6            	CLRR	_P0ADCR
                                           ;	.line	72; "MC32F7361.c"	IOP1 = 0x00;   // io
00055e   7794     clrr    0x194            	CLRR	_IOP1
                                           ;	.line	73; "MC32F7361.c"	OEP1 = 0xFF;   // io 1:out  0:in
00055f   3cff     movai   0xff             	MOVAI	0xff
000560   5795     movra   0x195            	MOVRA	_OEP1
                                           ;	.line	74; "MC32F7361.c"	PUP1 = 0x00;   // io   1:enable  0:disable
000561   7796     clrr    0x196            	CLRR	_PUP1
                                           ;	.line	75; "MC32F7361.c"	PDP1 = 0x00;   // io   1:enable  0:disable
000562   7797     clrr    0x197            	CLRR	_PDP1
                                           ;	.line	76; "MC32F7361.c"	P1ADCR = 0x00; // io  1:  0:io
000563   77b7     clrr    0x1b7            	CLRR	_P1ADCR
                                           ;	.line	78; "MC32F7361.c"	IOP2 = 0x00; // io
000564   77b8     clrr    0x1b8            	CLRR	_IOP2
                                           ;	.line	79; "MC32F7361.c"	OEP2 = 0x0F; // io 1:out  0:in
000565   3c0f     movai   0xf              	MOVAI	0x0f
000566   57b9     movra   0x1b9            	MOVRA	_OEP2
                                           ;	.line	80; "MC32F7361.c"	PUP2 = 0x00; // io   1:enable  0:disable
000567   77ba     clrr    0x1ba            	CLRR	_PUP2
                                           ;	.line	81; "MC32F7361.c"	PDP2 = 0x00; // io   1:enable  0:disablea
000568   77bb     clrr    0x1bb            	CLRR	_PDP2
                                           ;	.line	83; "MC32F7361.c"	PMOD = 0x00;  // P00P01P13 io
000569   77bc     clrr    0x1bc            	CLRR	_PMOD
                                           ;	.line	84; "MC32F7361.c"	DRVCR = 0x80; // 
00056a   3c80     movai   0x80             	MOVAI	0x80
00056b   578c     movra   0x18c            	MOVRA	_DRVCR
                                           ;	.line	85; "MC32F7361.c"	}
00056c   000c     return                   	RETURN	
                                           ; exit point of _IO_Init
                                           
                                           ;***
                                           ;  pBlock Stats: dbName = C
                                           ;***
                                           ;entry:  _CLR_RAM	;Function start
                                           ; 2 exit points
                                           ;has an exit
                                           ;; Starting pCode block
                                           _CLR_RAM	;Function start
                                           ; 2 exit points
                                           ;	.line	51; "MC32F7361.c"	for (FSR0 = 0; FSR0 < 0xff; FSR0++)
00056d   7784     clrr    0x184            	CLRR	_FSR0
                                           ;;unsigned compare: left < lit(0xFF=255), size=1
                                           _00155_DS_
00056e   3cff     movai   0xff             	MOVAI	0xff
00056f   4984     rsubar  0x184            	RSUBAR	_FSR0
000570   f187     jbclr   0x187, 0         	JBCLR	PFLAG,0
000571   a575     goto    0x575            	GOTO	_00153_DS_
                                           ;;genSkipc:3291: created from rifx:013B5EFC
                                           ;	.line	53; "MC32F7361.c"	INDF0 = 0x00;
000572   7780     clrr    0x180            	CLRR	_INDF0
                                           ;	.line	51; "MC32F7361.c"	for (FSR0 = 0; FSR0 < 0xff; FSR0++)
000573   6784     incr    0x184            	INCR	_FSR0
000574   a56e     goto    0x56e            	GOTO	_00155_DS_
                                           _00153_DS_
                                           ;	.line	55; "MC32F7361.c"	FSR0 = 0xFF;
000575   3cff     movai   0xff             	MOVAI	0xff
000576   5784     movra   0x184            	MOVRA	_FSR0
                                           ;	.line	56; "MC32F7361.c"	INDF0 = 0x00;
000577   7780     clrr    0x180            	CLRR	_INDF0
                                           ;	.line	57; "MC32F7361.c"	}
000578   000c     return                   	RETURN	
                                           ; exit point of _CLR_RAM
                                           
                                           ;***
                                           ;  pBlock Stats: dbName = C
                                           ;***
                                           ;entry:  _delay_us	;Function start
                                           ; 2 exit points
                                           ;has an exit
                                           ;1 compiler assigned register :
                                           ;   r0x102A
                                           ;; Starting pCode block
                                           _delay_us	;Function start
                                           ; 2 exit points
                                           ;	.line	34; "MC32F7361.c"	void delay_us(u8 xus)
000579   5612     movra   0x12             	MOVRA	r0x102A
                                           _00145_DS_
                                           ;	.line	36; "MC32F7361.c"	while (xus)
00057a   3c00     movai   0                	MOVAI	0x00
00057b   5c12     orar    0x12             	ORAR	r0x102A
00057c   f587     jbclr   0x187, 0x2       	JBCLR	PFLAG,2
00057d   a581     goto    0x581            	GOTO	_00148_DS_
                                           ;	.line	38; "MC32F7361.c"	Nop();
00057e   0000     nop                      	nop	
                                           ;	.line	39; "MC32F7361.c"	xus--; //  --while()
00057f   6e12     decr    0x12             	DECR	r0x102A
000580   a57a     goto    0x57a            	GOTO	_00145_DS_
                                           _00148_DS_
                                           ;	.line	41; "MC32F7361.c"	}
000581   000c     return                   	RETURN	
                                           ; exit point of _delay_us
                                           
                                           ;***
                                           ;  pBlock Stats: dbName = C
                                           ;***
                                           ;entry:  _delay_ms	;Function start
                                           ; 2 exit points
                                           ;has an exit
                                           ;7 compiler assigned registers:
                                           ;   r0x102A
                                           ;   STK00
                                           ;   r0x102B
                                           ;   r0x102C
                                           ;   r0x102D
                                           ;   r0x102E
                                           ;   r0x102F
                                           ;; Starting pCode block
                                           _delay_ms	;Function start
                                           ; 2 exit points
                                           ;	.line	20; "MC32F7361.c"	void delay_ms(u16 xms)
000582   5612     movra   0x12             	MOVRA	r0x102A
000583   5806     movar   0x6              	MOVAR	STK00
000584   5611     movra   0x11             	MOVRA	r0x102B
                                           _00137_DS_
                                           ;	.line	22; "MC32F7361.c"	while (xms)
000585   5811     movar   0x11             	MOVAR	r0x102B
000586   5c12     orar    0x12             	ORAR	r0x102A
000587   f587     jbclr   0x187, 0x2       	JBCLR	PFLAG,2
000588   a5a0     goto    0x5a0            	GOTO	_00140_DS_
                                           ;	.line	25; "MC32F7361.c"	while (i--)
000589   3c3c     movai   0x3c             	MOVAI	0x3c
00058a   5613     movra   0x13             	MOVRA	r0x102C
00058b   3c02     movai   0x2              	MOVAI	0x02
00058c   5614     movra   0x14             	MOVRA	r0x102D
                                           _00134_DS_
00058d   5813     movar   0x13             	MOVAR	r0x102C
00058e   5615     movra   0x15             	MOVRA	r0x102E
00058f   5814     movar   0x14             	MOVAR	r0x102D
000590   5616     movra   0x16             	MOVRA	r0x102F
000591   3cff     movai   0xff             	MOVAI	0xff
000592   7e13     addra   0x13             	ADDRA	r0x102C
000593   e187     jbset   0x187, 0         	JBSET	PFLAG,0
000594   6e14     decr    0x14             	DECR	r0x102D
000595   5815     movar   0x15             	MOVAR	r0x102E
000596   5c16     orar    0x16             	ORAR	r0x102F
000597   f587     jbclr   0x187, 0x2       	JBCLR	PFLAG,2
000598   a59b     goto    0x59b            	GOTO	_00136_DS_
                                           ;	.line	27; "MC32F7361.c"	Nop();
000599   0000     nop                      	nop	
00059a   a58d     goto    0x58d            	GOTO	_00134_DS_
                                           _00136_DS_
                                           ;	.line	29; "MC32F7361.c"	xms--; //  --while()
00059b   3cff     movai   0xff             	MOVAI	0xff
00059c   7e11     addra   0x11             	ADDRA	r0x102B
00059d   e187     jbset   0x187, 0         	JBSET	PFLAG,0
00059e   6e12     decr    0x12             	DECR	r0x102A
00059f   a585     goto    0x585            	GOTO	_00137_DS_
                                           _00140_DS_
                                           ;	.line	31; "MC32F7361.c"	}
0005a0   000c     return                   	RETURN	
                                           ; exit point of _delay_ms
                                           
                                           ;***
                                           ;  pBlock Stats: dbName = C
                                           ;***
                                           ;entry:  _send_data_msb	;Function start
                                           ; 2 exit points
                                           ;has an exit
                                           ;functions called:
                                           ;   _delay_ms
                                           ;   _delay_ms
                                           ;   _delay_ms
                                           ;   _delay_ms
                                           ;   _delay_ms
                                           ;   _delay_ms
                                           ;   _delay_ms
                                           ;   _delay_ms
                                           ;   _delay_ms
                                           ;   _delay_ms
                                           ;   _delay_ms
                                           ;   _delay_ms
                                           ;   _delay_ms
                                           ;   _delay_ms
                                           ;   _delay_ms
                                           ;   _delay_ms
                                           ;13 compiler assigned registers:
                                           ;   r0x1053
                                           ;   STK00
                                           ;   r0x1054
                                           ;   STK01
                                           ;   r0x1055
                                           ;   STK02
                                           ;   r0x1056
                                           ;   r0x1057
                                           ;   r0x1058
                                           ;   r0x1059
                                           ;   r0x105A
                                           ;   r0x105B
                                           ;   r0x105C
                                           ;; Starting pCode block
                                           _send_data_msb	;Function start
                                           ; 2 exit points
                                           ;	.line	324; "user.h"	void send_data_msb(u32 send_data)
0005a1   560a     movra   0xa              	MOVRA	r0x1053
0005a2   5806     movar   0x6              	MOVAR	STK00
0005a3   5609     movra   0x9              	MOVRA	r0x1054
0005a4   5805     movar   0x5              	MOVAR	STK01
0005a5   5608     movra   0x8              	MOVRA	r0x1055
0005a6   5804     movar   0x4              	MOVAR	STK02
0005a7   5607     movra   0x7              	MOVRA	r0x1056
                                           ;	.line	328; "user.h"	DEBUG_PIN = 1;
0005a8   c5b8     bset    0x1b8, 0x2       	BSET	_IOP2bits,2
                                           ;	.line	329; "user.h"	delay_ms(15);
0005a9   3c0f     movai   0xf              	MOVAI	0x0f
0005aa   5606     movra   0x6              	MOVRA	STK00
0005ab   3c00     movai   0                	MOVAI	0x00
0005ac   8582     call    0x582            	CALL	_delay_ms
                                           ;	.line	331; "user.h"	DEBUG_PIN = 0;
0005ad   d5b8     bclr    0x1b8, 0x2       	BCLR	_IOP2bits,2
                                           ;	.line	332; "user.h"	delay_ms(7); //
0005ae   3c07     movai   0x7              	MOVAI	0x07
0005af   5606     movra   0x6              	MOVRA	STK00
0005b0   3c00     movai   0                	MOVAI	0x00
0005b1   8582     call    0x582            	CALL	_delay_ms
                                           ;	.line	334; "user.h"	for (u8 i = 0; i < 32; i++)
0005b2   760b     clrr    0xb              	CLRR	r0x1057
                                           ;;unsigned compare: left < lit(0x20=32), size=1
                                           _00110_DS_
0005b3   3c20     movai   0x20             	MOVAI	0x20
0005b4   480b     rsubar  0xb              	RSUBAR	r0x1057
0005b5   f187     jbclr   0x187, 0         	JBCLR	PFLAG,0
0005b6   a5e6     goto    0x5e6            	GOTO	_00108_DS_
                                           ;;genSkipc:3291: created from rifx:013B5EFC
                                           ;	.line	336; "user.h"	if ((send_data >> (32 - 1 - i)) & 0x01)
0005b7   580b     movar   0xb              	MOVAR	r0x1057
0005b8   3a1f     isubai  0x1f             	ISUBAI	0x1f
0005b9   560c     movra   0xc              	MOVRA	r0x1058
0005ba   580a     movar   0xa              	MOVAR	r0x1053
0005bb   5610     movra   0x10             	MOVRA	r0x1059
0005bc   5809     movar   0x9              	MOVAR	r0x1054
0005bd   560f     movra   0xf              	MOVRA	r0x105A
0005be   5808     movar   0x8              	MOVAR	r0x1055
0005bf   560e     movra   0xe              	MOVRA	r0x105B
0005c0   5807     movar   0x7              	MOVAR	r0x1056
0005c1   560d     movra   0xd              	MOVRA	r0x105C
0005c2   580c     movar   0xc              	MOVAR	r0x1058
0005c3   3a00     isubai  0                	ISUBAI	0x00
0005c4   f587     jbclr   0x187, 0x2       	JBCLR	PFLAG,2
0005c5   a5cd     goto    0x5cd            	GOTO	_00129_DS_
                                           _00128_DS_
0005c6   4e10     rrr     0x10             	RRR	r0x1059
0005c7   4e0f     rrr     0xf              	RRR	r0x105A
0005c8   4e0e     rrr     0xe              	RRR	r0x105B
0005c9   4e0d     rrr     0xd              	RRR	r0x105C
0005ca   3f01     addai   0x1              	ADDAI	0x01
0005cb   e187     jbset   0x187, 0         	JBSET	PFLAG,0
0005cc   a5c6     goto    0x5c6            	GOTO	_00128_DS_
                                           _00129_DS_
0005cd   e00d     jbset   0xd, 0           	JBSET	r0x105C,0
0005ce   a5da     goto    0x5da            	GOTO	_00106_DS_
                                           ;	.line	340; "user.h"	DEBUG_PIN = 1;
0005cf   c5b8     bset    0x1b8, 0x2       	BSET	_IOP2bits,2
                                           ;	.line	341; "user.h"	delay_ms(5); //
0005d0   3c05     movai   0x5              	MOVAI	0x05
0005d1   5606     movra   0x6              	MOVRA	STK00
0005d2   3c00     movai   0                	MOVAI	0x00
0005d3   8582     call    0x582            	CALL	_delay_ms
                                           ;	.line	343; "user.h"	DEBUG_PIN = 0;
0005d4   d5b8     bclr    0x1b8, 0x2       	BCLR	_IOP2bits,2
                                           ;	.line	344; "user.h"	delay_ms(10); //
0005d5   3c0a     movai   0xa              	MOVAI	0x0a
0005d6   5606     movra   0x6              	MOVRA	STK00
0005d7   3c00     movai   0                	MOVAI	0x00
0005d8   8582     call    0x582            	CALL	_delay_ms
0005d9   a5e4     goto    0x5e4            	GOTO	_00111_DS_
                                           _00106_DS_
                                           ;	.line	350; "user.h"	DEBUG_PIN = 1;
0005da   c5b8     bset    0x1b8, 0x2       	BSET	_IOP2bits,2
                                           ;	.line	351; "user.h"	delay_ms(5); //
0005db   3c05     movai   0x5              	MOVAI	0x05
0005dc   5606     movra   0x6              	MOVRA	STK00
0005dd   3c00     movai   0                	MOVAI	0x00
0005de   8582     call    0x582            	CALL	_delay_ms
                                           ;	.line	353; "user.h"	DEBUG_PIN = 0;
0005df   d5b8     bclr    0x1b8, 0x2       	BCLR	_IOP2bits,2
                                           ;	.line	354; "user.h"	delay_ms(5); //
0005e0   3c05     movai   0x5              	MOVAI	0x05
0005e1   5606     movra   0x6              	MOVRA	STK00
0005e2   3c00     movai   0                	MOVAI	0x00
0005e3   8582     call    0x582            	CALL	_delay_ms
                                           _00111_DS_
                                           ;	.line	334; "user.h"	for (u8 i = 0; i < 32; i++)
0005e4   660b     incr    0xb              	INCR	r0x1057
0005e5   a5b3     goto    0x5b3            	GOTO	_00110_DS_
                                           _00108_DS_
                                           ;	.line	360; "user.h"	DEBUG_PIN = 0;
0005e6   d5b8     bclr    0x1b8, 0x2       	BCLR	_IOP2bits,2
                                           ;	.line	361; "user.h"	delay_ms(1);
0005e7   3c01     movai   0x1              	MOVAI	0x01
0005e8   5606     movra   0x6              	MOVRA	STK00
0005e9   3c00     movai   0                	MOVAI	0x00
0005ea   8582     call    0x582            	CALL	_delay_ms
                                           ;	.line	362; "user.h"	DEBUG_PIN = 1;
0005eb   c5b8     bset    0x1b8, 0x2       	BSET	_IOP2bits,2
                                           ;	.line	363; "user.h"	delay_ms(1);
0005ec   3c01     movai   0x1              	MOVAI	0x01
0005ed   5606     movra   0x6              	MOVRA	STK00
0005ee   3c00     movai   0                	MOVAI	0x00
0005ef   8582     call    0x582            	CALL	_delay_ms
                                           ;	.line	364; "user.h"	DEBUG_PIN = 0;
0005f0   d5b8     bclr    0x1b8, 0x2       	BCLR	_IOP2bits,2
                                           ;	.line	365; "user.h"	}
0005f1   000c     return                   	RETURN	
                                           ; exit point of _send_data_msb
                                           
                                           
                                           ;	code size estimation:
                                           ;	 1505+    0 =  1505 instructions ( 3010 byte)
                                           
                                           	end
                                           ;--------------------------------------------------------
                                           ; File Created by SN-SDCC : SinoMCU ANSI-C Compiler
                                           ; Version 2.0.0 (Dec 11 2019) (MINGW32)
                                           ; This file was generated Tue Dec 17 17:37:25 2024
                                           ;--------------------------------------------------------
                                           ; MC32 port for the RISC core
                                           ;--------------------------------------------------------
                                           ;	.file	"MC32F7361.c"
                                           	list	p=7361
                                           	radix dec
                                           	include "7361.inc"
                                           ;--------------------------------------------------------
                                           ; external declarations
                                           ;--------------------------------------------------------
                                           	extern	__moduint
                                           	extern	__divuint
                                           	extern	_INDF0bits
                                           	extern	_INDF1bits
                                           	extern	_INDF2bits
                                           	extern	_HIBYTEbits
                                           	extern	_FSR0bits
                                           	extern	_FSR1bits
                                           	extern	_PCLbits
                                           	extern	_PFLAGbits
                                           	extern	_MCRbits
                                           	extern	_INDF3bits
                                           	extern	_INTEbits
                                           	extern	_INTFbits
                                           	extern	_DRVCRbits
                                           	extern	_P0KBCRbits
                                           	extern	_P1KBCRbits
                                           	extern	_P2KBCRbits
                                           	extern	_IOP0bits
                                           	extern	_OEP0bits
                                           	extern	_PUP0bits
                                           	extern	_PDP0bits
                                           	extern	_IOP1bits
                                           	extern	_OEP1bits
                                           	extern	_PUP1bits
                                           	extern	_PDP1bits
                                           	extern	_T0CRbits
                                           	extern	_T0CNTbits
                                           	extern	_T0LOADbits
                                           	extern	_T0DATAbits
                                           	extern	_T1CRbits
                                           	extern	_T1CNTbits
                                           	extern	_T1LOADbits
                                           	extern	_T1DATAbits
                                           	extern	_T2CRbits
                                           	extern	_T2CNTbits
                                           	extern	_T2LOADbits
                                           	extern	_T2DATAbits
                                           	extern	_T3CRbits
                                           	extern	_T3CNTbits
                                           	extern	_T3LOADbits
                                           	extern	_PWM0DRbits
                                           	extern	_PWM1DRbits
                                           	extern	_PWM2DRbits
                                           	extern	_PWMCR0bits
                                           	extern	_PWMCR1bits
                                           	extern	_OSCMRbits
                                           	extern	_LVDCRbits
                                           	extern	_ADCR0bits
                                           	extern	_ADCR1bits
                                           	extern	_ADCR2bits
                                           	extern	_OSADJCRbits
                                           	extern	_ADRHbits
                                           	extern	_ADRLbits
                                           	extern	_P0ADCRbits
                                           	extern	_P1ADCRbits
                                           	extern	_IOP2bits
                                           	extern	_OEP2bits
                                           	extern	_PUP2bits
                                           	extern	_PDP2bits
                                           	extern	_PMODbits
                                           	extern	_PWMCR3bits
                                           	extern	_PWMCR2bits
                                           	extern	_PFRCCRbits
                                           	extern	_PFRCCALbits
                                           	extern	_EECRbits
                                           	extern	_EEPRbits
                                           	extern	_EEARbits
                                           	extern	_EEDRHbits
                                           	extern	_EEDRLbits
                                           	extern	_DBGCRbits
                                           	extern	_DBGPRbits
                                           	extern	_HIRCCALbits
                                           	extern	_INDF0
                                           	extern	_INDF1
                                           	extern	_INDF2
                                           	extern	_HIBYTE
                                           	extern	_FSR0
                                           	extern	_FSR1
                                           	extern	_PCL
                                           	extern	_PFLAG
                                           	extern	_MCR
                                           	extern	_INDF3
                                           	extern	_INTE
                                           	extern	_INTF
                                           	extern	_DRVCR
                                           	extern	_P0KBCR
                                           	extern	_P1KBCR
                                           	extern	_P2KBCR
                                           	extern	_IOP0
                                           	extern	_OEP0
                                           	extern	_PUP0
                                           	extern	_PDP0
                                           	extern	_IOP1
                                           	extern	_OEP1
                                           	extern	_PUP1
                                           	extern	_PDP1
                                           	extern	_T0CR
                                           	extern	_T0CNT
                                           	extern	_T0LOAD
                                           	extern	_T0DATA
                                           	extern	_T1CR
                                           	extern	_T1CNT
                                           	extern	_T1LOAD
                                           	extern	_T1DATA
                                           	extern	_T2CR
                                           	extern	_T2CNT
                                           	extern	_T2LOAD
                                           	extern	_T2DATA
                                           	extern	_T3CR
                                           	extern	_T3CNT
                                           	extern	_T3LOAD
                                           	extern	_PWM0DR
                                           	extern	_PWM1DR
                                           	extern	_PWM2DR
                                           	extern	_PWMCR0
                                           	extern	_PWMCR1
                                           	extern	_OSCMR
                                           	extern	_LVDCR
                                           	extern	_ADCR0
                                           	extern	_ADCR1
                                           	extern	_ADCR2
                                           	extern	_OSADJCR
                                           	extern	_ADRH
                                           	extern	_ADRL
                                           	extern	_P0ADCR
                                           	extern	_P1ADCR
                                           	extern	_IOP2
                                           	extern	_OEP2
                                           	extern	_PUP2
                                           	extern	_PDP2
                                           	extern	_PMOD
                                           	extern	_PWMCR3
                                           	extern	_PWMCR2
                                           	extern	_PFRCCR
                                           	extern	_PFRCCAL
                                           	extern	_EECR
                                           	extern	_EEPR
                                           	extern	_EEAR
                                           	extern	_EEDRH
                                           	extern	_EEDRL
                                           	extern	_DBGCR
                                           	extern	_DBGPR
                                           	extern	_HIRCCAL
                                           	extern	__gptrget1
                                           	extern	__mulchar
                                           ;--------------------------------------------------------
                                           ; global declarations
                                           ;--------------------------------------------------------
                                           	global	_Sys_Init
                                           	global	_IO_Init
                                           	global	_CLR_RAM
                                           	global	_delay_ms
                                           	global	_send_data_msb
                                           	global	_delay_us
                                           	global	_adc_config
                                           	global	_timer0_config
                                           	global	_timer1_config
                                           	global	_timer3_config
                                           	global	_pwm_led_config
                                           	global	_start_send
                                           	global	_timer_100us_isr
                                           	global	_example
                                           	global	_adc_channel_sel
                                           	global	_adc_single_convert
                                           	global	_adc_get_val
                                           	global	_get_key_id
                                           	global	_ad_key_event_10ms_isr
                                           	global	_key_ad_key_event_deal
                                           	global	_bsp_i2c_init
                                           	global	_bsp_i2c_start
                                           	global	_bsp_i2c_tx_byte
                                           	global	_bsp_i2c_rx_ack
                                           	global	_bsp_i2c_stop
                                           	global	_TM1650_WriteByte
                                           	global	_TM1650_Clear
                                           	global	_TM1650_Init
                                           	global	_TM1650_DisplayBit
                                           	global	_TM1650_DisplayNum
                                           	global	_main
                                           	global	_int_isr
                                           	global	_abuf
                                           	global	_statusbuf
                                           	global	_i
                                           	global	_tmp
                                           	global	_pin_state
                                           	global	_adc_val_tmp
                                           	global	_adc_val_sum
                                           	global	_get_adcmax
                                           	global	_get_adcmin
                                           	global	_adc_val
                                           	global	_ad_key_event
                                           	global	_cur_key_id
                                           	global	_set_time_hold_cnt
                                           	global	_cur_time
                                           	global	_cur_status
                                           	global	_set_time_delay_cnt
                                           	global	_set_time_done_cnt
                                           	global	_flag1
                                           	global	_id_table
                                           	global	_key_event_table
                                           	global	_NUM_TABLE
                                           
                                           	global STK06
                                           	global STK05
                                           	global STK04
                                           	global STK03
                                           	global STK02
                                           	global STK01
                                           	global STK00
                                           
                                           sharebank udata_ovr 0x0000
                                           STK06	res 1
                                           STK05	res 1
                                           STK04	res 1
                                           STK03	res 1
                                           STK02	res 1
                                           STK01	res 1
                                           STK00	res 1
                                           
                                           ;--------------------------------------------------------
                                           ; global definitions
                                           ;--------------------------------------------------------
                                           UD_MC32F7361_0	udata
                                           _abuf	res	1
                                           
                                           UD_MC32F7361_1	udata
                                           _statusbuf	res	1
                                           
                                           UD_MC32F7361_2	udata
                                           _i	res	2
                                           
                                           UD_MC32F7361_3	udata
                                           _tmp	res	2
                                           
                                           UD_MC32F7361_4	udata
                                           _pin_state	res	1
                                           
                                           UD_MC32F7361_5	udata
                                           _adc_val_tmp	res	2
                                           
                                           UD_MC32F7361_6	udata
                                           _adc_val_sum	res	4
                                           
                                           UD_MC32F7361_7	udata
                                           _get_adcmax	res	2
                                           
                                           UD_MC32F7361_8	udata
                                           _get_adcmin	res	2
                                           
                                           UD_MC32F7361_9	udata
                                           _adc_val	res	2
                                           
                                           UD_MC32F7361_10	udata
                                           _ad_key_event	res	1
                                           
                                           UD_MC32F7361_11	udata
                                           _cur_key_id	res	1
                                           
                                           UD_MC32F7361_12	udata
                                           _set_time_hold_cnt	res	1
                                           
                                           UD_MC32F7361_13	udata
                                           _cur_time	res	2
                                           
                                           UD_MC32F7361_14	udata
                                           _cur_status	res	1
                                           
                                           UD_MC32F7361_15	udata
                                           _set_time_delay_cnt	res	2
                                           
                                           UD_MC32F7361_16	udata
                                           _set_time_done_cnt	res	2
                                           
                                           UD_MC32F7361_17	udata
                                           _flag1	res	1
                                           
                                           ;--------------------------------------------------------
                                           ; absolute symbol definitions
                                           ;--------------------------------------------------------
                                           ;--------------------------------------------------------
                                           ; compiler-defined variables
                                           ;--------------------------------------------------------
                                           UDL_MC32F7361_0	udata
                                           r0x1056	res	1
                                           r0x1055	res	1
                                           r0x1054	res	1
                                           r0x1053	res	1
                                           r0x1057	res	1
                                           r0x1058	res	1
                                           r0x105C	res	1
                                           r0x105B	res	1
                                           r0x105A	res	1
                                           r0x1059	res	1
                                           r0x102B	res	1
                                           r0x102A	res	1
                                           r0x102C	res	1
                                           r0x102D	res	1
                                           r0x102E	res	1
                                           r0x102F	res	1
                                           r0x1041	res	1
                                           r0x1040	res	1
                                           r0x103F	res	1
                                           r0x1042	res	1
                                           r0x1043	res	1
                                           r0x1044	res	1
                                           r0x1045	res	1
                                           r0x1046	res	1
                                           r0x1047	res	1
                                           r0x104B	res	1
                                           r0x104C	res	1
                                           r0x104D	res	1
                                           r0x104F	res	1
                                           r0x104E	res	1
                                           r0x1050	res	1
                                           r0x1051	res	1
                                           r0x1052	res	1
                                           r0x1049	res	1
                                           r0x1048	res	1
                                           r0x1030	res	1
                                           r0x103B	res	1
                                           r0x103C	res	1
                                           r0x103D	res	1
                                           r0x103E	res	1
                                           r0x1031	res	1
                                           r0x1033	res	1
                                           r0x1034	res	1
                                           r0x1035	res	1
                                           r0x1032	res	1
                                           r0x1037	res	1
                                           r0x1036	res	1
                                           r0x1038	res	1
                                           r0x1039	res	1
                                           r0x103A	res	1
                                           r0x105D	res	1
                                           r0x105E	res	1
                                           _g_byte_count	res	1
                                           _g_bit_count	res	1
                                           _g_timer_count	res	1
                                           _g_data	res	3
                                           _g_last_pin_state	res	1
                                           _example_send_buf_65536_72	res	3
                                           _ad_key_event_10ms_isr_count_65536_89	res	1
                                           _ad_key_event_10ms_isr_last_65536_89	res	1
                                           _int_isr_timer1_cnt_131072_152	res	2
                                           _int_isr_timer3_cnt_131072_154	res	1
                                           ;--------------------------------------------------------
                                           ; initialized data
                                           ;--------------------------------------------------------
                                           
                                           ID_MC32F7361_0	idata
                                           _g_state
                                           	db	0x00
                                           
                                           
                                           ID_MC32F7361_1	code
                                           _id_table
                                           	dw 0x24
                                           	dw 0x4e
                                           	dw 0x71
                                           	dw 0x8d
                                           	dw 0xc0
                                           	dw 0xf3
                                           
                                           
                                           ID_MC32F7361_2	code
                                           _key_event_table
                                           	dw 0x00
                                           	dw 0x01
                                           	dw 0x02
                                           	dw 0x03
                                           	dw 0x04
                                           	dw 0x05
                                           	dw 0x06
                                           	dw 0x07
                                           	dw 0x08
                                           	dw 0x09
                                           	dw 0x0a
                                           	dw 0x0b
                                           	dw 0x0c
                                           	dw 0x0d
                                           	dw 0x0e
                                           	dw 0x0f
                                           	dw 0x10
                                           	dw 0x11
                                           
                                           
                                           ID_MC32F7361_3	code
                                           _NUM_TABLE
                                           	dw 0xeb
                                           	dw 0x88
                                           	dw 0xb3
                                           	dw 0xba
                                           	dw 0xd8
                                           	dw 0x7a
                                           	dw 0x7b
                                           	dw 0xa8
                                           	dw 0xfb
                                           	dw 0xfa
                                           
                                           
                                           ;@Allocation info for local variables in function 'send_data_msb'
                                           ;@send_data_msb Sys_Init                  Allocated to registers ;size:2
                                           ;@send_data_msb CLR_RAM                   Allocated to registers ;size:2
                                           ;@send_data_msb IO_Init                   Allocated to registers ;size:2
                                           ;@send_data_msb delay_ms                  Allocated to registers ;size:2
                                           ;@send_data_msb send_data_msb             Allocated to registers ;size:2
                                           ;@send_data_msb INDF0bits                 Allocated to registers ;size:1
                                           ;@send_data_msb INDF1bits                 Allocated to registers ;size:1
                                           ;@send_data_msb INDF2bits                 Allocated to registers ;size:1
                                           ;@send_data_msb HIBYTEbits                Allocated to registers ;size:1
                                           ;@send_data_msb FSR0bits                  Allocated to registers ;size:1
                                           ;@send_data_msb FSR1bits                  Allocated to registers ;size:1
                                           ;@send_data_msb PCLbits                   Allocated to registers ;size:1
                                           ;@send_data_msb PFLAGbits                 Allocated to registers ;size:1
                                           ;@send_data_msb MCRbits                   Allocated to registers ;size:1
                                           ;@send_data_msb INDF3bits                 Allocated to registers ;size:1
                                           ;@send_data_msb INTEbits                  Allocated to registers ;size:1
                                           ;@send_data_msb INTFbits                  Allocated to registers ;size:1
                                           ;@send_data_msb DRVCRbits                 Allocated to registers ;size:1
                                           ;@send_data_msb P0KBCRbits                Allocated to registers ;size:1
                                           ;@send_data_msb P1KBCRbits                Allocated to registers ;size:1
                                           ;@send_data_msb P2KBCRbits                Allocated to registers ;size:1
                                           ;@send_data_msb IOP0bits                  Allocated to registers ;size:1
                                           ;@send_data_msb OEP0bits                  Allocated to registers ;size:1
                                           ;@send_data_msb PUP0bits                  Allocated to registers ;size:1
                                           ;@send_data_msb PDP0bits                  Allocated to registers ;size:1
                                           ;@send_data_msb IOP1bits                  Allocated to registers ;size:1
                                           ;@send_data_msb OEP1bits                  Allocated to registers ;size:1
                                           ;@send_data_msb PUP1bits                  Allocated to registers ;size:1
                                           ;@send_data_msb PDP1bits                  Allocated to registers ;size:1
                                           ;@send_data_msb T0CRbits                  Allocated to registers ;size:1
                                           ;@send_data_msb T0CNTbits                 Allocated to registers ;size:1
                                           ;@send_data_msb T0LOADbits                Allocated to registers ;size:1
                                           ;@send_data_msb T0DATAbits                Allocated to registers ;size:1
                                           ;@send_data_msb T1CRbits                  Allocated to registers ;size:1
                                           ;@send_data_msb T1CNTbits                 Allocated to registers ;size:1
                                           ;@send_data_msb T1LOADbits                Allocated to registers ;size:1
                                           ;@send_data_msb T1DATAbits                Allocated to registers ;size:1
                                           ;@send_data_msb T2CRbits                  Allocated to registers ;size:1
                                           ;@send_data_msb T2CNTbits                 Allocated to registers ;size:1
                                           ;@send_data_msb T2LOADbits                Allocated to registers ;size:1
                                           ;@send_data_msb T2DATAbits                Allocated to registers ;size:1
                                           ;@send_data_msb T3CRbits                  Allocated to registers ;size:1
                                           ;@send_data_msb T3CNTbits                 Allocated to registers ;size:1
                                           ;@send_data_msb T3LOADbits                Allocated to registers ;size:1
                                           ;@send_data_msb PWM0DRbits                Allocated to registers ;size:1
                                           ;@send_data_msb PWM1DRbits                Allocated to registers ;size:1
                                           ;@send_data_msb PWM2DRbits                Allocated to registers ;size:1
                                           ;@send_data_msb PWMCR0bits                Allocated to registers ;size:1
                                           ;@send_data_msb PWMCR1bits                Allocated to registers ;size:1
                                           ;@send_data_msb OSCMRbits                 Allocated to registers ;size:1
                                           ;@send_data_msb LVDCRbits                 Allocated to registers ;size:1
                                           ;@send_data_msb ADCR0bits                 Allocated to registers ;size:1
                                           ;@send_data_msb ADCR1bits                 Allocated to registers ;size:1
                                           ;@send_data_msb ADCR2bits                 Allocated to registers ;size:1
                                           ;@send_data_msb OSADJCRbits               Allocated to registers ;size:1
                                           ;@send_data_msb ADRHbits                  Allocated to registers ;size:1
                                           ;@send_data_msb ADRLbits                  Allocated to registers ;size:1
                                           ;@send_data_msb P0ADCRbits                Allocated to registers ;size:1
                                           ;@send_data_msb P1ADCRbits                Allocated to registers ;size:1
                                           ;@send_data_msb IOP2bits                  Allocated to registers ;size:1
                                           ;@send_data_msb OEP2bits                  Allocated to registers ;size:1
                                           ;@send_data_msb PUP2bits                  Allocated to registers ;size:1
                                           ;@send_data_msb PDP2bits                  Allocated to registers ;size:1
                                           ;@send_data_msb PMODbits                  Allocated to registers ;size:1
                                           ;@send_data_msb PWMCR3bits                Allocated to registers ;size:1
                                           ;@send_data_msb PWMCR2bits                Allocated to registers ;size:1
                                           ;@send_data_msb PFRCCRbits                Allocated to registers ;size:1
                                           ;@send_data_msb PFRCCALbits               Allocated to registers ;size:1
                                           ;@send_data_msb EECRbits                  Allocated to registers ;size:1
                                           ;@send_data_msb EEPRbits                  Allocated to registers ;size:1
                                           ;@send_data_msb EEARbits                  Allocated to registers ;size:1
                                           ;@send_data_msb EEDRHbits                 Allocated to registers ;size:1
                                           ;@send_data_msb EEDRLbits                 Allocated to registers ;size:1
                                           ;@send_data_msb DBGCRbits                 Allocated to registers ;size:1
                                           ;@send_data_msb DBGPRbits                 Allocated to registers ;size:1
                                           ;@send_data_msb HIRCCALbits               Allocated to registers ;size:1
                                           ;@send_data_msb abuf                      Allocated to registers ;size:1
                                           ;@send_data_msb statusbuf                 Allocated to registers ;size:1
                                           ;@send_data_msb i                         Allocated to registers ;size:2
                                           ;@send_data_msb tmp                       Allocated to registers ;size:2
                                           ;@send_data_msb g_data                    Allocated to registers ;size:3
                                           ;@send_data_msb g_byte_count              Allocated to registers ;size:1
                                           ;@send_data_msb g_bit_count               Allocated to registers ;size:1
                                           ;@send_data_msb g_timer_count             Allocated to registers ;size:1
                                           ;@send_data_msb g_state                   Allocated to registers ;size:1
                                           ;@send_data_msb g_last_pin_state          Allocated to registers ;size:1
                                           ;@send_data_msb pin_state                 Allocated to registers ;size:1
                                           ;@send_data_msb adc_val_tmp               Allocated to registers ;size:2
                                           ;@send_data_msb adc_val_sum               Allocated to registers ;size:4
                                           ;@send_data_msb get_adcmax                Allocated to registers ;size:2
                                           ;@send_data_msb get_adcmin                Allocated to registers ;size:2
                                           ;@send_data_msb adc_val                   Allocated to registers ;size:2
                                           ;@send_data_msb ad_key_event              Allocated to registers ;size:1
                                           ;@send_data_msb cur_key_id                Allocated to registers ;size:1
                                           ;@send_data_msb set_time_hold_cnt         Allocated to registers ;size:1
                                           ;@send_data_msb cur_time                  Allocated to registers ;size:2
                                           ;@send_data_msb cur_status                Allocated to registers ;size:1
                                           ;@send_data_msb set_time_delay_cnt        Allocated to registers ;size:2
                                           ;@send_data_msb set_time_done_cnt         Allocated to registers ;size:2
                                           ;@send_data_msb flag1                     Allocated to registers ;size:1
                                           ;@send_data_msb send_data                 Allocated to registers r0x1056 r0x1055 r0x1054 r0x1053 ;size:4
                                           ;@send_data_msb i                         Allocated to registers r0x1057 ;size:1
                                           ;@send_data_msb INDF0                     Allocated to registers ;size:1
                                           ;@send_data_msb INDF1                     Allocated to registers ;size:1
                                           ;@send_data_msb INDF2                     Allocated to registers ;size:1
                                           ;@send_data_msb HIBYTE                    Allocated to registers ;size:1
                                           ;@send_data_msb FSR0                      Allocated to registers ;size:1
                                           ;@send_data_msb FSR1                      Allocated to registers ;size:1
                                           ;@send_data_msb PCL                       Allocated to registers ;size:1
                                           ;@send_data_msb PFLAG                     Allocated to registers ;size:1
                                           ;@send_data_msb MCR                       Allocated to registers ;size:1
                                           ;@send_data_msb INDF3                     Allocated to registers ;size:1
                                           ;@send_data_msb INTE                      Allocated to registers ;size:1
                                           ;@send_data_msb INTF                      Allocated to registers ;size:1
                                           ;@send_data_msb DRVCR                     Allocated to registers ;size:1
                                           ;@send_data_msb P0KBCR                    Allocated to registers ;size:1
                                           ;@send_data_msb P1KBCR                    Allocated to registers ;size:1
                                           ;@send_data_msb P2KBCR                    Allocated to registers ;size:1
                                           ;@send_data_msb IOP0                      Allocated to registers ;size:1
                                           ;@send_data_msb OEP0                      Allocated to registers ;size:1
                                           ;@send_data_msb PUP0                      Allocated to registers ;size:1
                                           ;@send_data_msb PDP0                      Allocated to registers ;size:1
                                           ;@send_data_msb IOP1                      Allocated to registers ;size:1
                                           ;@send_data_msb OEP1                      Allocated to registers ;size:1
                                           ;@send_data_msb PUP1                      Allocated to registers ;size:1
                                           ;@send_data_msb PDP1                      Allocated to registers ;size:1
                                           ;@send_data_msb T0CR                      Allocated to registers ;size:1
                                           ;@send_data_msb T0CNT                     Allocated to registers ;size:1
                                           ;@send_data_msb T0LOAD                    Allocated to registers ;size:1
                                           ;@send_data_msb T0DATA                    Allocated to registers ;size:1
                                           ;@send_data_msb T1CR                      Allocated to registers ;size:1
                                           ;@send_data_msb T1CNT                     Allocated to registers ;size:1
                                           ;@send_data_msb T1LOAD                    Allocated to registers ;size:1
                                           ;@send_data_msb T1DATA                    Allocated to registers ;size:1
                                           ;@send_data_msb T2CR                      Allocated to registers ;size:1
                                           ;@send_data_msb T2CNT                     Allocated to registers ;size:1
                                           ;@send_data_msb T2LOAD                    Allocated to registers ;size:1
                                           ;@send_data_msb T2DATA                    Allocated to registers ;size:1
                                           ;@send_data_msb T3CR                      Allocated to registers ;size:1
                                           ;@send_data_msb T3CNT                     Allocated to registers ;size:1
                                           ;@send_data_msb T3LOAD                    Allocated to registers ;size:1
                                           ;@send_data_msb PWM0DR                    Allocated to registers ;size:1
                                           ;@send_data_msb PWM1DR                    Allocated to registers ;size:1
                                           ;@send_data_msb PWM2DR                    Allocated to registers ;size:1
                                           ;@send_data_msb PWMCR0                    Allocated to registers ;size:1
                                           ;@send_data_msb PWMCR1                    Allocated to registers ;size:1
                                           ;@send_data_msb OSCMR                     Allocated to registers ;size:1
                                           ;@send_data_msb LVDCR                     Allocated to registers ;size:1
                                           ;@send_data_msb ADCR0                     Allocated to registers ;size:1
                                           ;@send_data_msb ADCR1                     Allocated to registers ;size:1
                                           ;@send_data_msb ADCR2                     Allocated to registers ;size:1
                                           ;@send_data_msb OSADJCR                   Allocated to registers ;size:1
                                           ;@send_data_msb ADRH                      Allocated to registers ;size:1
                                           ;@send_data_msb ADRL                      Allocated to registers ;size:1
                                           ;@send_data_msb P0ADCR                    Allocated to registers ;size:1
                                           ;@send_data_msb P1ADCR                    Allocated to registers ;size:1
                                           ;@send_data_msb IOP2                      Allocated to registers ;size:1
                                           ;@send_data_msb OEP2                      Allocated to registers ;size:1
                                           ;@send_data_msb PUP2                      Allocated to registers ;size:1
                                           ;@send_data_msb PDP2                      Allocated to registers ;size:1
                                           ;@send_data_msb PMOD                      Allocated to registers ;size:1
                                           ;@send_data_msb PWMCR3                    Allocated to registers ;size:1
                                           ;@send_data_msb PWMCR2                    Allocated to registers ;size:1
                                           ;@send_data_msb PFRCCR                    Allocated to registers ;size:1
                                           ;@send_data_msb PFRCCAL                   Allocated to registers ;size:1
                                           ;@send_data_msb EECR                      Allocated to registers ;size:1
                                           ;@send_data_msb EEPR                      Allocated to registers ;size:1
                                           ;@send_data_msb EEAR                      Allocated to registers ;size:1
                                           ;@send_data_msb EEDRH                     Allocated to registers ;size:1
                                           ;@send_data_msb EEDRL                     Allocated to registers ;size:1
                                           ;@send_data_msb DBGCR                     Allocated to registers ;size:1
                                           ;@send_data_msb DBGPR                     Allocated to registers ;size:1
                                           ;@send_data_msb HIRCCAL                   Allocated to registers ;size:1
                                           ;@end Allocation info for local variables in function 'send_data_msb';
                                           ;@Allocation info for local variables in function 'delay_ms'
                                           ;@delay_ms xms                       Allocated to registers ;size:2
                                           ;@delay_ms i                         Allocated to registers r0x102C r0x102D ;size:2
                                           ;@end Allocation info for local variables in function 'delay_ms';
                                           ;@Allocation info for local variables in function 'delay_us'
                                           ;@delay_us xus                       Allocated to registers ;size:1
                                           ;@end Allocation info for local variables in function 'delay_us';
                                           ;@Allocation info for local variables in function 'CLR_RAM'
                                           ;@end Allocation info for local variables in function 'CLR_RAM';
                                           ;@Allocation info for local variables in function 'IO_Init'
                                           ;@end Allocation info for local variables in function 'IO_Init';
                                           ;@Allocation info for local variables in function 'adc_config'
                                           ;@end Allocation info for local variables in function 'adc_config';
                                           ;@Allocation info for local variables in function 'timer0_config'
                                           ;@end Allocation info for local variables in function 'timer0_config';
                                           ;@Allocation info for local variables in function 'timer1_config'
                                           ;@end Allocation info for local variables in function 'timer1_config';
                                           ;@Allocation info for local variables in function 'timer3_config'
                                           ;@end Allocation info for local variables in function 'timer3_config';
                                           ;@Allocation info for local variables in function 'pwm_led_config'
                                           ;@end Allocation info for local variables in function 'pwm_led_config';
                                           ;@Allocation info for local variables in function 'start_send'
                                           ;@start_send data                      Allocated to registers r0x1041 r0x1040 r0x103F ;size:3
                                           ;@end Allocation info for local variables in function 'start_send';
                                           ;@Allocation info for local variables in function 'timer_100us_isr'
                                           ;@end Allocation info for local variables in function 'timer_100us_isr';
                                           ;@Allocation info for local variables in function 'example'
                                           ;@example send_buf                  Allocated to registers ;size:3
                                           ;@end Allocation info for local variables in function 'example';
                                           ;@Allocation info for local variables in function 'Sys_Init'
                                           ;@end Allocation info for local variables in function 'Sys_Init';
                                           ;@Allocation info for local variables in function 'adc_channel_sel'
                                           ;@adc_channel_sel adc_channel               Allocated to registers r0x1030 ;size:1
                                           ;@end Allocation info for local variables in function 'adc_channel_sel';
                                           ;@Allocation info for local variables in function 'adc_single_convert'
                                           ;@end Allocation info for local variables in function 'adc_single_convert';
                                           ;@Allocation info for local variables in function 'adc_get_val'
                                           ;@end Allocation info for local variables in function 'adc_get_val';
                                           ;@Allocation info for local variables in function 'get_key_id'
                                           ;@end Allocation info for local variables in function 'get_key_id';
                                           ;@Allocation info for local variables in function 'ad_key_event_10ms_isr'
                                           ;@ad_key_event_10ms_isr last                      Allocated to registers ;size:1
                                           ;@ad_key_event_10ms_isr count                     Allocated to registers ;size:1
                                           ;@end Allocation info for local variables in function 'ad_key_event_10ms_isr';
                                           ;@Allocation info for local variables in function 'ad_key_event_10ms_isr'
                                           ;@ad_key_event_10ms_isr last                      Allocated to registers ;size:1
                                           ;@ad_key_event_10ms_isr count                     Allocated to registers ;size:1
                                           ;@end Allocation info for local variables in function 'ad_key_event_10ms_isr';
                                           ;@Allocation info for local variables in function 'key_ad_key_event_deal'
                                           ;@end Allocation info for local variables in function 'key_ad_key_event_deal';
                                           ;@Allocation info for local variables in function 'bsp_i2c_init'
                                           ;@end Allocation info for local variables in function 'bsp_i2c_init';
                                           ;@Allocation info for local variables in function 'bsp_i2c_start'
                                           ;@end Allocation info for local variables in function 'bsp_i2c_start';
                                           ;@Allocation info for local variables in function 'bsp_i2c_tx_byte'
                                           ;@bsp_i2c_tx_byte dat                       Allocated to registers r0x102B ;size:1
                                           ;@bsp_i2c_tx_byte i                         Allocated to registers r0x102C ;size:1
                                           ;@end Allocation info for local variables in function 'bsp_i2c_tx_byte';
                                           ;@Allocation info for local variables in function 'bsp_i2c_rx_ack'
                                           ;@bsp_i2c_rx_ack ret                       Allocated to registers r0x102B ;size:1
                                           ;@end Allocation info for local variables in function 'bsp_i2c_rx_ack';
                                           ;@Allocation info for local variables in function 'bsp_i2c_stop'
                                           ;@end Allocation info for local variables in function 'bsp_i2c_stop';
                                           ;@Allocation info for local variables in function 'TM1650_WriteByte'
                                           ;@TM1650_WriteByte data                      Allocated to registers r0x102F ;size:1
                                           ;@TM1650_WriteByte addr                      Allocated to registers r0x102E ;size:1
                                           ;@end Allocation info for local variables in function 'TM1650_WriteByte';
                                           ;@Allocation info for local variables in function 'TM1650_Clear'
                                           ;@end Allocation info for local variables in function 'TM1650_Clear';
                                           ;@Allocation info for local variables in function 'TM1650_Init'
                                           ;@end Allocation info for local variables in function 'TM1650_Init';
                                           ;@Allocation info for local variables in function 'TM1650_DisplayBit'
                                           ;@TM1650_DisplayBit num                       Allocated to registers r0x1031 ;size:1
                                           ;@TM1650_DisplayBit pos                       Allocated to registers r0x1030 ;size:1
                                           ;@TM1650_DisplayBit addr                      Allocated to registers r0x1030 ;size:1
                                           ;@end Allocation info for local variables in function 'TM1650_DisplayBit';
                                           ;@Allocation info for local variables in function 'TM1650_DisplayNum'
                                           ;@TM1650_DisplayNum num                       Allocated to registers r0x1035 r0x1034 ;size:2
                                           ;@TM1650_DisplayNum thousand                  Allocated to registers r0x1038 ;size:1
                                           ;@TM1650_DisplayNum hundred                   Allocated to registers r0x1039 ;size:1
                                           ;@TM1650_DisplayNum decade                    Allocated to registers r0x103A ;size:1
                                           ;@TM1650_DisplayNum unit                      Allocated to registers r0x1037 ;size:1
                                           ;@end Allocation info for local variables in function 'TM1650_DisplayNum';
                                           ;@Allocation info for local variables in function 'main'
                                           ;@end Allocation info for local variables in function 'main';
                                           ;@Allocation info for local variables in function 'int_isr'
                                           ;@int_isr timer1_cnt                Allocated to registers ;size:2
                                           ;@int_isr timer3_cnt                Allocated to registers ;size:1
                                           ;@end Allocation info for local variables in function 'int_isr';
                                           ;@Allocation info for local variables in function 'int_isr'
                                           ;@int_isr timer1_cnt                Allocated to registers ;size:2
                                           ;@int_isr timer3_cnt                Allocated to registers ;size:1
                                           ;@end Allocation info for local variables in function 'int_isr';
                                           
                                           ;--------------------------------------------------------
                                           ; overlayable items in internal ram 
                                           ;--------------------------------------------------------
                                           ;	udata_ovr
                                           ;--------------------------------------------------------
                                           ; reset vector 
                                           ;--------------------------------------------------------
                                           STARTUP	code 0x0000
                                           	goto	_main
                                           ;--------------------------------------------------------
                                           ; interrupt and initialization code
                                           ;--------------------------------------------------------
                                           c_interrupt	code	0x8
                                           __sdcc_interrupt
                                           ;***
                                           ;  pBlock Stats: dbName = I
                                           ;***
                                           ;entry:  _int_isr	;Function start
                                           ; 0 exit points
                                           ;2 compiler assigned registers:
                                           ;   r0x105D
                                           ;   r0x105E
                                           ;; Starting pCode block
                                           _int_isr	;Function start
                                           ; 0 exit points
                                           ;	.line	839; "MC32F7361.c"	__endasm;
                                           	;
                                           	movra	_abuf;
                                           	swapar	_PFLAG;
                                           	movra	_statusbuf;
                                           	
                                           ;	.line	842; "MC32F7361.c"	if (T1IF & T1IE)
                                           	CLRR	r0x105D
                                           	JBCLR	_INTFbits,1
                                           	INCR	r0x105D
                                           	CLRR	r0x105E
                                           	JBCLR	_INTEbits,1
                                           	INCR	r0x105E
                                           	MOVAR	r0x105E
                                           	ANDRA	r0x105D
                                           	MOVAI	0x00
                                           	ORAR	r0x105D
                                           	JBCLR	PFLAG,2
                                           	GOTO	_00863_DS_
                                           ;	.line	845; "MC32F7361.c"	timer1_cnt++;
                                           	INCR	_int_isr_timer1_cnt_131072_152
                                           	JBCLR	PFLAG,2
                                           	INCR	(_int_isr_timer1_cnt_131072_152 + 1)
                                           ;;unsigned compare: left < lit(0x400=1024), size=2
                                           ;	.line	846; "MC32F7361.c"	if (timer1_cnt >= 1024)
                                           	MOVAI	0x04
                                           	RSUBAR	(_int_isr_timer1_cnt_131072_152 + 1)
                                           	JBSET	PFLAG,2
                                           	GOTO	_00893_DS_
                                           	MOVAI	0x00
                                           	RSUBAR	_int_isr_timer1_cnt_131072_152
                                           _00893_DS_
                                           	JBSET	PFLAG,0
                                           	GOTO	_00861_DS_
                                           ;;genSkipc:3291: created from rifx:013B5EFC
                                           ;	.line	848; "MC32F7361.c"	P12D = ~P12D;
                                           	CLRR	r0x105D
                                           	JBCLR	_IOP1bits,2
                                           	INCR	r0x105D
                                           	COMAR	r0x105D
                                           	MOVRA	r0x105D
                                           	RRAR	r0x105D
                                           	JBSET	PFLAG,0
                                           	BCLR	_IOP1bits,2
                                           	JBCLR	PFLAG,0
                                           	BSET	_IOP1bits,2
                                           ;	.line	849; "MC32F7361.c"	timer1_cnt = 0;
                                           	CLRR	_int_isr_timer1_cnt_131072_152
                                           	CLRR	(_int_isr_timer1_cnt_131072_152 + 1)
                                           _00861_DS_
                                           ;	.line	863; "MC32F7361.c"	T1IF = 0;
                                           	BCLR	_INTFbits,1
                                           _00863_DS_
                                           ;	.line	866; "MC32F7361.c"	if (T3IF & T3IE)
                                           	CLRR	r0x105D
                                           	JBCLR	_INTFbits,7
                                           	INCR	r0x105D
                                           	CLRR	r0x105E
                                           	JBCLR	_INTEbits,7
                                           	INCR	r0x105E
                                           	MOVAR	r0x105E
                                           	ANDRA	r0x105D
                                           	MOVAI	0x00
                                           	ORAR	r0x105D
                                           	JBCLR	PFLAG,2
                                           	GOTO	_00870_DS_
                                           ;	.line	869; "MC32F7361.c"	timer3_cnt++;
                                           	INCR	_int_isr_timer3_cnt_131072_154
                                           ;;unsigned compare: left < lit(0xA=10), size=1
                                           ;	.line	870; "MC32F7361.c"	if (timer3_cnt >= 10)
                                           	MOVAI	0x0a
                                           	RSUBAR	_int_isr_timer3_cnt_131072_154
                                           	JBSET	PFLAG,0
                                           	GOTO	_00865_DS_
                                           ;;genSkipc:3291: created from rifx:013B5EFC
                                           ;	.line	872; "MC32F7361.c"	flag_10ms = 1;
                                           	BSET	_flag1,0
                                           ;	.line	873; "MC32F7361.c"	timer3_cnt = 0;
                                           	CLRR	_int_isr_timer3_cnt_131072_154
                                           _00865_DS_
                                           ;	.line	876; "MC32F7361.c"	if (STATUS_SET_TIME_HOUR == cur_status ||
                                           	MOVAR	_cur_status
                                           	XORAI	0x01
                                           	JBSET	PFLAG,2
                                           	GOTO	_00895_DS_
                                           	GOTO	_00866_DS_
                                           _00895_DS_
                                           ;	.line	877; "MC32F7361.c"	STATUS_SET_TIME_MIN == cur_status)
                                           	MOVAR	_cur_status
                                           	XORAI	0x02
                                           	JBSET	PFLAG,2
                                           	GOTO	_00867_DS_
                                           _00866_DS_
                                           ;	.line	879; "MC32F7361.c"	set_time_delay_cnt++;
                                           	INCR	_set_time_delay_cnt
                                           	JBCLR	PFLAG,2
                                           	INCR	(_set_time_delay_cnt + 1)
                                           ;	.line	880; "MC32F7361.c"	set_time_done_cnt++;
                                           	INCR	_set_time_done_cnt
                                           	JBCLR	PFLAG,2
                                           	INCR	(_set_time_done_cnt + 1)
                                           _00867_DS_
                                           ;	.line	883; "MC32F7361.c"	T3IF = 0;
                                           	BCLR	_INTFbits,7
                                           _00870_DS_
                                           ;	.line	891; "MC32F7361.c"	__endasm;
                                           	;
                                           	swapar	_statusbuf;
                                           	movra	_PFLAG;
                                           	swapr	_abuf;
                                           	swapar	_abuf;
                                           	
                                           END_OF_INTERRUPT
                                           ;	.line	892; "MC32F7361.c"	}
                                           	RETIE	
                                           
                                           ;--------------------------------------------------------
                                           ; code
                                           ;--------------------------------------------------------
                                           code_MC32F7361	code
                                           ;***
                                           ;  pBlock Stats: dbName = M
                                           ;***
                                           ;entry:  _main	;Function start
                                           ; 2 exit points
                                           ;has an exit
                                           ;functions called:
                                           ;   _Sys_Init
                                           ;   _adc_channel_sel
                                           ;   _key_ad_key_event_deal
                                           ;   _TM1650_DisplayNum
                                           ;   _TM1650_WriteByte
                                           ;   _TM1650_WriteByte
                                           ;   _TM1650_DisplayNum
                                           ;   _TM1650_WriteByte
                                           ;   _TM1650_WriteByte
                                           ;   _Sys_Init
                                           ;   _adc_channel_sel
                                           ;   _key_ad_key_event_deal
                                           ;   _TM1650_DisplayNum
                                           ;   _TM1650_WriteByte
                                           ;   _TM1650_WriteByte
                                           ;   _TM1650_DisplayNum
                                           ;   _TM1650_WriteByte
                                           ;   _TM1650_WriteByte
                                           ;1 compiler assigned register :
                                           ;   STK00
                                           ;; Starting pCode block
                                           _main	;Function start
                                           ; 2 exit points
                                           ;	.line	760; "MC32F7361.c"	Sys_Init();
                                           	CALL	_Sys_Init
                                           _00810_DS_
                                           ;	.line	764; "MC32F7361.c"	adc_channel_sel(ADC_CHANNEL_KEY);
                                           	MOVAI	0x01
                                           	CALL	_adc_channel_sel
                                           ;	.line	765; "MC32F7361.c"	key_ad_key_event_deal();
                                           	CALL	_key_ad_key_event_deal
                                           ;	.line	767; "MC32F7361.c"	if (STATUS_SET_TIME_HOUR == cur_status)
                                           	MOVAR	_cur_status
                                           	XORAI	0x01
                                           	JBSET	PFLAG,2
                                           	GOTO	_00807_DS_
                                           ;;unsigned compare: left < lit(0x1F4=500), size=2
                                           ;	.line	775; "MC32F7361.c"	if (set_time_delay_cnt < 500)
                                           	MOVAI	0x01
                                           	RSUBAR	(_set_time_delay_cnt + 1)
                                           	JBSET	PFLAG,2
                                           	GOTO	_00850_DS_
                                           	MOVAI	0xf4
                                           	RSUBAR	_set_time_delay_cnt
                                           _00850_DS_
                                           	JBCLR	PFLAG,0
                                           	GOTO	_00793_DS_
                                           ;;genSkipc:3291: created from rifx:013B5EFC
                                           ;	.line	777; "MC32F7361.c"	TM1650_DisplayNum(cur_time);
                                           	MOVAR	_cur_time
                                           	MOVRA	STK00
                                           	MOVAR	(_cur_time + 1)
                                           	CALL	_TM1650_DisplayNum
                                           	GOTO	_00794_DS_
                                           _00793_DS_
                                           ;	.line	781; "MC32F7361.c"	TM1650_WriteByte(0x6E, 0x00); // 4
                                           	MOVAI	0x00
                                           	MOVRA	STK00
                                           	MOVAI	0x6e
                                           	CALL	_TM1650_WriteByte
                                           ;	.line	782; "MC32F7361.c"	TM1650_WriteByte(0x6C, 0x00); // 3
                                           	MOVAI	0x00
                                           	MOVRA	STK00
                                           	MOVAI	0x6c
                                           	CALL	_TM1650_WriteByte
                                           ;;unsigned compare: left < lit(0x3E7=999), size=2
                                           ;	.line	784; "MC32F7361.c"	if (set_time_delay_cnt >= 1000 - 1)
                                           	MOVAI	0x03
                                           	RSUBAR	(_set_time_delay_cnt + 1)
                                           	JBSET	PFLAG,2
                                           	GOTO	_00851_DS_
                                           	MOVAI	0xe7
                                           	RSUBAR	_set_time_delay_cnt
                                           _00851_DS_
                                           	JBSET	PFLAG,0
                                           	GOTO	_00794_DS_
                                           ;;genSkipc:3291: created from rifx:013B5EFC
                                           ;	.line	786; "MC32F7361.c"	set_time_delay_cnt = 0;
                                           	CLRR	_set_time_delay_cnt
                                           	CLRR	(_set_time_delay_cnt + 1)
                                           ;;unsigned compare: left < lit(0x1388=5000), size=2
                                           _00794_DS_
                                           ;	.line	790; "MC32F7361.c"	if (set_time_done_cnt >= 5000)
                                           	MOVAI	0x13
                                           	RSUBAR	(_set_time_done_cnt + 1)
                                           	JBSET	PFLAG,2
                                           	GOTO	_00852_DS_
                                           	MOVAI	0x88
                                           	RSUBAR	_set_time_done_cnt
                                           _00852_DS_
                                           	JBSET	PFLAG,0
                                           	GOTO	_00810_DS_
                                           ;;genSkipc:3291: created from rifx:013B5EFC
                                           ;	.line	792; "MC32F7361.c"	cur_status = STATUS_SET_TIME_MIN;
                                           	MOVAI	0x02
                                           	MOVRA	_cur_status
                                           ;	.line	793; "MC32F7361.c"	set_time_done_cnt = 0;
                                           	CLRR	_set_time_done_cnt
                                           	CLRR	(_set_time_done_cnt + 1)
                                           	GOTO	_00810_DS_
                                           _00807_DS_
                                           ;	.line	796; "MC32F7361.c"	else if (STATUS_SET_TIME_MIN == cur_status)
                                           	MOVAR	_cur_status
                                           	XORAI	0x02
                                           	JBSET	PFLAG,2
                                           	GOTO	_00810_DS_
                                           ;;unsigned compare: left < lit(0x1F4=500), size=2
                                           ;	.line	804; "MC32F7361.c"	if (set_time_delay_cnt < 500)
                                           	MOVAI	0x01
                                           	RSUBAR	(_set_time_delay_cnt + 1)
                                           	JBSET	PFLAG,2
                                           	GOTO	_00853_DS_
                                           	MOVAI	0xf4
                                           	RSUBAR	_set_time_delay_cnt
                                           _00853_DS_
                                           	JBCLR	PFLAG,0
                                           	GOTO	_00800_DS_
                                           ;;genSkipc:3291: created from rifx:013B5EFC
                                           ;	.line	806; "MC32F7361.c"	TM1650_DisplayNum(cur_time);
                                           	MOVAR	_cur_time
                                           	MOVRA	STK00
                                           	MOVAR	(_cur_time + 1)
                                           	CALL	_TM1650_DisplayNum
                                           	GOTO	_00801_DS_
                                           _00800_DS_
                                           ;	.line	810; "MC32F7361.c"	TM1650_WriteByte(0x6A, 0x00); // 2
                                           	MOVAI	0x00
                                           	MOVRA	STK00
                                           	MOVAI	0x6a
                                           	CALL	_TM1650_WriteByte
                                           ;	.line	811; "MC32F7361.c"	TM1650_WriteByte(0x68, 0x00); // 1
                                           	MOVAI	0x00
                                           	MOVRA	STK00
                                           	MOVAI	0x68
                                           	CALL	_TM1650_WriteByte
                                           ;;unsigned compare: left < lit(0x3E7=999), size=2
                                           ;	.line	813; "MC32F7361.c"	if (set_time_delay_cnt >= 1000 - 1)
                                           	MOVAI	0x03
                                           	RSUBAR	(_set_time_delay_cnt + 1)
                                           	JBSET	PFLAG,2
                                           	GOTO	_00854_DS_
                                           	MOVAI	0xe7
                                           	RSUBAR	_set_time_delay_cnt
                                           _00854_DS_
                                           	JBSET	PFLAG,0
                                           	GOTO	_00801_DS_
                                           ;;genSkipc:3291: created from rifx:013B5EFC
                                           ;	.line	815; "MC32F7361.c"	set_time_delay_cnt = 0;
                                           	CLRR	_set_time_delay_cnt
                                           	CLRR	(_set_time_delay_cnt + 1)
                                           ;;unsigned compare: left < lit(0x1388=5000), size=2
                                           _00801_DS_
                                           ;	.line	819; "MC32F7361.c"	if (set_time_done_cnt >= 5000)
                                           	MOVAI	0x13
                                           	RSUBAR	(_set_time_done_cnt + 1)
                                           	JBSET	PFLAG,2
                                           	GOTO	_00855_DS_
                                           	MOVAI	0x88
                                           	RSUBAR	_set_time_done_cnt
                                           _00855_DS_
                                           	JBSET	PFLAG,0
                                           	GOTO	_00810_DS_
                                           ;;genSkipc:3291: created from rifx:013B5EFC
                                           ;	.line	821; "MC32F7361.c"	cur_status = STATUS_NONE;
                                           	CLRR	_cur_status
                                           ;	.line	822; "MC32F7361.c"	set_time_done_cnt = 0;
                                           	CLRR	_set_time_done_cnt
                                           	CLRR	(_set_time_done_cnt + 1)
                                           	GOTO	_00810_DS_
                                           ;	.line	826; "MC32F7361.c"	}
                                           	RETURN	
                                           ; exit point of _main
                                           
                                           ;***
                                           ;  pBlock Stats: dbName = C
                                           ;***
                                           ;entry:  _TM1650_DisplayNum	;Function start
                                           ; 2 exit points
                                           ;has an exit
                                           ;functions called:
                                           ;   __divuint
                                           ;   __moduint
                                           ;   __divuint
                                           ;   __moduint
                                           ;   __divuint
                                           ;   __moduint
                                           ;   _TM1650_DisplayBit
                                           ;   _TM1650_DisplayBit
                                           ;   _TM1650_DisplayBit
                                           ;   _TM1650_DisplayBit
                                           ;   __divuint
                                           ;   __moduint
                                           ;   __divuint
                                           ;   __moduint
                                           ;   __divuint
                                           ;   __moduint
                                           ;   _TM1650_DisplayBit
                                           ;   _TM1650_DisplayBit
                                           ;   _TM1650_DisplayBit
                                           ;   _TM1650_DisplayBit
                                           ;10 compiler assigned registers:
                                           ;   r0x1034
                                           ;   STK00
                                           ;   r0x1035
                                           ;   STK02
                                           ;   STK01
                                           ;   r0x1036
                                           ;   r0x1037
                                           ;   r0x1038
                                           ;   r0x1039
                                           ;   r0x103A
                                           ;; Starting pCode block
                                           _TM1650_DisplayNum	;Function start
                                           ; 2 exit points
                                           ;	.line	732; "MC32F7361.c"	void TM1650_DisplayNum(uint16_t num)
                                           	MOVRA	r0x1034
                                           	MOVAR	STK00
                                           	MOVRA	r0x1035
                                           ;;swapping arguments (AOP_TYPEs 1/2)
                                           ;;unsigned compare: left >= lit(0x2710=10000), size=2
                                           ;	.line	736; "MC32F7361.c"	if (num > 9999)
                                           	MOVAI	0x27
                                           	RSUBAR	r0x1034
                                           	JBSET	PFLAG,2
                                           	GOTO	_00785_DS_
                                           	MOVAI	0x10
                                           	RSUBAR	r0x1035
                                           _00785_DS_
                                           	JBSET	PFLAG,0
                                           	GOTO	_00778_DS_
                                           ;;genSkipc:3291: created from rifx:013B5EFC
                                           ;	.line	737; "MC32F7361.c"	return; // 
                                           	GOTO	_00779_DS_
                                           _00778_DS_
                                           ;	.line	740; "MC32F7361.c"	thousand = num / 1000;
                                           	MOVAI	0xe8
                                           	MOVRA	STK02
                                           	MOVAI	0x03
                                           	MOVRA	STK01
                                           	MOVAR	r0x1035
                                           	MOVRA	STK00
                                           	MOVAR	r0x1034
                                           	CALL	__divuint
                                           	MOVRA	r0x1036
                                           	MOVAR	STK00
                                           	MOVRA	r0x1038
                                           	MOVRA	r0x1037
                                           ;;116	MOVAR	r0x1037
                                           ;	.line	741; "MC32F7361.c"	hundred = (num % 1000) / 100;
                                           	MOVAI	0xe8
                                           	MOVRA	STK02
                                           	MOVAI	0x03
                                           	MOVRA	STK01
                                           	MOVAR	r0x1035
                                           	MOVRA	STK00
                                           	MOVAR	r0x1034
                                           	CALL	__moduint
                                           	MOVRA	r0x1036
                                           	MOVAR	STK00
                                           	MOVRA	r0x1037
                                           	MOVAI	0x64
                                           	MOVRA	STK02
                                           	MOVAI	0x00
                                           	MOVRA	STK01
                                           	MOVAR	r0x1037
                                           	MOVRA	STK00
                                           	MOVAR	r0x1036
                                           	CALL	__divuint
                                           	MOVRA	r0x1036
                                           	MOVAR	STK00
                                           	MOVRA	r0x1039
                                           	MOVRA	r0x1037
                                           ;;115	MOVAR	r0x1037
                                           ;	.line	742; "MC32F7361.c"	decade = (num % 100) / 10;
                                           	MOVAI	0x64
                                           	MOVRA	STK02
                                           	MOVAI	0x00
                                           	MOVRA	STK01
                                           	MOVAR	r0x1035
                                           	MOVRA	STK00
                                           	MOVAR	r0x1034
                                           	CALL	__moduint
                                           	MOVRA	r0x1036
                                           	MOVAR	STK00
                                           	MOVRA	r0x1037
                                           	MOVAI	0x0a
                                           	MOVRA	STK02
                                           	MOVAI	0x00
                                           	MOVRA	STK01
                                           	MOVAR	r0x1037
                                           	MOVRA	STK00
                                           	MOVAR	r0x1036
                                           	CALL	__divuint
                                           	MOVRA	r0x1036
                                           	MOVAR	STK00
                                           	MOVRA	r0x103A
                                           	MOVRA	r0x1037
                                           ;;112	MOVAR	r0x1037
                                           ;	.line	743; "MC32F7361.c"	unit = num % 10;
                                           	MOVAI	0x0a
                                           	MOVRA	STK02
                                           	MOVAI	0x00
                                           	MOVRA	STK01
                                           	MOVAR	r0x1035
                                           	MOVRA	STK00
                                           	MOVAR	r0x1034
                                           	CALL	__moduint
                                           	MOVRA	r0x1034
                                           	MOVAR	STK00
                                           	MOVRA	r0x1037
                                           	MOVRA	r0x1035
                                           ;;111	MOVAR	r0x1035
                                           ;	.line	746; "MC32F7361.c"	TM1650_DisplayBit(4, thousand);
                                           	MOVAR	r0x1038
                                           	MOVRA	STK00
                                           	MOVAI	0x04
                                           	CALL	_TM1650_DisplayBit
                                           ;	.line	747; "MC32F7361.c"	TM1650_DisplayBit(3, hundred);
                                           	MOVAR	r0x1039
                                           	MOVRA	STK00
                                           	MOVAI	0x03
                                           	CALL	_TM1650_DisplayBit
                                           ;	.line	748; "MC32F7361.c"	TM1650_DisplayBit(2, decade);
                                           	MOVAR	r0x103A
                                           	MOVRA	STK00
                                           	MOVAI	0x02
                                           	CALL	_TM1650_DisplayBit
                                           ;	.line	749; "MC32F7361.c"	TM1650_DisplayBit(1, unit);
                                           	MOVAR	r0x1037
                                           	MOVRA	STK00
                                           	MOVAI	0x01
                                           	CALL	_TM1650_DisplayBit
                                           _00779_DS_
                                           ;	.line	750; "MC32F7361.c"	}
                                           	RETURN	
                                           ; exit point of _TM1650_DisplayNum
                                           
                                           ;***
                                           ;  pBlock Stats: dbName = C
                                           ;***
                                           ;entry:  _TM1650_DisplayBit	;Function start
                                           ; 2 exit points
                                           ;has an exit
                                           ;functions called:
                                           ;   __gptrget1
                                           ;   _TM1650_WriteByte
                                           ;   __gptrget1
                                           ;   _TM1650_WriteByte
                                           ;6 compiler assigned registers:
                                           ;   r0x1030
                                           ;   STK00
                                           ;   r0x1031
                                           ;   r0x1032
                                           ;   STK01
                                           ;   r0x1033
                                           ;; Starting pCode block
                                           _TM1650_DisplayBit	;Function start
                                           ; 2 exit points
                                           	MOVRA	r0x1032
                                           ;	.line	717; "MC32F7361.c"	void TM1650_DisplayBit(uint8_t pos, uint8_t num)
                                           	MOVRA	r0x1030
                                           	MOVAR	STK00
                                           	MOVRA	r0x1031
                                           ;;110	MOVAR	r0x1030
                                           ;	.line	725; "MC32F7361.c"	addr = 0x68 + (pos - 1) * 2;
                                           	DECAR	r0x1032
                                           	MOVRA	r0x1030
                                           	BCLR	PFLAG,0
                                           	RLAR	r0x1030
                                           	MOVRA	r0x1032
                                           	MOVAI	0x68
                                           	ADDAR	r0x1032
                                           	MOVRA	r0x1030
                                           ;	.line	728; "MC32F7361.c"	TM1650_WriteByte(addr, NUM_TABLE[num]);
                                           	MOVAR	r0x1031
                                           	ADDAI	(_NUM_TABLE + 0)
                                           	MOVRA	r0x1031
                                           	MOVAI	high (_NUM_TABLE + 0)
                                           	JBCLR	PFLAG,0
                                           	ADDAI	0x01
                                           	MOVRA	r0x1032
                                           	MOVAR	r0x1031
                                           	MOVRA	STK01
                                           	MOVAR	r0x1032
                                           	MOVRA	STK00
                                           	MOVAI	0x80
                                           	CALL	__gptrget1
                                           	MOVRA	r0x1033
                                           	MOVAR	r0x1033
                                           	MOVRA	STK00
                                           	MOVAR	r0x1030
                                           	CALL	_TM1650_WriteByte
                                           ;	.line	729; "MC32F7361.c"	}
                                           	RETURN	
                                           ; exit point of _TM1650_DisplayBit
                                           
                                           ;***
                                           ;  pBlock Stats: dbName = C
                                           ;***
                                           ;entry:  _TM1650_Init	;Function start
                                           ; 2 exit points
                                           ;has an exit
                                           ;functions called:
                                           ;   _bsp_i2c_init
                                           ;   _TM1650_WriteByte
                                           ;   _TM1650_WriteByte
                                           ;   _TM1650_Clear
                                           ;   _bsp_i2c_init
                                           ;   _TM1650_WriteByte
                                           ;   _TM1650_WriteByte
                                           ;   _TM1650_Clear
                                           ;1 compiler assigned register :
                                           ;   STK00
                                           ;; Starting pCode block
                                           _TM1650_Init	;Function start
                                           ; 2 exit points
                                           ;	.line	704; "MC32F7361.c"	bsp_i2c_init();
                                           	CALL	_bsp_i2c_init
                                           ;	.line	707; "MC32F7361.c"	TM1650_WriteByte(0x48, 0x01); // 
                                           	MOVAI	0x01
                                           	MOVRA	STK00
                                           	MOVAI	0x48
                                           	CALL	_TM1650_WriteByte
                                           ;	.line	710; "MC32F7361.c"	TM1650_WriteByte(0x48, TM1650_DISPLAY_ON | TM1650_BRIGHT_MAX);
                                           	MOVAI	0x71
                                           	MOVRA	STK00
                                           	MOVAI	0x48
                                           	CALL	_TM1650_WriteByte
                                           ;	.line	713; "MC32F7361.c"	TM1650_Clear();
                                           	CALL	_TM1650_Clear
                                           ;	.line	714; "MC32F7361.c"	}
                                           	RETURN	
                                           ; exit point of _TM1650_Init
                                           
                                           ;***
                                           ;  pBlock Stats: dbName = C
                                           ;***
                                           ;entry:  _TM1650_Clear	;Function start
                                           ; 2 exit points
                                           ;has an exit
                                           ;functions called:
                                           ;   _TM1650_WriteByte
                                           ;   _TM1650_WriteByte
                                           ;   _TM1650_WriteByte
                                           ;   _TM1650_WriteByte
                                           ;   _TM1650_WriteByte
                                           ;   _TM1650_WriteByte
                                           ;   _TM1650_WriteByte
                                           ;   _TM1650_WriteByte
                                           ;1 compiler assigned register :
                                           ;   STK00
                                           ;; Starting pCode block
                                           _TM1650_Clear	;Function start
                                           ; 2 exit points
                                           ;	.line	695; "MC32F7361.c"	TM1650_WriteByte(0x68, 0x00); // 1
                                           	MOVAI	0x00
                                           	MOVRA	STK00
                                           	MOVAI	0x68
                                           	CALL	_TM1650_WriteByte
                                           ;	.line	696; "MC32F7361.c"	TM1650_WriteByte(0x6A, 0x00); // 2
                                           	MOVAI	0x00
                                           	MOVRA	STK00
                                           	MOVAI	0x6a
                                           	CALL	_TM1650_WriteByte
                                           ;	.line	697; "MC32F7361.c"	TM1650_WriteByte(0x6C, 0x00); // 3
                                           	MOVAI	0x00
                                           	MOVRA	STK00
                                           	MOVAI	0x6c
                                           	CALL	_TM1650_WriteByte
                                           ;	.line	698; "MC32F7361.c"	TM1650_WriteByte(0x6E, 0x00); // 4
                                           	MOVAI	0x00
                                           	MOVRA	STK00
                                           	MOVAI	0x6e
                                           	CALL	_TM1650_WriteByte
                                           ;	.line	699; "MC32F7361.c"	}
                                           	RETURN	
                                           ; exit point of _TM1650_Clear
                                           
                                           ;***
                                           ;  pBlock Stats: dbName = C
                                           ;***
                                           ;entry:  _TM1650_WriteByte	;Function start
                                           ; 2 exit points
                                           ;has an exit
                                           ;functions called:
                                           ;   _bsp_i2c_start
                                           ;   _bsp_i2c_tx_byte
                                           ;   _bsp_i2c_rx_ack
                                           ;   _bsp_i2c_tx_byte
                                           ;   _bsp_i2c_rx_ack
                                           ;   _bsp_i2c_stop
                                           ;   _bsp_i2c_start
                                           ;   _bsp_i2c_tx_byte
                                           ;   _bsp_i2c_rx_ack
                                           ;   _bsp_i2c_tx_byte
                                           ;   _bsp_i2c_rx_ack
                                           ;   _bsp_i2c_stop
                                           ;3 compiler assigned registers:
                                           ;   r0x102E
                                           ;   STK00
                                           ;   r0x102F
                                           ;; Starting pCode block
                                           _TM1650_WriteByte	;Function start
                                           ; 2 exit points
                                           ;	.line	681; "MC32F7361.c"	void TM1650_WriteByte(uint8_t addr, uint8_t data)
                                           	MOVRA	r0x102E
                                           	MOVAR	STK00
                                           	MOVRA	r0x102F
                                           ;	.line	683; "MC32F7361.c"	bsp_i2c_start();
                                           	CALL	_bsp_i2c_start
                                           ;	.line	684; "MC32F7361.c"	bsp_i2c_tx_byte(addr);
                                           	MOVAR	r0x102E
                                           	CALL	_bsp_i2c_tx_byte
                                           ;	.line	685; "MC32F7361.c"	bsp_i2c_rx_ack();
                                           	CALL	_bsp_i2c_rx_ack
                                           ;	.line	686; "MC32F7361.c"	bsp_i2c_tx_byte(data);
                                           	MOVAR	r0x102F
                                           	CALL	_bsp_i2c_tx_byte
                                           ;	.line	687; "MC32F7361.c"	bsp_i2c_rx_ack();
                                           	CALL	_bsp_i2c_rx_ack
                                           ;	.line	688; "MC32F7361.c"	bsp_i2c_stop();
                                           	CALL	_bsp_i2c_stop
                                           ;	.line	689; "MC32F7361.c"	}
                                           	RETURN	
                                           ; exit point of _TM1650_WriteByte
                                           
                                           ;***
                                           ;  pBlock Stats: dbName = C
                                           ;***
                                           ;entry:  _bsp_i2c_stop	;Function start
                                           ; 2 exit points
                                           ;has an exit
                                           ;functions called:
                                           ;   _delay_us
                                           ;   _delay_us
                                           ;   _delay_us
                                           ;   _delay_us
                                           ;; Starting pCode block
                                           _bsp_i2c_stop	;Function start
                                           ; 2 exit points
                                           ;	.line	672; "MC32F7361.c"	I2C_SDA_OUT();
                                           	BSET	_OEP0bits,4
                                           ;	.line	673; "MC32F7361.c"	I2C_SDA_L();
                                           	BCLR	_IOP0bits,4
                                           ;	.line	674; "MC32F7361.c"	delay_us(5);
                                           	MOVAI	0x05
                                           	CALL	_delay_us
                                           ;	.line	675; "MC32F7361.c"	I2C_SCL_H();
                                           	BSET	_IOP1bits,1
                                           ;	.line	676; "MC32F7361.c"	delay_us(5);
                                           	MOVAI	0x05
                                           	CALL	_delay_us
                                           ;	.line	677; "MC32F7361.c"	I2C_SDA_H();
                                           	BSET	_IOP0bits,4
                                           ;	.line	678; "MC32F7361.c"	}
                                           	RETURN	
                                           ; exit point of _bsp_i2c_stop
                                           
                                           ;***
                                           ;  pBlock Stats: dbName = C
                                           ;***
                                           ;entry:  _bsp_i2c_rx_ack	;Function start
                                           ; 2 exit points
                                           ;has an exit
                                           ;functions called:
                                           ;   _delay_us
                                           ;   _delay_us
                                           ;   _delay_us
                                           ;   _delay_us
                                           ;1 compiler assigned register :
                                           ;   r0x102B
                                           ;; Starting pCode block
                                           _bsp_i2c_rx_ack	;Function start
                                           ; 2 exit points
                                           ;	.line	657; "MC32F7361.c"	u8 ret = 0;
                                           	CLRR	r0x102B
                                           ;	.line	658; "MC32F7361.c"	I2C_SDA_IN();
                                           	BCLR	_OEP0bits,4
                                           ;	.line	659; "MC32F7361.c"	delay_us(5);
                                           	MOVAI	0x05
                                           	CALL	_delay_us
                                           ;	.line	660; "MC32F7361.c"	I2C_SCL_H();
                                           	BSET	_IOP1bits,1
                                           ;	.line	661; "MC32F7361.c"	delay_us(5);
                                           	MOVAI	0x05
                                           	CALL	_delay_us
                                           ;	.line	662; "MC32F7361.c"	if (!I2C_SDA_IS_H())
                                           	JBCLR	_IOP0bits,4
                                           	GOTO	_00752_DS_
                                           ;	.line	665; "MC32F7361.c"	ret = 1;
                                           	MOVAI	0x01
                                           	MOVRA	r0x102B
                                           _00752_DS_
                                           ;	.line	667; "MC32F7361.c"	I2C_SCL_L();
                                           	BCLR	_IOP1bits,1
                                           ;	.line	668; "MC32F7361.c"	return ret;
                                           	MOVAR	r0x102B
                                           ;	.line	669; "MC32F7361.c"	}
                                           	RETURN	
                                           ; exit point of _bsp_i2c_rx_ack
                                           
                                           ;***
                                           ;  pBlock Stats: dbName = C
                                           ;***
                                           ;entry:  _bsp_i2c_tx_byte	;Function start
                                           ; 2 exit points
                                           ;has an exit
                                           ;functions called:
                                           ;   _delay_us
                                           ;   _delay_us
                                           ;   _delay_us
                                           ;   _delay_us
                                           ;3 compiler assigned registers:
                                           ;   r0x102B
                                           ;   r0x102C
                                           ;   r0x102D
                                           ;; Starting pCode block
                                           _bsp_i2c_tx_byte	;Function start
                                           ; 2 exit points
                                           ;	.line	633; "MC32F7361.c"	void bsp_i2c_tx_byte(uint8_t dat)
                                           	MOVRA	r0x102B
                                           ;	.line	636; "MC32F7361.c"	I2C_SDA_OUT();
                                           	BSET	_OEP0bits,4
                                           ;	.line	637; "MC32F7361.c"	for (i = 0; i < 8; i++)
                                           	CLRR	r0x102C
                                           _00746_DS_
                                           ;	.line	639; "MC32F7361.c"	if (dat & 0x80)
                                           	JBSET	r0x102B,7
                                           	GOTO	_00743_DS_
                                           ;	.line	641; "MC32F7361.c"	I2C_SDA_H();
                                           	BSET	_IOP0bits,4
                                           	GOTO	_00744_DS_
                                           _00743_DS_
                                           ;	.line	645; "MC32F7361.c"	I2C_SDA_L();
                                           	BCLR	_IOP0bits,4
                                           _00744_DS_
                                           ;	.line	647; "MC32F7361.c"	delay_us(5);
                                           	MOVAI	0x05
                                           	CALL	_delay_us
                                           ;	.line	648; "MC32F7361.c"	I2C_SCL_H();
                                           	BSET	_IOP1bits,1
                                           ;	.line	649; "MC32F7361.c"	delay_us(5);
                                           	MOVAI	0x05
                                           	CALL	_delay_us
                                           ;	.line	650; "MC32F7361.c"	I2C_SCL_L();
                                           	BCLR	_IOP1bits,1
                                           ;	.line	651; "MC32F7361.c"	dat <<= 1;
                                           	MOVAR	r0x102B
                                           	MOVRA	r0x102D
                                           	BCLR	PFLAG,0
                                           	RLAR	r0x102D
                                           	MOVRA	r0x102B
                                           ;	.line	637; "MC32F7361.c"	for (i = 0; i < 8; i++)
                                           	INCR	r0x102C
                                           ;;unsigned compare: left < lit(0x8=8), size=1
                                           	MOVAI	0x08
                                           	RSUBAR	r0x102C
                                           	JBSET	PFLAG,0
                                           	GOTO	_00746_DS_
                                           ;;genSkipc:3291: created from rifx:013B5EFC
                                           ;	.line	653; "MC32F7361.c"	}
                                           	RETURN	
                                           ; exit point of _bsp_i2c_tx_byte
                                           
                                           ;***
                                           ;  pBlock Stats: dbName = C
                                           ;***
                                           ;entry:  _bsp_i2c_start	;Function start
                                           ; 2 exit points
                                           ;has an exit
                                           ;functions called:
                                           ;   _delay_us
                                           ;   _delay_us
                                           ;   _delay_us
                                           ;   _delay_us
                                           ;; Starting pCode block
                                           _bsp_i2c_start	;Function start
                                           ; 2 exit points
                                           ;	.line	624; "MC32F7361.c"	I2C_SDA_OUT();
                                           	BSET	_OEP0bits,4
                                           ;	.line	625; "MC32F7361.c"	I2C_SCL_OUT();
                                           	BSET	_OEP1bits,1
                                           ;	.line	626; "MC32F7361.c"	I2C_SDA_H();
                                           	BSET	_IOP0bits,4
                                           ;	.line	627; "MC32F7361.c"	I2C_SCL_H();
                                           	BSET	_IOP1bits,1
                                           ;	.line	628; "MC32F7361.c"	delay_us(5);
                                           	MOVAI	0x05
                                           	CALL	_delay_us
                                           ;	.line	629; "MC32F7361.c"	I2C_SDA_L();
                                           	BCLR	_IOP0bits,4
                                           ;	.line	630; "MC32F7361.c"	delay_us(5);
                                           	MOVAI	0x05
                                           	CALL	_delay_us
                                           ;	.line	631; "MC32F7361.c"	I2C_SCL_L();
                                           	BCLR	_IOP1bits,1
                                           ;	.line	632; "MC32F7361.c"	}
                                           	RETURN	
                                           ; exit point of _bsp_i2c_start
                                           
                                           ;***
                                           ;  pBlock Stats: dbName = C
                                           ;***
                                           ;entry:  _bsp_i2c_init	;Function start
                                           ; 2 exit points
                                           ;has an exit
                                           ;functions called:
                                           ;   _delay_ms
                                           ;   _delay_ms
                                           ;1 compiler assigned register :
                                           ;   STK00
                                           ;; Starting pCode block
                                           _bsp_i2c_init	;Function start
                                           ; 2 exit points
                                           ;	.line	617; "MC32F7361.c"	I2C_SDA_OUT();
                                           	BSET	_OEP0bits,4
                                           ;	.line	618; "MC32F7361.c"	I2C_SCL_OUT();
                                           	BSET	_OEP1bits,1
                                           ;	.line	619; "MC32F7361.c"	I2C_SDA_H();
                                           	BSET	_IOP0bits,4
                                           ;	.line	620; "MC32F7361.c"	delay_ms(5);
                                           	MOVAI	0x05
                                           	MOVRA	STK00
                                           	MOVAI	0x00
                                           	CALL	_delay_ms
                                           ;	.line	621; "MC32F7361.c"	}
                                           	RETURN	
                                           ; exit point of _bsp_i2c_init
                                           
                                           ;***
                                           ;  pBlock Stats: dbName = C
                                           ;***
                                           ;entry:  _key_ad_key_event_deal	;Function start
                                           ; 2 exit points
                                           ;has an exit
                                           ;functions called:
                                           ;   _ad_key_event_10ms_isr
                                           ;   __mulchar
                                           ;   __gptrget1
                                           ;   __moduint
                                           ;   __moduint
                                           ;   _ad_key_event_10ms_isr
                                           ;   __mulchar
                                           ;   __gptrget1
                                           ;   __moduint
                                           ;   __moduint
                                           ;6 compiler assigned registers:
                                           ;   STK00
                                           ;   r0x1033
                                           ;   r0x1034
                                           ;   STK01
                                           ;   r0x1035
                                           ;   STK02
                                           ;; Starting pCode block
                                           _key_ad_key_event_deal	;Function start
                                           ; 2 exit points
                                           ;	.line	486; "MC32F7361.c"	if (!flag_10ms)
                                           	JBCLR	_flag1,0
                                           	GOTO	_00578_DS_
                                           ;	.line	487; "MC32F7361.c"	return;
                                           	GOTO	_00621_DS_
                                           _00578_DS_
                                           ;	.line	489; "MC32F7361.c"	flag_10ms = 0;
                                           	BCLR	_flag1,0
                                           ;	.line	491; "MC32F7361.c"	ad_key_event_10ms_isr();
                                           	CALL	_ad_key_event_10ms_isr
                                           ;;unsigned compare: left < lit(0x6=6), size=1
                                           ;	.line	505; "MC32F7361.c"	if (cur_key_id < AD_KEY_ID_NONE && ad_key_event != KEY_EVENT_NONE)
                                           	MOVAI	0x06
                                           	RSUBAR	_cur_key_id
                                           	JBCLR	PFLAG,0
                                           	GOTO	_00621_DS_
                                           ;;genSkipc:3291: created from rifx:013B5EFC
                                           	MOVAR	_ad_key_event
                                           	XORAI	0x03
                                           	JBSET	PFLAG,2
                                           	GOTO	_00716_DS_
                                           	GOTO	_00621_DS_
                                           _00716_DS_
                                           ;	.line	510; "MC32F7361.c"	switch (key_event_table[cur_key_id][ad_key_event])
                                           	MOVAI	0x03
                                           	MOVRA	STK00
                                           	MOVAR	_cur_key_id
                                           	CALL	__mulchar
                                           	MOVRA	r0x1033
                                           	MOVAR	r0x1033
                                           	ADDAI	(_key_event_table + 0)
                                           	MOVRA	r0x1033
                                           	MOVAI	high (_key_event_table + 0)
                                           	JBCLR	PFLAG,0
                                           	ADDAI	0x01
                                           	MOVRA	r0x1034
                                           	MOVAR	_ad_key_event
                                           	ADDRA	r0x1033
                                           	MOVAR	r0x1034
                                           	JBCLR	PFLAG,0
                                           	ADDAI	0x01
                                           	MOVRA	r0x1034
                                           	MOVAR	r0x1033
                                           	MOVRA	STK01
                                           	MOVAR	r0x1034
                                           	MOVRA	STK00
                                           	MOVAI	0x80
                                           	CALL	__gptrget1
                                           	MOVRA	r0x1035
                                           	MOVAR	r0x1035
                                           	XORAI	0x01
                                           	JBSET	PFLAG,2
                                           	GOTO	_00717_DS_
                                           	GOTO	_00582_DS_
                                           _00717_DS_
                                           	MOVAR	r0x1035
                                           	XORAI	0x02
                                           	JBSET	PFLAG,2
                                           	GOTO	_00718_DS_
                                           	GOTO	_00617_DS_
                                           _00718_DS_
                                           	MOVAR	r0x1035
                                           	XORAI	0x03
                                           	JBSET	PFLAG,2
                                           	GOTO	_00719_DS_
                                           	GOTO	_00617_DS_
                                           _00719_DS_
                                           	MOVAR	r0x1035
                                           	XORAI	0x05
                                           	JBSET	PFLAG,2
                                           	GOTO	_00720_DS_
                                           	GOTO	_00617_DS_
                                           _00720_DS_
                                           	MOVAR	r0x1035
                                           	XORAI	0x08
                                           	JBSET	PFLAG,2
                                           	GOTO	_00721_DS_
                                           	GOTO	_00589_DS_
                                           _00721_DS_
                                           	MOVAR	r0x1035
                                           	XORAI	0x09
                                           	JBSET	PFLAG,2
                                           	GOTO	_00722_DS_
                                           	GOTO	_00592_DS_
                                           _00722_DS_
                                           	MOVAR	r0x1035
                                           	XORAI	0x0b
                                           	JBSET	PFLAG,2
                                           	GOTO	_00723_DS_
                                           	GOTO	_00617_DS_
                                           _00723_DS_
                                           	MOVAR	r0x1035
                                           	XORAI	0x0c
                                           	JBSET	PFLAG,2
                                           	GOTO	_00724_DS_
                                           	GOTO	_00617_DS_
                                           _00724_DS_
                                           	MOVAR	r0x1035
                                           	XORAI	0x0e
                                           	JBSET	PFLAG,2
                                           	GOTO	_00725_DS_
                                           	GOTO	_00617_DS_
                                           _00725_DS_
                                           	MOVAR	r0x1035
                                           	XORAI	0x0f
                                           	JBSET	PFLAG,2
                                           	GOTO	_00726_DS_
                                           	GOTO	_00605_DS_
                                           _00726_DS_
                                           	GOTO	_00617_DS_
                                           _00582_DS_
                                           ;	.line	516; "MC32F7361.c"	if (flag_is_ble_open)
                                           	JBSET	_flag1,1
                                           	GOTO	_00584_DS_
                                           ;	.line	518; "MC32F7361.c"	BLE_CTL_PIN_IN();
                                           	BCLR	_OEP1bits,7
                                           ;	.line	519; "MC32F7361.c"	flag_is_ble_open = 0;
                                           	BCLR	_flag1,1
                                           	GOTO	_00617_DS_
                                           _00584_DS_
                                           ;	.line	523; "MC32F7361.c"	BLE_CTL_PIN_OUT();
                                           	BSET	_OEP1bits,7
                                           ;	.line	524; "MC32F7361.c"	BLE_CTL_PIN_LOW(); // 
                                           	BCLR	_IOP1bits,7
                                           ;	.line	525; "MC32F7361.c"	flag_is_ble_open = 1;
                                           	BSET	_flag1,1
                                           ;	.line	528; "MC32F7361.c"	break;
                                           	GOTO	_00617_DS_
                                           _00589_DS_
                                           ;	.line	544; "MC32F7361.c"	set_time_hold_cnt++;
                                           	INCR	_set_time_hold_cnt
                                           ;;unsigned compare: left < lit(0xDC=220), size=1
                                           ;	.line	545; "MC32F7361.c"	if (set_time_hold_cnt >= 220)
                                           	MOVAI	0xdc
                                           	RSUBAR	_set_time_hold_cnt
                                           	JBSET	PFLAG,0
                                           	GOTO	_00617_DS_
                                           ;;genSkipc:3291: created from rifx:013B5EFC
                                           ;	.line	547; "MC32F7361.c"	set_time_hold_cnt = 0;
                                           	CLRR	_set_time_hold_cnt
                                           ;	.line	548; "MC32F7361.c"	cur_status = STATUS_SET_TIME_HOUR;
                                           	MOVAI	0x01
                                           	MOVRA	_cur_status
                                           ;	.line	551; "MC32F7361.c"	break;
                                           	GOTO	_00617_DS_
                                           _00592_DS_
                                           ;	.line	555; "MC32F7361.c"	set_time_done_cnt = 0;
                                           	CLRR	_set_time_done_cnt
                                           	CLRR	(_set_time_done_cnt + 1)
                                           ;	.line	556; "MC32F7361.c"	if (STATUS_SET_TIME_HOUR == cur_status)
                                           	MOVAR	_cur_status
                                           	XORAI	0x01
                                           	JBSET	PFLAG,2
                                           	GOTO	_00600_DS_
                                           ;;unsigned compare: left < lit(0x8FC=2300), size=2
                                           ;	.line	558; "MC32F7361.c"	if (cur_time < 2300)
                                           	MOVAI	0x08
                                           	RSUBAR	(_cur_time + 1)
                                           	JBSET	PFLAG,2
                                           	GOTO	_00728_DS_
                                           	MOVAI	0xfc
                                           	RSUBAR	_cur_time
                                           _00728_DS_
                                           	JBCLR	PFLAG,0
                                           	GOTO	_00617_DS_
                                           ;;genSkipc:3291: created from rifx:013B5EFC
                                           ;	.line	559; "MC32F7361.c"	cur_time += 100;
                                           	MOVAI	0x64
                                           	ADDRA	_cur_time
                                           	JBCLR	PFLAG,0
                                           	INCR	(_cur_time + 1)
                                           	GOTO	_00617_DS_
                                           _00600_DS_
                                           ;	.line	561; "MC32F7361.c"	else if (STATUS_SET_TIME_MIN == cur_status)
                                           	MOVAR	_cur_status
                                           	XORAI	0x02
                                           	JBSET	PFLAG,2
                                           	GOTO	_00617_DS_
                                           ;	.line	563; "MC32F7361.c"	if ((cur_time % 100) < 59)
                                           	MOVAI	0x64
                                           	MOVRA	STK02
                                           	MOVAI	0x00
                                           	MOVRA	STK01
                                           	MOVAR	_cur_time
                                           	MOVRA	STK00
                                           	MOVAR	(_cur_time + 1)
                                           	CALL	__moduint
                                           	MOVRA	r0x1034
                                           	MOVAR	STK00
                                           	MOVRA	r0x1033
                                           ;;unsigned compare: left < lit(0x3B=59), size=2
                                           	MOVAI	0x00
                                           	RSUBAR	r0x1034
                                           	JBSET	PFLAG,2
                                           	GOTO	_00729_DS_
                                           	MOVAI	0x3b
                                           	RSUBAR	r0x1033
                                           _00729_DS_
                                           	JBCLR	PFLAG,0
                                           	GOTO	_00617_DS_
                                           ;;genSkipc:3291: created from rifx:013B5EFC
                                           ;	.line	565; "MC32F7361.c"	cur_time++;
                                           	INCR	_cur_time
                                           	JBCLR	PFLAG,2
                                           	INCR	(_cur_time + 1)
                                           ;	.line	569; "MC32F7361.c"	break;
                                           	GOTO	_00617_DS_
                                           _00605_DS_
                                           ;	.line	585; "MC32F7361.c"	set_time_done_cnt = 0;
                                           	CLRR	_set_time_done_cnt
                                           	CLRR	(_set_time_done_cnt + 1)
                                           ;	.line	586; "MC32F7361.c"	if (STATUS_SET_TIME_HOUR == cur_status)
                                           	MOVAR	_cur_status
                                           	XORAI	0x01
                                           	JBSET	PFLAG,2
                                           	GOTO	_00613_DS_
                                           ;	.line	588; "MC32F7361.c"	if (cur_time > 0)
                                           	MOVAR	_cur_time
                                           	ORAR	(_cur_time + 1)
                                           	JBCLR	PFLAG,2
                                           	GOTO	_00617_DS_
                                           ;	.line	589; "MC32F7361.c"	cur_time -= 100;
                                           	MOVAI	0x9c
                                           	ADDRA	_cur_time
                                           	JBSET	PFLAG,0
                                           	DECR	(_cur_time + 1)
                                           	GOTO	_00617_DS_
                                           _00613_DS_
                                           ;	.line	591; "MC32F7361.c"	else if (STATUS_SET_TIME_MIN == cur_status)
                                           	MOVAR	_cur_status
                                           	XORAI	0x02
                                           	JBSET	PFLAG,2
                                           	GOTO	_00617_DS_
                                           ;	.line	593; "MC32F7361.c"	if ((cur_time % 100) > 0)
                                           	MOVAI	0x64
                                           	MOVRA	STK02
                                           	MOVAI	0x00
                                           	MOVRA	STK01
                                           	MOVAR	_cur_time
                                           	MOVRA	STK00
                                           	MOVAR	(_cur_time + 1)
                                           	CALL	__moduint
                                           	MOVRA	r0x1034
                                           	MOVAR	STK00
                                           	MOVRA	r0x1033
                                           	MOVAR	r0x1033
                                           	ORAR	r0x1034
                                           	JBCLR	PFLAG,2
                                           	GOTO	_00617_DS_
                                           ;	.line	595; "MC32F7361.c"	cur_time--;
                                           	MOVAI	0xff
                                           	ADDRA	_cur_time
                                           	JBSET	PFLAG,0
                                           	DECR	(_cur_time + 1)
                                           _00617_DS_
                                           ;	.line	609; "MC32F7361.c"	ad_key_event = KEY_EVENT_NONE; // 
                                           	MOVAI	0x03
                                           	MOVRA	_ad_key_event
                                           _00621_DS_
                                           ;	.line	611; "MC32F7361.c"	}
                                           	RETURN	
                                           ; exit point of _key_ad_key_event_deal
                                           
                                           ;***
                                           ;  pBlock Stats: dbName = C
                                           ;***
                                           ;entry:  _ad_key_event_10ms_isr	;Function start
                                           ; 2 exit points
                                           ;has an exit
                                           ;functions called:
                                           ;   _get_key_id
                                           ;   _get_key_id
                                           ;; Starting pCode block
                                           _ad_key_event_10ms_isr	;Function start
                                           ; 2 exit points
                                           ;	.line	437; "MC32F7361.c"	cur_key_id = get_key_id();
                                           	CALL	_get_key_id
                                           	MOVRA	_cur_key_id
                                           ;	.line	442; "MC32F7361.c"	if (last != cur_key_id) //  / 
                                           	MOVAR	_cur_key_id
                                           	XORAR	_ad_key_event_10ms_isr_last_65536_89
                                           	JBSET	PFLAG,2
                                           	GOTO	_00570_DS_
                                           	GOTO	_00538_DS_
                                           _00570_DS_
                                           ;	.line	444; "MC32F7361.c"	if (last == AD_KEY_ID_NONE)
                                           	MOVAR	_ad_key_event_10ms_isr_last_65536_89
                                           	XORAI	0x06
                                           	JBSET	PFLAG,2
                                           	GOTO	_00528_DS_
                                           ;	.line	447; "MC32F7361.c"	count = 0;
                                           	CLRR	_ad_key_event_10ms_isr_count_65536_89
                                           	GOTO	_00539_DS_
                                           _00528_DS_
                                           ;	.line	449; "MC32F7361.c"	else if (cur_key_id == AD_KEY_ID_NONE)
                                           	MOVAR	_cur_key_id
                                           	XORAI	0x06
                                           	JBSET	PFLAG,2
                                           	GOTO	_00539_DS_
                                           ;;unsigned compare: left < lit(0x4B=75), size=1
                                           ;	.line	452; "MC32F7361.c"	if (count < 75)
                                           	MOVAI	0x4b
                                           	RSUBAR	_ad_key_event_10ms_isr_count_65536_89
                                           	JBCLR	PFLAG,0
                                           	GOTO	_00539_DS_
                                           ;;genSkipc:3291: created from rifx:013B5EFC
                                           ;	.line	455; "MC32F7361.c"	ad_key_event = KEY_EVENT_CLICK;
                                           	CLRR	_ad_key_event
                                           	GOTO	_00539_DS_
                                           _00538_DS_
                                           ;	.line	463; "MC32F7361.c"	else if (cur_key_id != AD_KEY_ID_NONE)
                                           	MOVAR	_cur_key_id
                                           	XORAI	0x06
                                           	JBSET	PFLAG,2
                                           	GOTO	_00572_DS_
                                           	GOTO	_00539_DS_
                                           _00572_DS_
                                           ;	.line	466; "MC32F7361.c"	count++;
                                           	INCR	_ad_key_event_10ms_isr_count_65536_89
                                           ;	.line	468; "MC32F7361.c"	if (count == 70)
                                           	MOVAR	_ad_key_event_10ms_isr_count_65536_89
                                           	XORAI	0x46
                                           	JBSET	PFLAG,2
                                           	GOTO	_00533_DS_
                                           ;	.line	471; "MC32F7361.c"	ad_key_event = KEY_EVENT_LONG;
                                           	MOVAI	0x01
                                           	MOVRA	_ad_key_event
                                           	GOTO	_00539_DS_
                                           ;;unsigned compare: left < lit(0x50=80), size=1
                                           _00533_DS_
                                           ;	.line	473; "MC32F7361.c"	else if (count >= 70 + 10)
                                           	MOVAI	0x50
                                           	RSUBAR	_ad_key_event_10ms_isr_count_65536_89
                                           	JBSET	PFLAG,0
                                           	GOTO	_00539_DS_
                                           ;;genSkipc:3291: created from rifx:013B5EFC
                                           ;	.line	476; "MC32F7361.c"	ad_key_event = KEY_EVENT_HOLD;
                                           	MOVAI	0x02
                                           	MOVRA	_ad_key_event
                                           ;	.line	477; "MC32F7361.c"	count = 70;
                                           	MOVAI	0x46
                                           	MOVRA	_ad_key_event_10ms_isr_count_65536_89
                                           _00539_DS_
                                           ;	.line	481; "MC32F7361.c"	last = cur_key_id;
                                           	MOVAR	_cur_key_id
                                           	MOVRA	_ad_key_event_10ms_isr_last_65536_89
                                           ;	.line	482; "MC32F7361.c"	}
                                           	RETURN	
                                           ; exit point of _ad_key_event_10ms_isr
                                           
                                           ;***
                                           ;  pBlock Stats: dbName = C
                                           ;***
                                           ;entry:  _get_key_id	;Function start
                                           ; 2 exit points
                                           ;has an exit
                                           ;functions called:
                                           ;   _adc_single_convert
                                           ;   __gptrget1
                                           ;   _adc_single_convert
                                           ;   __gptrget1
                                           ;5 compiler assigned registers:
                                           ;   r0x1030
                                           ;   STK00
                                           ;   r0x1031
                                           ;   STK01
                                           ;   r0x1032
                                           ;; Starting pCode block
                                           _get_key_id	;Function start
                                           ; 2 exit points
                                           ;	.line	422; "MC32F7361.c"	adc_val = adc_single_convert() >> 4;
                                           	CALL	_adc_single_convert
                                           	MOVRA	r0x1030
                                           	MOVAR	STK00
                                           	MOVRA	r0x1031
                                           	SWAPAR	r0x1031
                                           	ANDAI	0x0f
                                           	MOVRA	_adc_val
                                           	SWAPAR	r0x1030
                                           	MOVRA	(_adc_val + 1)
                                           	ANDAI	0xf0
                                           	ORRA	_adc_val
                                           	XORRA	(_adc_val + 1)
                                           ;	.line	423; "MC32F7361.c"	for (i = 0; i < AD_KEY_ID_NONE; i++)
                                           	CLRR	_i
                                           	CLRR	(_i + 1)
                                           _00501_DS_
                                           ;	.line	425; "MC32F7361.c"	if (adc_val <= id_table[i])
                                           	MOVAR	_i
                                           	ADDAI	(_id_table + 0)
                                           	MOVRA	r0x1031
                                           	MOVAI	high (_id_table + 0)
                                           	MOVRA	r0x1030
                                           	MOVAR	(_i + 1)
                                           	JBCLR	PFLAG,0
                                           	JZAR	(_i + 1)
                                           	ADDRA	r0x1030
                                           	MOVAR	r0x1031
                                           	MOVRA	STK01
                                           	MOVAR	r0x1030
                                           	MOVRA	STK00
                                           	MOVAI	0x80
                                           	CALL	__gptrget1
                                           	MOVRA	r0x1031
                                           ;;1	MOVRA	r0x1032
                                           ;;105	MOVAR	r0x1032
                                           	CLRR	r0x1030
                                           	MOVAR	(_adc_val + 1)
                                           	RSUBAR	r0x1030
                                           	JBSET	PFLAG,2
                                           	GOTO	_00517_DS_
                                           	MOVAR	_adc_val
                                           	RSUBAR	r0x1031
                                           _00517_DS_
                                           	JBSET	PFLAG,0
                                           	GOTO	_00502_DS_
                                           ;;genSkipc:3291: created from rifx:013B5EFC
                                           ;	.line	426; "MC32F7361.c"	return i;
                                           	MOVAR	_i
                                           	MOVRA	r0x1031
                                           	MOVAR	r0x1031
                                           	GOTO	_00503_DS_
                                           _00502_DS_
                                           ;	.line	423; "MC32F7361.c"	for (i = 0; i < AD_KEY_ID_NONE; i++)
                                           	INCR	_i
                                           	JBCLR	PFLAG,2
                                           	INCR	(_i + 1)
                                           ;;unsigned compare: left < lit(0x6=6), size=2
                                           	MOVAI	0x00
                                           	RSUBAR	(_i + 1)
                                           	JBSET	PFLAG,2
                                           	GOTO	_00518_DS_
                                           	MOVAI	0x06
                                           	RSUBAR	_i
                                           _00518_DS_
                                           	JBSET	PFLAG,0
                                           	GOTO	_00501_DS_
                                           ;;genSkipc:3291: created from rifx:013B5EFC
                                           ;	.line	428; "MC32F7361.c"	return AD_KEY_ID_NONE;
                                           	MOVAI	0x06
                                           _00503_DS_
                                           ;	.line	429; "MC32F7361.c"	}
                                           	RETURN	
                                           ; exit point of _get_key_id
                                           
                                           ;***
                                           ;  pBlock Stats: dbName = C
                                           ;***
                                           ;entry:  _adc_get_val	;Function start
                                           ; 2 exit points
                                           ;has an exit
                                           ;functions called:
                                           ;   _adc_single_convert
                                           ;   _adc_single_convert
                                           ;5 compiler assigned registers:
                                           ;   STK00
                                           ;   r0x103B
                                           ;   r0x103C
                                           ;   r0x103D
                                           ;   r0x103E
                                           ;; Starting pCode block
                                           _adc_get_val	;Function start
                                           ; 2 exit points
                                           ;	.line	397; "MC32F7361.c"	adc_val_sum = 0;
                                           	CLRR	_adc_val_sum
                                           	CLRR	(_adc_val_sum + 1)
                                           	CLRR	(_adc_val_sum + 2)
                                           	CLRR	(_adc_val_sum + 3)
                                           ;	.line	398; "MC32F7361.c"	get_adcmax = 0;
                                           	CLRR	_get_adcmax
                                           	CLRR	(_get_adcmax + 1)
                                           ;	.line	399; "MC32F7361.c"	get_adcmin = 0xFFFF;
                                           	MOVAI	0xff
                                           	MOVRA	_get_adcmin
                                           	MOVRA	(_get_adcmin + 1)
                                           ;	.line	401; "MC32F7361.c"	for (i = 0; i < 20; i++)
                                           	CLRR	_i
                                           	CLRR	(_i + 1)
                                           _00467_DS_
                                           ;	.line	403; "MC32F7361.c"	adc_val_tmp = adc_single_convert(); // adc
                                           	CALL	_adc_single_convert
                                           	MOVRA	(_adc_val_tmp + 1)
                                           	MOVAR	STK00
                                           	MOVRA	_adc_val_tmp
                                           ;;unsigned compare: left < lit(0x2=2), size=2
                                           ;	.line	404; "MC32F7361.c"	if (i < 2)
                                           	MOVAI	0x00
                                           	RSUBAR	(_i + 1)
                                           	JBSET	PFLAG,2
                                           	GOTO	_00490_DS_
                                           	MOVAI	0x02
                                           	RSUBAR	_i
                                           _00490_DS_
                                           	JBSET	PFLAG,0
                                           	GOTO	_00465_DS_
                                           ;;genSkipc:3291: created from rifx:013B5EFC
                                           ;	.line	406; "MC32F7361.c"	if (adc_val_tmp > get_adcmax)
                                           	MOVAR	(_adc_val_tmp + 1)
                                           	RSUBAR	(_get_adcmax + 1)
                                           	JBSET	PFLAG,2
                                           	GOTO	_00491_DS_
                                           	MOVAR	_adc_val_tmp
                                           	RSUBAR	_get_adcmax
                                           _00491_DS_
                                           	JBCLR	PFLAG,0
                                           	GOTO	_00462_DS_
                                           ;;genSkipc:3291: created from rifx:013B5EFC
                                           ;	.line	407; "MC32F7361.c"	get_adcmax = adc_val_tmp; // 
                                           	MOVAR	_adc_val_tmp
                                           	MOVRA	_get_adcmax
                                           	MOVAR	(_adc_val_tmp + 1)
                                           	MOVRA	(_get_adcmax + 1)
                                           _00462_DS_
                                           ;	.line	408; "MC32F7361.c"	if (adc_val_tmp < get_adcmin)
                                           	MOVAR	(_get_adcmin + 1)
                                           	RSUBAR	(_adc_val_tmp + 1)
                                           	JBSET	PFLAG,2
                                           	GOTO	_00492_DS_
                                           	MOVAR	_get_adcmin
                                           	RSUBAR	_adc_val_tmp
                                           _00492_DS_
                                           	JBCLR	PFLAG,0
                                           	GOTO	_00464_DS_
                                           ;;genSkipc:3291: created from rifx:013B5EFC
                                           ;	.line	409; "MC32F7361.c"	get_adcmin = adc_val_tmp; // 
                                           	MOVAR	_adc_val_tmp
                                           	MOVRA	_get_adcmin
                                           	MOVAR	(_adc_val_tmp + 1)
                                           	MOVRA	(_get_adcmin + 1)
                                           _00464_DS_
                                           ;	.line	410; "MC32F7361.c"	adc_val_sum += adc_val_tmp;
                                           	MOVAR	_adc_val_tmp
                                           	MOVRA	r0x103B
                                           	MOVAR	(_adc_val_tmp + 1)
                                           	MOVRA	r0x103C
                                           	CLRR	r0x103D
                                           	CLRR	r0x103E
                                           	MOVAR	r0x103B
                                           	ADDRA	_adc_val_sum
                                           	MOVAR	r0x103C
                                           	JBCLR	PFLAG,0
                                           	JZAR	r0x103C
                                           	ADDRA	(_adc_val_sum + 1)
                                           	MOVAR	r0x103D
                                           	JBCLR	PFLAG,0
                                           	JZAR	r0x103D
                                           	ADDRA	(_adc_val_sum + 2)
                                           	MOVAR	r0x103E
                                           	JBCLR	PFLAG,0
                                           	JZAR	r0x103E
                                           	ADDRA	(_adc_val_sum + 3)
                                           _00465_DS_
                                           ;	.line	401; "MC32F7361.c"	for (i = 0; i < 20; i++)
                                           	INCR	_i
                                           	JBCLR	PFLAG,2
                                           	INCR	(_i + 1)
                                           ;;unsigned compare: left < lit(0x14=20), size=2
                                           	MOVAI	0x00
                                           	RSUBAR	(_i + 1)
                                           	JBSET	PFLAG,2
                                           	GOTO	_00493_DS_
                                           	MOVAI	0x14
                                           	RSUBAR	_i
                                           _00493_DS_
                                           	JBSET	PFLAG,0
                                           	GOTO	_00467_DS_
                                           ;;genSkipc:3291: created from rifx:013B5EFC
                                           ;	.line	413; "MC32F7361.c"	adc_val_sum -= get_adcmax;        // 
                                           	MOVAR	_get_adcmax
                                           	MOVRA	r0x103B
                                           	MOVAR	(_get_adcmax + 1)
                                           	MOVRA	r0x103C
                                           	CLRR	r0x103D
                                           	CLRR	r0x103E
                                           	MOVAR	r0x103B
                                           	RSUBRA	_adc_val_sum
                                           	MOVAR	r0x103C
                                           	JBSET	PFLAG,0
                                           	JZAR	r0x103C
                                           	RSUBRA	(_adc_val_sum + 1)
                                           	MOVAR	r0x103D
                                           	JBSET	PFLAG,0
                                           	JZAR	r0x103D
                                           	RSUBRA	(_adc_val_sum + 2)
                                           	MOVAR	r0x103E
                                           	JBSET	PFLAG,0
                                           	JZAR	r0x103E
                                           	RSUBRA	(_adc_val_sum + 3)
                                           ;	.line	414; "MC32F7361.c"	adc_val_sum -= get_adcmin;        // 
                                           	MOVAR	_get_adcmin
                                           	MOVRA	r0x103B
                                           	MOVAR	(_get_adcmin + 1)
                                           	MOVRA	r0x103C
                                           	CLRR	r0x103D
                                           	CLRR	r0x103E
                                           	MOVAR	r0x103B
                                           	RSUBRA	_adc_val_sum
                                           	MOVAR	r0x103C
                                           	JBSET	PFLAG,0
                                           	JZAR	r0x103C
                                           	RSUBRA	(_adc_val_sum + 1)
                                           	MOVAR	r0x103D
                                           	JBSET	PFLAG,0
                                           	JZAR	r0x103D
                                           	RSUBRA	(_adc_val_sum + 2)
                                           	MOVAR	r0x103E
                                           	JBSET	PFLAG,0
                                           	JZAR	r0x103E
                                           	RSUBRA	(_adc_val_sum + 3)
                                           ;	.line	415; "MC32F7361.c"	adc_val_tmp = (adc_val_sum >> 4); // 16
                                           	SWAPAR	_adc_val_sum
                                           	ANDAI	0x0f
                                           	MOVRA	r0x103B
                                           	SWAPAR	(_adc_val_sum + 1)
                                           	MOVRA	r0x103C
                                           	ANDAI	0xf0
                                           	ORRA	r0x103B
                                           	XORRA	r0x103C
                                           	SWAPAR	(_adc_val_sum + 2)
                                           	MOVRA	r0x103D
                                           	ANDAI	0xf0
                                           	ORRA	r0x103C
                                           	XORRA	r0x103D
                                           	SWAPAR	(_adc_val_sum + 3)
                                           	MOVRA	r0x103E
                                           	ANDAI	0xf0
                                           	ORRA	r0x103D
                                           	XORRA	r0x103E
                                           	MOVAR	r0x103B
                                           	MOVRA	_adc_val_tmp
                                           	MOVAR	r0x103C
                                           	MOVRA	(_adc_val_tmp + 1)
                                           ;	.line	417; "MC32F7361.c"	return adc_val_tmp;
                                           	MOVAR	_adc_val_tmp
                                           	MOVRA	STK00
                                           	MOVAR	(_adc_val_tmp + 1)
                                           ;	.line	418; "MC32F7361.c"	}
                                           	RETURN	
                                           ; exit point of _adc_get_val
                                           
                                           ;***
                                           ;  pBlock Stats: dbName = C
                                           ;***
                                           ;entry:  _adc_single_convert	;Function start
                                           ; 2 exit points
                                           ;has an exit
                                           ;7 compiler assigned registers:
                                           ;   r0x102A
                                           ;   r0x102B
                                           ;   r0x102C
                                           ;   r0x102D
                                           ;   r0x102E
                                           ;   r0x102F
                                           ;   STK00
                                           ;; Starting pCode block
                                           _adc_single_convert	;Function start
                                           ; 2 exit points
                                           ;	.line	387; "MC32F7361.c"	ADEOC = 0;
                                           	BCLR	_ADCR0bits,1
                                           _00454_DS_
                                           ;	.line	388; "MC32F7361.c"	while (!ADEOC)
                                           	JBSET	_ADCR0bits,1
                                           	GOTO	_00454_DS_
                                           ;	.line	390; "MC32F7361.c"	adc_val_tmp = ADRH;
                                           	MOVAR	_ADRH
                                           	MOVRA	_adc_val_tmp
                                           	CLRR	(_adc_val_tmp + 1)
                                           ;	.line	391; "MC32F7361.c"	adc_val_tmp = adc_val_tmp << 4 | (ADRL & 0x0F);
                                           	SWAPAR	(_adc_val_tmp + 1)
                                           	ANDAI	0xf0
                                           	MOVRA	r0x102A
                                           	SWAPAR	_adc_val_tmp
                                           	MOVRA	r0x102B
                                           	ANDAI	0x0f
                                           	ORRA	r0x102A
                                           	XORRA	r0x102B
                                           	MOVAR	_ADRL
                                           	MOVRA	r0x102C
                                           	CLRR	r0x102D
                                           	MOVAI	0x0f
                                           	ANDRA	r0x102C
                                           	CLRR	r0x102D
                                           ;;101	MOVAR	r0x102C
                                           ;;99	MOVRA	r0x102E
                                           ;;104	MOVAR	r0x102D
                                           ;;102	MOVRA	r0x102F
                                           ;;100	MOVAR	r0x102E
                                           	MOVAR	r0x102C
                                           	ORAR	r0x102B
                                           	MOVRA	_adc_val_tmp
                                           ;;103	MOVAR	r0x102F
                                           	MOVAI	0x00
                                           	ORAR	r0x102A
                                           	MOVRA	(_adc_val_tmp + 1)
                                           ;	.line	392; "MC32F7361.c"	return adc_val_tmp;
                                           	MOVAR	_adc_val_tmp
                                           	MOVRA	STK00
                                           	MOVAR	(_adc_val_tmp + 1)
                                           ;	.line	393; "MC32F7361.c"	}
                                           	RETURN	
                                           ; exit point of _adc_single_convert
                                           
                                           ;***
                                           ;  pBlock Stats: dbName = C
                                           ;***
                                           ;entry:  _adc_channel_sel	;Function start
                                           ; 2 exit points
                                           ;has an exit
                                           ;functions called:
                                           ;   _delay_ms
                                           ;   _delay_ms
                                           ;2 compiler assigned registers:
                                           ;   r0x1030
                                           ;   STK00
                                           ;; Starting pCode block
                                           _adc_channel_sel	;Function start
                                           ; 2 exit points
                                           ;	.line	365; "MC32F7361.c"	void adc_channel_sel(u8 adc_channel)
                                           	MOVRA	r0x1030
                                           ;	.line	367; "MC32F7361.c"	switch (adc_channel)
                                           	MOVAR	r0x1030
                                           	JBSET	PFLAG,2
                                           	GOTO	_00449_DS_
                                           	GOTO	_00436_DS_
                                           _00449_DS_
                                           	MOVAR	r0x1030
                                           	XORAI	0x01
                                           	JBSET	PFLAG,2
                                           	GOTO	_00438_DS_
                                           ;	.line	370; "MC32F7361.c"	ADCR0 = 0x7F; // AN7ADC
                                           	MOVAI	0x7f
                                           	MOVRA	_ADCR0
                                           ;	.line	371; "MC32F7361.c"	ADCR1 = 0x82; // adc == FHIRC/324V
                                           	MOVAI	0x82
                                           	MOVRA	_ADCR1
                                           ;	.line	372; "MC32F7361.c"	break;
                                           	GOTO	_00438_DS_
                                           _00436_DS_
                                           ;	.line	375; "MC32F7361.c"	ADCR0 = 0xAF; // 1/VDDADC
                                           	MOVAI	0xaf
                                           	MOVRA	_ADCR0
                                           ;	.line	376; "MC32F7361.c"	ADCR1 = 0x80; // adc == FHIRC/322V
                                           	MOVAI	0x80
                                           	MOVRA	_ADCR1
                                           _00438_DS_
                                           ;	.line	382; "MC32F7361.c"	delay_ms(1);
                                           	MOVAI	0x01
                                           	MOVRA	STK00
                                           	MOVAI	0x00
                                           	CALL	_delay_ms
                                           ;	.line	383; "MC32F7361.c"	}
                                           	RETURN	
                                           ; exit point of _adc_channel_sel
                                           
                                           ;***
                                           ;  pBlock Stats: dbName = C
                                           ;***
                                           ;entry:  _Sys_Init	;Function start
                                           ; 2 exit points
                                           ;has an exit
                                           ;functions called:
                                           ;   _CLR_RAM
                                           ;   _IO_Init
                                           ;   _adc_config
                                           ;   _TM1650_Init
                                           ;   _pwm_led_config
                                           ;   _timer3_config
                                           ;   _CLR_RAM
                                           ;   _IO_Init
                                           ;   _adc_config
                                           ;   _TM1650_Init
                                           ;   _pwm_led_config
                                           ;   _timer3_config
                                           ;; Starting pCode block
                                           _Sys_Init	;Function start
                                           ; 2 exit points
                                           ;	.line	340; "MC32F7361.c"	GIE = 0;
                                           	BCLR	_MCRbits,7
                                           ;	.line	341; "MC32F7361.c"	CLR_RAM();
                                           	CALL	_CLR_RAM
                                           ;	.line	342; "MC32F7361.c"	IO_Init();
                                           	CALL	_IO_Init
                                           ;	.line	344; "MC32F7361.c"	adc_config();
                                           	CALL	_adc_config
                                           ;	.line	346; "MC32F7361.c"	TM1650_Init();
                                           	CALL	_TM1650_Init
                                           ;	.line	347; "MC32F7361.c"	pwm_led_config();
                                           	CALL	_pwm_led_config
                                           ;	.line	348; "MC32F7361.c"	timer3_config();
                                           	CALL	_timer3_config
                                           ;	.line	351; "MC32F7361.c"	P03PD = 1; // 
                                           	BSET	_PDP0bits,3
                                           ;	.line	352; "MC32F7361.c"	P03OE = 1; // 
                                           	BSET	_OEP0bits,3
                                           ;	.line	355; "MC32F7361.c"	BLE_CTL_PIN_IN();
                                           	BCLR	_OEP1bits,7
                                           ;	.line	357; "MC32F7361.c"	ad_key_event = KEY_EVENT_NONE;
                                           	MOVAI	0x03
                                           	MOVRA	_ad_key_event
                                           ;	.line	358; "MC32F7361.c"	cur_key_id = AD_KEY_ID_NONE;
                                           	MOVAI	0x06
                                           	MOVRA	_cur_key_id
                                           ;	.line	360; "MC32F7361.c"	GIE = 1;
                                           	BSET	_MCRbits,7
                                           ;	.line	361; "MC32F7361.c"	}
                                           	RETURN	
                                           ; exit point of _Sys_Init
                                           
                                           ;***
                                           ;  pBlock Stats: dbName = C
                                           ;***
                                           ;entry:  _example	;Function start
                                           ; 2 exit points
                                           ;has an exit
                                           ;functions called:
                                           ;   _start_send
                                           ;   _start_send
                                           ;5 compiler assigned registers:
                                           ;   r0x1048
                                           ;   r0x1049
                                           ;   r0x104A
                                           ;   STK01
                                           ;   STK00
                                           ;; Starting pCode block
                                           _example	;Function start
                                           ; 2 exit points
                                           ;;gen.c:6570: size=0, offset=0, AOP_TYPE(res)=8
                                           ;	.line	331; "MC32F7361.c"	uint8_t send_buf[SEND_DATA_LEN] = {0x01, 0x02, 0x03};
                                           	MOVAI	0x01
                                           	MOVRA	(_example_send_buf_65536_72 + 0)
                                           ;;gen.c:6570: size=0, offset=0, AOP_TYPE(res)=8
                                           	MOVAI	0x02
                                           	MOVRA	(_example_send_buf_65536_72 + 1)
                                           ;;gen.c:6570: size=0, offset=0, AOP_TYPE(res)=8
                                           	MOVAI	0x03
                                           	MOVRA	(_example_send_buf_65536_72 + 2)
                                           ;	.line	333; "MC32F7361.c"	start_send(send_buf);
                                           	MOVAI	high (_example_send_buf_65536_72 + 0)
                                           	MOVRA	r0x1048
                                           	MOVAI	(_example_send_buf_65536_72 + 0)
                                           	MOVRA	r0x1049
                                           ;;1	CLRR	r0x104A
                                           	MOVAR	r0x1049
                                           	MOVRA	STK01
                                           	MOVAR	r0x1048
                                           	MOVRA	STK00
                                           	MOVAI	0x00
                                           	CALL	_start_send
                                           ;	.line	336; "MC32F7361.c"	}
                                           	RETURN	
                                           ; exit point of _example
                                           
                                           ;***
                                           ;  pBlock Stats: dbName = C
                                           ;***
                                           ;entry:  _timer_100us_isr	;Function start
                                           ; 2 exit points
                                           ;has an exit
                                           ;8 compiler assigned registers:
                                           ;   r0x104B
                                           ;   r0x104C
                                           ;   r0x104D
                                           ;   r0x104E
                                           ;   r0x104F
                                           ;   r0x1050
                                           ;   r0x1051
                                           ;   r0x1052
                                           ;; Starting pCode block
                                           _timer_100us_isr	;Function start
                                           ; 2 exit points
                                           ;	.line	171; "MC32F7361.c"	if (g_state == TX_START || g_state == TX_SENDING_BIT || g_state == TX_SENDING_LOW)
                                           	MOVAR	_g_state
                                           	XORAI	0x01
                                           	JBSET	PFLAG,2
                                           	GOTO	_00393_DS_
                                           	GOTO	_00240_DS_
                                           _00393_DS_
                                           	MOVAR	_g_state
                                           	XORAI	0x02
                                           	JBSET	PFLAG,2
                                           	GOTO	_00394_DS_
                                           	GOTO	_00240_DS_
                                           _00394_DS_
                                           	MOVAR	_g_state
                                           	XORAI	0x03
                                           	JBSET	PFLAG,2
                                           	GOTO	_00241_DS_
                                           ;;unsigned compare: left < lit(0x1=1), size=1
                                           _00240_DS_
                                           ;	.line	173; "MC32F7361.c"	switch (g_state)
                                           	MOVAI	0x01
                                           	RSUBAR	_g_state
                                           	JBSET	PFLAG,0
                                           	GOTO	_00239_DS_
                                           ;;genSkipc:3291: created from rifx:013B5EFC
                                           ;;swapping arguments (AOP_TYPEs 1/3)
                                           ;;unsigned compare: left >= lit(0x4=4), size=1
                                           	MOVAI	0x04
                                           	RSUBAR	_g_state
                                           	JBCLR	PFLAG,0
                                           	GOTO	_00239_DS_
                                           ;;genSkipc:3291: created from rifx:013B5EFC
                                           	DECAR	_g_state
                                           	MOVRA	r0x104B
                                           	MOVAR	r0x104B
                                           	ADDRA	PCL
                                           	GOTO	_00208_DS_
                                           	GOTO	_00211_DS_
                                           	GOTO	_00219_DS_
                                           _00208_DS_
                                           ;	.line	176; "MC32F7361.c"	if (++g_timer_count >= START_SIGNAL_TIME)
                                           	INCR	_g_timer_count
                                           ;;unsigned compare: left < lit(0x64=100), size=1
                                           	MOVAI	0x64
                                           	RSUBAR	_g_timer_count
                                           	JBSET	PFLAG,0
                                           	GOTO	_00239_DS_
                                           ;;genSkipc:3291: created from rifx:013B5EFC
                                           ;	.line	178; "MC32F7361.c"	g_timer_count = 0;
                                           	CLRR	_g_timer_count
                                           ;	.line	179; "MC32F7361.c"	g_state = TX_SENDING_BIT;
                                           	MOVAI	0x02
                                           	MOVRA	_g_state
                                           ;	.line	182; "MC32F7361.c"	break;
                                           	GOTO	_00239_DS_
                                           _00211_DS_
                                           ;	.line	185; "MC32F7361.c"	if (g_data[g_byte_count] & BIT(g_bit_count))
                                           	MOVAR	_g_byte_count
                                           	ADDAI	(_g_data + 0)
                                           	MOVRA	r0x104B
                                           	MOVAI	high (_g_data + 0)
                                           	JBCLR	PFLAG,0
                                           	ADDAI	0x01
                                           	MOVRA	r0x104C
                                           	MOVAR	r0x104B
                                           	MOVRA	FSR0
                                           	MOVAR	r0x104C
                                           	MOVRA	FSR1
                                           	MOVAR	INDF2
                                           	MOVRA	r0x104D
                                           ;;114	MOVAR	_g_bit_count
                                           	MOVAI	0x00
                                           	MOVRA	r0x104E
                                           	MOVAI	0x01
                                           	MOVRA	r0x104F
                                           ;;113	MOVAR	r0x104B
                                           	MOVAR	_g_bit_count
                                           	MOVRA	r0x104B
                                           	ISUBAI	0x00
                                           	JBCLR	PFLAG,2
                                           	GOTO	_00400_DS_
                                           _00399_DS_
                                           	RLR	r0x104F
                                           	RLR	r0x104E
                                           	ADDAI	0x01
                                           	JBSET	PFLAG,0
                                           	GOTO	_00399_DS_
                                           _00400_DS_
                                           	MOVAR	r0x104D
                                           	MOVRA	r0x104B
                                           	CLRR	r0x1050
                                           	MOVAR	r0x104F
                                           	ANDAR	r0x104B
                                           	MOVRA	r0x104D
                                           	MOVAR	r0x104E
                                           	ANDAR	r0x1050
                                           	MOVRA	r0x1051
                                           	MOVAR	r0x104D
                                           	ORAR	r0x1051
                                           	JBCLR	PFLAG,2
                                           	GOTO	_00217_DS_
                                           ;	.line	188; "MC32F7361.c"	if (++g_timer_count >= BIT1_HIGH_TIME)
                                           	INCR	_g_timer_count
                                           ;;unsigned compare: left < lit(0xA=10), size=1
                                           	MOVAI	0x0a
                                           	RSUBAR	_g_timer_count
                                           	JBSET	PFLAG,0
                                           	GOTO	_00239_DS_
                                           ;;genSkipc:3291: created from rifx:013B5EFC
                                           ;	.line	190; "MC32F7361.c"	g_timer_count = 0;
                                           	CLRR	_g_timer_count
                                           ;	.line	191; "MC32F7361.c"	g_state = TX_SENDING_LOW;
                                           	MOVAI	0x03
                                           	MOVRA	_g_state
                                           	GOTO	_00239_DS_
                                           _00217_DS_
                                           ;	.line	198; "MC32F7361.c"	if (++g_timer_count >= BIT0_HIGH_TIME)
                                           	INCR	_g_timer_count
                                           ;;unsigned compare: left < lit(0x5=5), size=1
                                           	MOVAI	0x05
                                           	RSUBAR	_g_timer_count
                                           	JBSET	PFLAG,0
                                           	GOTO	_00239_DS_
                                           ;;genSkipc:3291: created from rifx:013B5EFC
                                           ;	.line	200; "MC32F7361.c"	g_timer_count = 0;
                                           	CLRR	_g_timer_count
                                           ;	.line	201; "MC32F7361.c"	g_state = TX_SENDING_LOW;
                                           	MOVAI	0x03
                                           	MOVRA	_g_state
                                           ;	.line	205; "MC32F7361.c"	break;
                                           	GOTO	_00239_DS_
                                           _00219_DS_
                                           ;	.line	208; "MC32F7361.c"	if (g_data[g_byte_count] & BIT(g_bit_count))
                                           	MOVAR	_g_byte_count
                                           	ADDAI	(_g_data + 0)
                                           	MOVRA	r0x104B
                                           	MOVAI	high (_g_data + 0)
                                           	JBCLR	PFLAG,0
                                           	ADDAI	0x01
                                           	MOVRA	r0x104D
                                           	MOVAR	r0x104B
                                           	MOVRA	FSR0
                                           	MOVAR	r0x104D
                                           	MOVRA	FSR1
                                           	MOVAR	INDF2
                                           	MOVRA	r0x104F
                                           ;;107	MOVAR	_g_bit_count
                                           	MOVAI	0x00
                                           	MOVRA	r0x1050
                                           	MOVAI	0x01
                                           	MOVRA	r0x104E
                                           ;;106	MOVAR	r0x104B
                                           	MOVAR	_g_bit_count
                                           	MOVRA	r0x104B
                                           	ISUBAI	0x00
                                           	JBCLR	PFLAG,2
                                           	GOTO	_00404_DS_
                                           _00403_DS_
                                           	RLR	r0x104E
                                           	RLR	r0x1050
                                           	ADDAI	0x01
                                           	JBSET	PFLAG,0
                                           	GOTO	_00403_DS_
                                           _00404_DS_
                                           	MOVAR	r0x104F
                                           	MOVRA	r0x104B
                                           	CLRR	r0x1051
                                           	MOVAR	r0x104E
                                           	ANDAR	r0x104B
                                           	MOVRA	r0x104F
                                           	MOVAR	r0x1050
                                           	ANDAR	r0x1051
                                           	MOVRA	r0x1052
                                           	MOVAR	r0x104F
                                           	ORAR	r0x1052
                                           	JBCLR	PFLAG,2
                                           	GOTO	_00237_DS_
                                           ;	.line	211; "MC32F7361.c"	if (++g_timer_count >= BIT1_LOW_TIME)
                                           	INCR	_g_timer_count
                                           ;;unsigned compare: left < lit(0x5=5), size=1
                                           	MOVAI	0x05
                                           	RSUBAR	_g_timer_count
                                           	JBSET	PFLAG,0
                                           	GOTO	_00239_DS_
                                           ;;genSkipc:3291: created from rifx:013B5EFC
                                           ;	.line	213; "MC32F7361.c"	g_timer_count = 0;
                                           	CLRR	_g_timer_count
                                           ;	.line	214; "MC32F7361.c"	if (++g_bit_count >= 8)
                                           	INCR	_g_bit_count
                                           ;;unsigned compare: left < lit(0x8=8), size=1
                                           	MOVAI	0x08
                                           	RSUBAR	_g_bit_count
                                           	JBSET	PFLAG,0
                                           	GOTO	_00223_DS_
                                           ;;genSkipc:3291: created from rifx:013B5EFC
                                           ;	.line	216; "MC32F7361.c"	g_bit_count = 0;
                                           	CLRR	_g_bit_count
                                           ;	.line	217; "MC32F7361.c"	if (++g_byte_count >= SEND_DATA_LEN)
                                           	INCR	_g_byte_count
                                           ;;unsigned compare: left < lit(0x3=3), size=1
                                           	MOVAI	0x03
                                           	RSUBAR	_g_byte_count
                                           	JBSET	PFLAG,0
                                           	GOTO	_00223_DS_
                                           ;;genSkipc:3291: created from rifx:013B5EFC
                                           ;	.line	219; "MC32F7361.c"	g_state = IDLE;
                                           	CLRR	_g_state
                                           _00223_DS_
                                           ;	.line	222; "MC32F7361.c"	if (g_state != IDLE)
                                           	MOVAI	0x00
                                           	ORAR	_g_state
                                           	JBCLR	PFLAG,2
                                           	GOTO	_00239_DS_
                                           ;	.line	224; "MC32F7361.c"	g_state = TX_SENDING_BIT;
                                           	MOVAI	0x02
                                           	MOVRA	_g_state
                                           	GOTO	_00239_DS_
                                           _00237_DS_
                                           ;	.line	232; "MC32F7361.c"	if (++g_timer_count >= BIT0_LOW_TIME)
                                           	INCR	_g_timer_count
                                           ;;unsigned compare: left < lit(0xA=10), size=1
                                           	MOVAI	0x0a
                                           	RSUBAR	_g_timer_count
                                           	JBSET	PFLAG,0
                                           	GOTO	_00239_DS_
                                           ;;genSkipc:3291: created from rifx:013B5EFC
                                           ;	.line	234; "MC32F7361.c"	g_timer_count = 0;
                                           	CLRR	_g_timer_count
                                           ;	.line	235; "MC32F7361.c"	if (++g_bit_count >= 8)
                                           	INCR	_g_bit_count
                                           ;;unsigned compare: left < lit(0x8=8), size=1
                                           	MOVAI	0x08
                                           	RSUBAR	_g_bit_count
                                           	JBSET	PFLAG,0
                                           	GOTO	_00231_DS_
                                           ;;genSkipc:3291: created from rifx:013B5EFC
                                           ;	.line	237; "MC32F7361.c"	g_bit_count = 0;
                                           	CLRR	_g_bit_count
                                           ;	.line	238; "MC32F7361.c"	if (++g_byte_count >= SEND_DATA_LEN)
                                           	INCR	_g_byte_count
                                           ;;unsigned compare: left < lit(0x3=3), size=1
                                           	MOVAI	0x03
                                           	RSUBAR	_g_byte_count
                                           	JBSET	PFLAG,0
                                           	GOTO	_00231_DS_
                                           ;;genSkipc:3291: created from rifx:013B5EFC
                                           ;	.line	240; "MC32F7361.c"	g_state = IDLE;
                                           	CLRR	_g_state
                                           _00231_DS_
                                           ;	.line	243; "MC32F7361.c"	if (g_state != IDLE)
                                           	MOVAI	0x00
                                           	ORAR	_g_state
                                           	JBCLR	PFLAG,2
                                           	GOTO	_00239_DS_
                                           ;	.line	245; "MC32F7361.c"	g_state = TX_SENDING_BIT;
                                           	MOVAI	0x02
                                           	MOVRA	_g_state
                                           _00239_DS_
                                           ;	.line	252; "MC32F7361.c"	return;
                                           	GOTO	_00271_DS_
                                           _00241_DS_
                                           ;	.line	256; "MC32F7361.c"	pin_state = get_pin_state();
                                           	CLRR	_pin_state
                                           ;	.line	258; "MC32F7361.c"	switch (g_state)
                                           	MOVAR	_g_state
                                           	JBSET	PFLAG,2
                                           	GOTO	_00411_DS_
                                           	GOTO	_00244_DS_
                                           _00411_DS_
                                           	MOVAR	_g_state
                                           	XORAI	0x04
                                           	JBSET	PFLAG,2
                                           	GOTO	_00412_DS_
                                           	GOTO	_00248_DS_
                                           _00412_DS_
                                           	MOVAR	_g_state
                                           	XORAI	0x05
                                           	JBSET	PFLAG,2
                                           	GOTO	_00413_DS_
                                           	GOTO	_00255_DS_
                                           _00413_DS_
                                           	MOVAR	_g_state
                                           	XORAI	0x06
                                           	JBSET	PFLAG,2
                                           	GOTO	_00414_DS_
                                           	GOTO	_00267_DS_
                                           _00414_DS_
                                           	GOTO	_00268_DS_
                                           _00244_DS_
                                           ;	.line	263; "MC32F7361.c"	g_timer_count = 0;
                                           	CLRR	_g_timer_count
                                           ;	.line	264; "MC32F7361.c"	g_state = RX_START;
                                           	MOVAI	0x04
                                           	MOVRA	_g_state
                                           ;	.line	265; "MC32F7361.c"	g_byte_count = 0;
                                           	CLRR	_g_byte_count
                                           ;	.line	266; "MC32F7361.c"	g_bit_count = 0;
                                           	CLRR	_g_bit_count
                                           ;	.line	268; "MC32F7361.c"	for (i = 0; i < 9; i++)
                                           	CLRR	_i
                                           	CLRR	(_i + 1)
                                           _00269_DS_
                                           ;	.line	270; "MC32F7361.c"	g_data[i] = 0;
                                           	MOVAR	_i
                                           	ADDAI	(_g_data + 0)
                                           	MOVRA	r0x104B
                                           	MOVAI	high (_g_data + 0)
                                           	MOVRA	r0x104F
                                           	MOVAR	(_i + 1)
                                           	JBCLR	PFLAG,0
                                           	JZAR	(_i + 1)
                                           	ADDRA	r0x104F
                                           	MOVAR	r0x104B
                                           	MOVRA	FSR0
                                           	MOVAR	r0x104F
                                           	MOVRA	FSR1
                                           	MOVAI	0x00
                                           	MOVRA	INDF2
                                           ;	.line	268; "MC32F7361.c"	for (i = 0; i < 9; i++)
                                           	INCR	_i
                                           	JBCLR	PFLAG,2
                                           	INCR	(_i + 1)
                                           ;;unsigned compare: left < lit(0x9=9), size=2
                                           	MOVAI	0x00
                                           	RSUBAR	(_i + 1)
                                           	JBSET	PFLAG,2
                                           	GOTO	_00415_DS_
                                           	MOVAI	0x09
                                           	RSUBAR	_i
                                           _00415_DS_
                                           	JBSET	PFLAG,0
                                           	GOTO	_00269_DS_
                                           ;;genSkipc:3291: created from rifx:013B5EFC
                                           ;	.line	273; "MC32F7361.c"	break;
                                           	GOTO	_00268_DS_
                                           _00248_DS_
                                           ;	.line	276; "MC32F7361.c"	g_timer_count++;
                                           	INCR	_g_timer_count
                                           ;	.line	277; "MC32F7361.c"	if (pin_state == 1)
                                           	GOTO	_00268_DS_
                                           _00255_DS_
                                           ;	.line	293; "MC32F7361.c"	g_timer_count++;
                                           	INCR	_g_timer_count
                                           ;	.line	294; "MC32F7361.c"	if (pin_state != g_last_pin_state)
                                           	MOVAR	_g_last_pin_state
                                           	JBSET	PFLAG,2
                                           	GOTO	_00416_DS_
                                           	GOTO	_00268_DS_
                                           _00416_DS_
                                           ;	.line	296; "MC32F7361.c"	if (g_last_pin_state == 1)
                                           	MOVAR	_g_last_pin_state
                                           	XORAI	0x01
                                           	JBSET	PFLAG,2
                                           	GOTO	_00264_DS_
                                           ;;unsigned compare: left < lit(0x8=8), size=1
                                           ;	.line	300; "MC32F7361.c"	if (g_timer_count >= RX_BIT1_MIN_TIME && g_timer_count <= RX_BIT1_MAX_TIME)
                                           	MOVAI	0x08
                                           	RSUBAR	_g_timer_count
                                           	JBSET	PFLAG,0
                                           	GOTO	_00257_DS_
                                           ;;genSkipc:3291: created from rifx:013B5EFC
                                           ;;swapping arguments (AOP_TYPEs 1/3)
                                           ;;unsigned compare: left >= lit(0xD=13), size=1
                                           	MOVAI	0x0d
                                           	RSUBAR	_g_timer_count
                                           	JBCLR	PFLAG,0
                                           	GOTO	_00257_DS_
                                           ;;genSkipc:3291: created from rifx:013B5EFC
                                           ;	.line	302; "MC32F7361.c"	g_data[g_byte_count] |= BIT(g_bit_count);
                                           	MOVAR	_g_byte_count
                                           	ADDAI	(_g_data + 0)
                                           	MOVRA	r0x104B
                                           	MOVAI	high (_g_data + 0)
                                           	JBCLR	PFLAG,0
                                           	ADDAI	0x01
                                           	MOVRA	r0x104F
                                           	MOVAR	r0x104B
                                           	MOVRA	FSR0
                                           	MOVAR	r0x104F
                                           	MOVRA	FSR1
                                           	MOVAR	INDF2
                                           	MOVRA	r0x104E
                                           ;;109	MOVAR	_g_bit_count
                                           	MOVAI	0x01
                                           	MOVRA	r0x1051
                                           ;;108	MOVAR	r0x1050
                                           	MOVAR	_g_bit_count
                                           	MOVRA	r0x1050
                                           	JBCLR	r0x1050,7
                                           	GOTO	_00422_DS_
                                           	ISUBAI	0x00
                                           	JBCLR	PFLAG,2
                                           	GOTO	_00420_DS_
                                           _00419_DS_
                                           	RLR	r0x1051
                                           	ADDAI	0x01
                                           	JBSET	PFLAG,0
                                           	GOTO	_00419_DS_
                                           	GOTO	_00420_DS_
                                           _00422_DS_
                                           	BCLR	PFLAG,0
                                           	JBCLR	r0x1051,7
                                           	BSET	PFLAG,0
                                           	RRR	r0x1051
                                           	ADDAI	0x01
                                           	JBSET	PFLAG,0
                                           	GOTO	_00422_DS_
                                           _00420_DS_
                                           	MOVAR	r0x104E
                                           	MOVRA	r0x1050
                                           	MOVAR	r0x1051
                                           	ORAR	r0x1050
                                           	MOVRA	r0x104E
                                           	MOVAR	r0x104B
                                           	MOVRA	FSR0
                                           	MOVAR	r0x104F
                                           	MOVRA	FSR1
                                           	MOVAR	r0x104E
                                           	MOVRA	INDF2
                                           _00257_DS_
                                           ;	.line	305; "MC32F7361.c"	g_bit_count++;
                                           	INCR	_g_bit_count
                                           ;;unsigned compare: left < lit(0x8=8), size=1
                                           ;	.line	306; "MC32F7361.c"	if (g_bit_count >= 8)
                                           	MOVAI	0x08
                                           	RSUBAR	_g_bit_count
                                           	JBSET	PFLAG,0
                                           	GOTO	_00264_DS_
                                           ;;genSkipc:3291: created from rifx:013B5EFC
                                           ;	.line	308; "MC32F7361.c"	g_bit_count = 0;
                                           	CLRR	_g_bit_count
                                           ;	.line	309; "MC32F7361.c"	g_byte_count++;
                                           	INCR	_g_byte_count
                                           ;;unsigned compare: left < lit(0x3=3), size=1
                                           ;	.line	310; "MC32F7361.c"	if (g_byte_count >= RX_DATA_LEN)
                                           	MOVAI	0x03
                                           	RSUBAR	_g_byte_count
                                           	JBSET	PFLAG,0
                                           	GOTO	_00264_DS_
                                           ;;genSkipc:3291: created from rifx:013B5EFC
                                           ;	.line	312; "MC32F7361.c"	g_state = RX_END; // 
                                           	MOVAI	0x06
                                           	MOVRA	_g_state
                                           _00264_DS_
                                           ;	.line	316; "MC32F7361.c"	g_timer_count = 0;
                                           	CLRR	_g_timer_count
                                           ;	.line	318; "MC32F7361.c"	break;
                                           	GOTO	_00268_DS_
                                           _00267_DS_
                                           ;	.line	322; "MC32F7361.c"	g_state = IDLE;
                                           	CLRR	_g_state
                                           _00268_DS_
                                           ;	.line	325; "MC32F7361.c"	g_last_pin_state = pin_state;
                                           	MOVAR	_pin_state
                                           	MOVRA	_g_last_pin_state
                                           _00271_DS_
                                           ;	.line	326; "MC32F7361.c"	}
                                           	RETURN	
                                           ; exit point of _timer_100us_isr
                                           
                                           ;***
                                           ;  pBlock Stats: dbName = C
                                           ;***
                                           ;entry:  _start_send	;Function start
                                           ; 2 exit points
                                           ;has an exit
                                           ;functions called:
                                           ;   __gptrget1
                                           ;   __gptrget1
                                           ;11 compiler assigned registers:
                                           ;   r0x103F
                                           ;   STK00
                                           ;   r0x1040
                                           ;   STK01
                                           ;   r0x1041
                                           ;   r0x1042
                                           ;   r0x1043
                                           ;   r0x1044
                                           ;   r0x1045
                                           ;   r0x1046
                                           ;   r0x1047
                                           ;; Starting pCode block
                                           _start_send	;Function start
                                           ; 2 exit points
                                           ;	.line	149; "MC32F7361.c"	void start_send(uint8_t *data)
                                           	MOVRA	r0x103F
                                           	MOVAR	STK00
                                           	MOVRA	r0x1040
                                           	MOVAR	STK01
                                           	MOVRA	r0x1041
                                           ;	.line	151; "MC32F7361.c"	if (g_state != IDLE)
                                           	MOVAI	0x00
                                           	ORAR	_g_state
                                           	JBCLR	PFLAG,2
                                           	GOTO	_00185_DS_
                                           ;	.line	152; "MC32F7361.c"	return; // 
                                           	GOTO	_00189_DS_
                                           _00185_DS_
                                           ;	.line	155; "MC32F7361.c"	for (i = 0; i < SEND_DATA_LEN; i++)
                                           	CLRR	_i
                                           	CLRR	(_i + 1)
                                           _00187_DS_
                                           ;	.line	157; "MC32F7361.c"	g_data[i] = data[i];
                                           	MOVAR	_i
                                           	ADDAI	(_g_data + 0)
                                           	MOVRA	r0x1042
                                           	MOVAI	high (_g_data + 0)
                                           	MOVRA	r0x1043
                                           	MOVAR	(_i + 1)
                                           	JBCLR	PFLAG,0
                                           	JZAR	(_i + 1)
                                           	ADDRA	r0x1043
                                           	MOVAR	_i
                                           	ADDAR	r0x1041
                                           	MOVRA	r0x1044
                                           	MOVAR	r0x1040
                                           	MOVRA	r0x1045
                                           	MOVAR	(_i + 1)
                                           	JBCLR	PFLAG,0
                                           	JZAR	(_i + 1)
                                           	ADDRA	r0x1045
                                           	MOVAR	r0x103F
                                           	JBCLR	PFLAG,0
                                           	ADDAI	0x01
                                           	MOVRA	r0x1046
                                           	MOVAR	r0x1044
                                           	MOVRA	STK01
                                           	MOVAR	r0x1045
                                           	MOVRA	STK00
                                           	MOVAR	r0x1046
                                           	CALL	__gptrget1
                                           	MOVRA	r0x1047
                                           	MOVAR	r0x1042
                                           	MOVRA	FSR0
                                           	MOVAR	r0x1043
                                           	MOVRA	FSR1
                                           	MOVAR	r0x1047
                                           	MOVRA	INDF2
                                           ;	.line	155; "MC32F7361.c"	for (i = 0; i < SEND_DATA_LEN; i++)
                                           	INCR	_i
                                           	JBCLR	PFLAG,2
                                           	INCR	(_i + 1)
                                           ;;unsigned compare: left < lit(0x3=3), size=2
                                           	MOVAI	0x00
                                           	RSUBAR	(_i + 1)
                                           	JBSET	PFLAG,2
                                           	GOTO	_00203_DS_
                                           	MOVAI	0x03
                                           	RSUBAR	_i
                                           _00203_DS_
                                           	JBSET	PFLAG,0
                                           	GOTO	_00187_DS_
                                           ;;genSkipc:3291: created from rifx:013B5EFC
                                           ;	.line	159; "MC32F7361.c"	g_byte_count = 0;
                                           	CLRR	_g_byte_count
                                           ;	.line	160; "MC32F7361.c"	g_bit_count = 0;
                                           	CLRR	_g_bit_count
                                           ;	.line	161; "MC32F7361.c"	g_timer_count = 0;
                                           	CLRR	_g_timer_count
                                           ;	.line	162; "MC32F7361.c"	g_state = TX_START;
                                           	MOVAI	0x01
                                           	MOVRA	_g_state
                                           _00189_DS_
                                           ;	.line	165; "MC32F7361.c"	}
                                           	RETURN	
                                           ; exit point of _start_send
                                           
                                           ;***
                                           ;  pBlock Stats: dbName = C
                                           ;***
                                           ;entry:  _pwm_led_config	;Function start
                                           ; 2 exit points
                                           ;has an exit
                                           ;; Starting pCode block
                                           _pwm_led_config	;Function start
                                           ; 2 exit points
                                           ;	.line	146; "MC32F7361.c"	}
                                           	RETURN	
                                           ; exit point of _pwm_led_config
                                           
                                           ;***
                                           ;  pBlock Stats: dbName = C
                                           ;***
                                           ;entry:  _timer3_config	;Function start
                                           ; 2 exit points
                                           ;has an exit
                                           ;; Starting pCode block
                                           _timer3_config	;Function start
                                           ; 2 exit points
                                           ;	.line	120; "MC32F7361.c"	T3CR = DEF_SET_BIT0 | DEF_SET_BIT2; // ,CPU,32
                                           	MOVAI	0x05
                                           	MOVRA	_T3CR
                                           ;	.line	121; "MC32F7361.c"	T3CNT = 250 - 1;                    // 1ms
                                           	MOVAI	0xf9
                                           	MOVRA	_T3CNT
                                           ;	.line	122; "MC32F7361.c"	T3LOAD = 250 - 1;
                                           	MOVAI	0xf9
                                           	MOVRA	_T3LOAD
                                           ;	.line	123; "MC32F7361.c"	T3EN = 1;
                                           	BSET	_T3CRbits,7
                                           ;	.line	124; "MC32F7361.c"	T3IE = 1;
                                           	BSET	_INTEbits,7
                                           ;	.line	125; "MC32F7361.c"	}
                                           	RETURN	
                                           ; exit point of _timer3_config
                                           
                                           ;***
                                           ;  pBlock Stats: dbName = C
                                           ;***
                                           ;entry:  _timer1_config	;Function start
                                           ; 2 exit points
                                           ;has an exit
                                           ;; Starting pCode block
                                           _timer1_config	;Function start
                                           ; 2 exit points
                                           ;	.line	111; "MC32F7361.c"	T1CR = 0x15; // FLOSC3232Khz(32768) / 32  1Khz0.9765625ms
                                           	MOVAI	0x15
                                           	MOVRA	_T1CR
                                           ;	.line	113; "MC32F7361.c"	T1LOAD = 10 - 1; //
                                           	MOVAI	0x09
                                           	MOVRA	_T1LOAD
                                           ;	.line	114; "MC32F7361.c"	T1EN = 1;
                                           	BSET	_T1CRbits,7
                                           ;	.line	115; "MC32F7361.c"	T1IE = 1;
                                           	BSET	_INTEbits,1
                                           ;	.line	116; "MC32F7361.c"	}
                                           	RETURN	
                                           ; exit point of _timer1_config
                                           
                                           ;***
                                           ;  pBlock Stats: dbName = C
                                           ;***
                                           ;entry:  _timer0_config	;Function start
                                           ; 2 exit points
                                           ;has an exit
                                           ;; Starting pCode block
                                           _timer0_config	;Function start
                                           ; 2 exit points
                                           ;	.line	106; "MC32F7361.c"	}
                                           	RETURN	
                                           ; exit point of _timer0_config
                                           
                                           ;***
                                           ;  pBlock Stats: dbName = C
                                           ;***
                                           ;entry:  _adc_config	;Function start
                                           ; 2 exit points
                                           ;has an exit
                                           ;; Starting pCode block
                                           _adc_config	;Function start
                                           ; 2 exit points
                                           ;	.line	90; "MC32F7361.c"	P12OE = 0;    // 
                                           	BCLR	_OEP1bits,2
                                           ;	.line	91; "MC32F7361.c"	P12DC = 1;    // 
                                           	BSET	_P1ADCRbits,2
                                           ;	.line	92; "MC32F7361.c"	ADCR0 = 0xFB; // ADC12H8L4
                                           	MOVAI	0xfb
                                           	MOVRA	_ADCR0
                                           ;	.line	93; "MC32F7361.c"	ADCR1 = 0x80; // adc322V
                                           	MOVAI	0x80
                                           	MOVRA	_ADCR1
                                           ;	.line	94; "MC32F7361.c"	ADCR2 = 0xFF; // 15ADCLK
                                           	MOVAI	0xff
                                           	MOVRA	_ADCR2
                                           ;	.line	96; "MC32F7361.c"	ADEN = 1;
                                           	BSET	_ADCR0bits,0
                                           ;	.line	97; "MC32F7361.c"	}
                                           	RETURN	
                                           ; exit point of _adc_config
                                           
                                           ;***
                                           ;  pBlock Stats: dbName = C
                                           ;***
                                           ;entry:  _IO_Init	;Function start
                                           ; 2 exit points
                                           ;has an exit
                                           ;; Starting pCode block
                                           _IO_Init	;Function start
                                           ; 2 exit points
                                           ;	.line	66; "MC32F7361.c"	IOP0 = 0x00;   // io
                                           	CLRR	_IOP0
                                           ;	.line	67; "MC32F7361.c"	OEP0 = 0x3F;   // io 1:out  0:in
                                           	MOVAI	0x3f
                                           	MOVRA	_OEP0
                                           ;	.line	68; "MC32F7361.c"	PUP0 = 0x00;   // io   1:enable  0:disable
                                           	CLRR	_PUP0
                                           ;	.line	69; "MC32F7361.c"	PDP0 = 0x00;   // io   1:enable  0:disable
                                           	CLRR	_PDP0
                                           ;	.line	70; "MC32F7361.c"	P0ADCR = 0x00; // io  1:  0:io
                                           	CLRR	_P0ADCR
                                           ;	.line	72; "MC32F7361.c"	IOP1 = 0x00;   // io
                                           	CLRR	_IOP1
                                           ;	.line	73; "MC32F7361.c"	OEP1 = 0xFF;   // io 1:out  0:in
                                           	MOVAI	0xff
                                           	MOVRA	_OEP1
                                           ;	.line	74; "MC32F7361.c"	PUP1 = 0x00;   // io   1:enable  0:disable
                                           	CLRR	_PUP1
                                           ;	.line	75; "MC32F7361.c"	PDP1 = 0x00;   // io   1:enable  0:disable
                                           	CLRR	_PDP1
                                           ;	.line	76; "MC32F7361.c"	P1ADCR = 0x00; // io  1:  0:io
                                           	CLRR	_P1ADCR
                                           ;	.line	78; "MC32F7361.c"	IOP2 = 0x00; // io
                                           	CLRR	_IOP2
                                           ;	.line	79; "MC32F7361.c"	OEP2 = 0x0F; // io 1:out  0:in
                                           	MOVAI	0x0f
                                           	MOVRA	_OEP2
                                           ;	.line	80; "MC32F7361.c"	PUP2 = 0x00; // io   1:enable  0:disable
                                           	CLRR	_PUP2
                                           ;	.line	81; "MC32F7361.c"	PDP2 = 0x00; // io   1:enable  0:disablea
                                           	CLRR	_PDP2
                                           ;	.line	83; "MC32F7361.c"	PMOD = 0x00;  // P00P01P13 io
                                           	CLRR	_PMOD
                                           ;	.line	84; "MC32F7361.c"	DRVCR = 0x80; // 
                                           	MOVAI	0x80
                                           	MOVRA	_DRVCR
                                           ;	.line	85; "MC32F7361.c"	}
                                           	RETURN	
                                           ; exit point of _IO_Init
                                           
                                           ;***
                                           ;  pBlock Stats: dbName = C
                                           ;***
                                           ;entry:  _CLR_RAM	;Function start
                                           ; 2 exit points
                                           ;has an exit
                                           ;; Starting pCode block
                                           _CLR_RAM	;Function start
                                           ; 2 exit points
                                           ;	.line	51; "MC32F7361.c"	for (FSR0 = 0; FSR0 < 0xff; FSR0++)
                                           	CLRR	_FSR0
                                           ;;unsigned compare: left < lit(0xFF=255), size=1
                                           _00155_DS_
                                           	MOVAI	0xff
                                           	RSUBAR	_FSR0
                                           	JBCLR	PFLAG,0
                                           	GOTO	_00153_DS_
                                           ;;genSkipc:3291: created from rifx:013B5EFC
                                           ;	.line	53; "MC32F7361.c"	INDF0 = 0x00;
                                           	CLRR	_INDF0
                                           ;	.line	51; "MC32F7361.c"	for (FSR0 = 0; FSR0 < 0xff; FSR0++)
                                           	INCR	_FSR0
                                           	GOTO	_00155_DS_
                                           _00153_DS_
                                           ;	.line	55; "MC32F7361.c"	FSR0 = 0xFF;
                                           	MOVAI	0xff
                                           	MOVRA	_FSR0
                                           ;	.line	56; "MC32F7361.c"	INDF0 = 0x00;
                                           	CLRR	_INDF0
                                           ;	.line	57; "MC32F7361.c"	}
                                           	RETURN	
                                           ; exit point of _CLR_RAM
                                           
                                           ;***
                                           ;  pBlock Stats: dbName = C
                                           ;***
                                           ;entry:  _delay_us	;Function start
                                           ; 2 exit points
                                           ;has an exit
                                           ;1 compiler assigned register :
                                           ;   r0x102A
                                           ;; Starting pCode block
                                           _delay_us	;Function start
                                           ; 2 exit points
                                           ;	.line	34; "MC32F7361.c"	void delay_us(u8 xus)
                                           	MOVRA	r0x102A
                                           _00145_DS_
                                           ;	.line	36; "MC32F7361.c"	while (xus)
                                           	MOVAI	0x00
                                           	ORAR	r0x102A
                                           	JBCLR	PFLAG,2
                                           	GOTO	_00148_DS_
                                           ;	.line	38; "MC32F7361.c"	Nop();
                                           	nop	
                                           ;	.line	39; "MC32F7361.c"	xus--; //  --while()
                                           	DECR	r0x102A
                                           	GOTO	_00145_DS_
                                           _00148_DS_
                                           ;	.line	41; "MC32F7361.c"	}
                                           	RETURN	
                                           ; exit point of _delay_us
                                           
                                           ;***
                                           ;  pBlock Stats: dbName = C
                                           ;***
                                           ;entry:  _delay_ms	;Function start
                                           ; 2 exit points
                                           ;has an exit
                                           ;7 compiler assigned registers:
                                           ;   r0x102A
                                           ;   STK00
                                           ;   r0x102B
                                           ;   r0x102C
                                           ;   r0x102D
                                           ;   r0x102E
                                           ;   r0x102F
                                           ;; Starting pCode block
                                           _delay_ms	;Function start
                                           ; 2 exit points
                                           ;	.line	20; "MC32F7361.c"	void delay_ms(u16 xms)
                                           	MOVRA	r0x102A
                                           	MOVAR	STK00
                                           	MOVRA	r0x102B
                                           _00137_DS_
                                           ;	.line	22; "MC32F7361.c"	while (xms)
                                           	MOVAR	r0x102B
                                           	ORAR	r0x102A
                                           	JBCLR	PFLAG,2
                                           	GOTO	_00140_DS_
                                           ;	.line	25; "MC32F7361.c"	while (i--)
                                           	MOVAI	0x3c
                                           	MOVRA	r0x102C
                                           	MOVAI	0x02
                                           	MOVRA	r0x102D
                                           _00134_DS_
                                           	MOVAR	r0x102C
                                           	MOVRA	r0x102E
                                           	MOVAR	r0x102D
                                           	MOVRA	r0x102F
                                           	MOVAI	0xff
                                           	ADDRA	r0x102C
                                           	JBSET	PFLAG,0
                                           	DECR	r0x102D
                                           	MOVAR	r0x102E
                                           	ORAR	r0x102F
                                           	JBCLR	PFLAG,2
                                           	GOTO	_00136_DS_
                                           ;	.line	27; "MC32F7361.c"	Nop();
                                           	nop	
                                           	GOTO	_00134_DS_
                                           _00136_DS_
                                           ;	.line	29; "MC32F7361.c"	xms--; //  --while()
                                           	MOVAI	0xff
                                           	ADDRA	r0x102B
                                           	JBSET	PFLAG,0
                                           	DECR	r0x102A
                                           	GOTO	_00137_DS_
                                           _00140_DS_
                                           ;	.line	31; "MC32F7361.c"	}
                                           	RETURN	
                                           ; exit point of _delay_ms
                                           
                                           ;***
                                           ;  pBlock Stats: dbName = C
                                           ;***
                                           ;entry:  _send_data_msb	;Function start
                                           ; 2 exit points
                                           ;has an exit
                                           ;functions called:
                                           ;   _delay_ms
                                           ;   _delay_ms
                                           ;   _delay_ms
                                           ;   _delay_ms
                                           ;   _delay_ms
                                           ;   _delay_ms
                                           ;   _delay_ms
                                           ;   _delay_ms
                                           ;   _delay_ms
                                           ;   _delay_ms
                                           ;   _delay_ms
                                           ;   _delay_ms
                                           ;   _delay_ms
                                           ;   _delay_ms
                                           ;   _delay_ms
                                           ;   _delay_ms
                                           ;13 compiler assigned registers:
                                           ;   r0x1053
                                           ;   STK00
                                           ;   r0x1054
                                           ;   STK01
                                           ;   r0x1055
                                           ;   STK02
                                           ;   r0x1056
                                           ;   r0x1057
                                           ;   r0x1058
                                           ;   r0x1059
                                           ;   r0x105A
                                           ;   r0x105B
                                           ;   r0x105C
                                           ;; Starting pCode block
                                           _send_data_msb	;Function start
                                           ; 2 exit points
                                           ;	.line	324; "user.h"	void send_data_msb(u32 send_data)
                                           	MOVRA	r0x1053
                                           	MOVAR	STK00
                                           	MOVRA	r0x1054
                                           	MOVAR	STK01
                                           	MOVRA	r0x1055
                                           	MOVAR	STK02
                                           	MOVRA	r0x1056
                                           ;	.line	328; "user.h"	DEBUG_PIN = 1;
                                           	BSET	_IOP2bits,2
                                           ;	.line	329; "user.h"	delay_ms(15);
                                           	MOVAI	0x0f
                                           	MOVRA	STK00
                                           	MOVAI	0x00
                                           	CALL	_delay_ms
                                           ;	.line	331; "user.h"	DEBUG_PIN = 0;
                                           	BCLR	_IOP2bits,2
                                           ;	.line	332; "user.h"	delay_ms(7); //
                                           	MOVAI	0x07
                                           	MOVRA	STK00
                                           	MOVAI	0x00
                                           	CALL	_delay_ms
                                           ;	.line	334; "user.h"	for (u8 i = 0; i < 32; i++)
                                           	CLRR	r0x1057
                                           ;;unsigned compare: left < lit(0x20=32), size=1
                                           _00110_DS_
                                           	MOVAI	0x20
                                           	RSUBAR	r0x1057
                                           	JBCLR	PFLAG,0
                                           	GOTO	_00108_DS_
                                           ;;genSkipc:3291: created from rifx:013B5EFC
                                           ;	.line	336; "user.h"	if ((send_data >> (32 - 1 - i)) & 0x01)
                                           	MOVAR	r0x1057
                                           	ISUBAI	0x1f
                                           	MOVRA	r0x1058
                                           	MOVAR	r0x1053
                                           	MOVRA	r0x1059
                                           	MOVAR	r0x1054
                                           	MOVRA	r0x105A
                                           	MOVAR	r0x1055
                                           	MOVRA	r0x105B
                                           	MOVAR	r0x1056
                                           	MOVRA	r0x105C
                                           	MOVAR	r0x1058
                                           	ISUBAI	0x00
                                           	JBCLR	PFLAG,2
                                           	GOTO	_00129_DS_
                                           _00128_DS_
                                           	RRR	r0x1059
                                           	RRR	r0x105A
                                           	RRR	r0x105B
                                           	RRR	r0x105C
                                           	ADDAI	0x01
                                           	JBSET	PFLAG,0
                                           	GOTO	_00128_DS_
                                           _00129_DS_
                                           	JBSET	r0x105C,0
                                           	GOTO	_00106_DS_
                                           ;	.line	340; "user.h"	DEBUG_PIN = 1;
                                           	BSET	_IOP2bits,2
                                           ;	.line	341; "user.h"	delay_ms(5); //
                                           	MOVAI	0x05
                                           	MOVRA	STK00
                                           	MOVAI	0x00
                                           	CALL	_delay_ms
                                           ;	.line	343; "user.h"	DEBUG_PIN = 0;
                                           	BCLR	_IOP2bits,2
                                           ;	.line	344; "user.h"	delay_ms(10); //
                                           	MOVAI	0x0a
                                           	MOVRA	STK00
                                           	MOVAI	0x00
                                           	CALL	_delay_ms
                                           	GOTO	_00111_DS_
                                           _00106_DS_
                                           ;	.line	350; "user.h"	DEBUG_PIN = 1;
                                           	BSET	_IOP2bits,2
                                           ;	.line	351; "user.h"	delay_ms(5); //
                                           	MOVAI	0x05
                                           	MOVRA	STK00
                                           	MOVAI	0x00
                                           	CALL	_delay_ms
                                           ;	.line	353; "user.h"	DEBUG_PIN = 0;
                                           	BCLR	_IOP2bits,2
                                           ;	.line	354; "user.h"	delay_ms(5); //
                                           	MOVAI	0x05
                                           	MOVRA	STK00
                                           	MOVAI	0x00
                                           	CALL	_delay_ms
                                           _00111_DS_
                                           ;	.line	334; "user.h"	for (u8 i = 0; i < 32; i++)
                                           	INCR	r0x1057
                                           	GOTO	_00110_DS_
                                           _00108_DS_
                                           ;	.line	360; "user.h"	DEBUG_PIN = 0;
                                           	BCLR	_IOP2bits,2
                                           ;	.line	361; "user.h"	delay_ms(1);
                                           	MOVAI	0x01
                                           	MOVRA	STK00
                                           	MOVAI	0x00
                                           	CALL	_delay_ms
                                           ;	.line	362; "user.h"	DEBUG_PIN = 1;
                                           	BSET	_IOP2bits,2
                                           ;	.line	363; "user.h"	delay_ms(1);
                                           	MOVAI	0x01
                                           	MOVRA	STK00
                                           	MOVAI	0x00
                                           	CALL	_delay_ms
                                           ;	.line	364; "user.h"	DEBUG_PIN = 0;
                                           	BCLR	_IOP2bits,2
                                           ;	.line	365; "user.h"	}
                                           	RETURN	
                                           ; exit point of _send_data_msb
                                           
                                           
                                           ;	code size estimation:
                                           ;	 1505+    0 =  1505 instructions ( 3010 byte)
                                           
                                           	end


MEMORY USAGE MAP ('X' = Used,  '-' = Unused)

0000 : XXXXXXXXXXXXXXXX XXXXXXXXXXXXXXXX XXXXXXXXXXXXXXXX XXXXXXXXXXXXXXXX
0040 : XXXXXXXXXXXXXXXX XXXXXXXXXXXXXXXX XXXXXXXXXXXXXXXX XXXXXXXXXXXXXXXX
0080 : XXXXXXXXXXXXXXXX XXXXXXXXXXXXXXXX XXXXXXXXXXXXXXXX XXXXXXXXXXXXXXXX
00C0 : XXXXXXXXXXXXXXXX XXXXXXXXXXXXXXXX XXXXXXXXXXXXXXXX XXXXXXXXXXXXXXXX
0100 : XXXXXXXXXXXXXXXX XXXXXXXXXXXXXXXX XXXXXXXXXXXXXXXX XXXXXXXXXXXXXXXX
0140 : XXXXXXXXXXXXXXXX XXXXXXXXXXXXXXXX XXXXXXXXXXXXXXXX XXXXXXXXXXXXXXXX
0180 : XXXXXXXXXXXXXXXX XXXXXXXXXXXXXXXX XXXXXXXXXXXXXXXX XXXXXXXXXXXXXXXX
01C0 : XXXXXXXXXXXXXXXX XXXXXXXXXXXXXXXX XXXXXXXXXXXXXXXX XXXXXXXXXXXXXXXX
0200 : XXXXXXXXXXXXXXXX XXXXXXXXXXXXXXXX XXXXXXXXXXXXXXXX XXXXXXXXXXXXXXXX
0240 : XXXXXXXXXXXXXXXX XXXXXXXXXXXXXXXX XXXXXXXXXXXXXXXX XXXXXXXXXXXXXXXX
0280 : XXXXXXXXXXXXXXXX XXXXXXXXXXXXXXXX XXXXXXXXXXXXXXXX XXXXXXXXXXXXXXXX
02C0 : XXXXXXXXXXXXXXXX XXXXXXXXXXXXXXXX XXXXXXXXXXXXXXXX XXXXXXXXXXXXXXXX
0300 : XXXXXXXXXXXXXXXX XXXXXXXXXXXXXXXX XXXXXXXXXXXXXXXX XXXXXXXXXXXXXXXX
0340 : XXXXXXXXXXXXXXXX XXXXXXXXXXXXXXXX XXXXXXXXXXXXXXXX XXXXXXXXXXXXXXXX
0380 : XXXXXXXXXXXXXXXX XXXXXXXXXXXXXXXX XXXXXXXXXXXXXXXX XXXXXXXXXXXXXXXX
03C0 : XXXXXXXXXXXXXXXX XXXXXXXXXXXXXXXX XXXXXXXXXXXXXXXX XXXXXXXXXXXXXXXX
0400 : XXXXXXXXXXXXXXXX XXXXXXXXXXXXXXXX XXXXXXXXXXXXXXXX XXXXXXXXXXXXXXXX
0440 : XXXXXXXXXXXXXXXX XXXXXXXXXXXXXXXX XXXXXXXXXXXXXXXX XXXXXXXXXXXXXXXX
0480 : XXXXXXXXXXXXXXXX XXXXXXXXXXXXXXXX XXXXXXXXXXXXXXXX XXXXXXXXXXXXXXXX
04C0 : XXXXXXXXXXXXXXXX XXXXXXXXXXXXXXXX XXXXXXXXXXXXXXXX XXXXXXXXXXXXXXXX
0500 : XXXXXXXXXXXXXXXX XXXXXXXXXXXXXXXX XXXXXXXXXXXXXXXX XXXXXXXXXXXXXXXX
0540 : XXXXXXXXXXXXXXXX XXXXXXXXXXXXXXXX XXXXXXXXXXXXXXXX XXXXXXXXXXXXXXXX
0580 : XXXXXXXXXXXXXXXX XXXXXXXXXXXXXXXX XXXXXXXXXXXXXXXX XXXXXXXXXXXXXXXX
05C0 : XXXXXXXXXXXXXXXX XXXXXXXXXXXXXXXX XXXXXXXXXXXXXXXX XXXXXXXXXXXXXXXX
0600 : XXXXXXXXXXXXXXXX XXXXXXXXXXXXXXXX XXXXXXXXXXXXXXXX XXXXXXXXXXXXXXXX
0640 : XXXXXXXXXXXXXXXX XXXXXXXXXXXXXXXX XXXXXXXXXXXXXXXX XXXXXXXXXXXXXXXX
0680 : XXXXXXXXXXXXXXXX XXXXXXXXXXXXXXXX XXXXXXXXXXXXXXXX XXXXXXXXXXXXXXXX
06C0 : XXXXXXXXXXXXXXXX XXXXXXXXXXXXXXXX XXXXXXXXXXXXXXXX XXXXXXXXXXXXXXXX
0700 : XXXXXXXXXXXXXXXX XXXXXXXXXXXXXXXX XXXXXXXXXXXXXXXX XXXXXXXXXXXXXXXX
0740 : XXXXXXXXXXXXXXXX XXXXXXXXXXXXXXXX XXXXXXXXXXXXXXXX XXXXXXXXXXXXXXXX
0780 : XXXXXXXXXXXXXXXX XXXXXXXXXXXXXXXX XXXXXXXXXXXXXXXX XXXXXXXXXXXXXXXX
07C0 : XXXXXXXXXXXXXXXX XXXXXXXXXXXXXXXX XXXXXXXXXXXXXXXX XXXXXXXXXXXXXXXX
0800 : XXXXXXXXXXXXXXXX XXXXXXXXXXXXXXXX XXXXXXXXXXXXXXXX XXXXXXXXXXXXXXXX
0840 : XXXXXXXXXXXXXXXX XXXXXXXXXXXXXXXX XXXXXXXXXXXXXXXX XXXXXXXXXXXXXXXX
0880 : XXXXXXXXXXXXXXXX XXXXXXXXXXXXXXXX XXXXXXXXXXXXXXXX XXXXXXXXXXXXXXXX
08C0 : XXXXXXXXXXXXXXXX XXXXXXXXXXXXXXXX XXXXXXXXXXXXXXXX XXXXXXXXXXXXXXXX
0900 : XXXXXXXXXXXXXXXX XXXXXXXXXXXXXXXX XXXXXXXXXXXXXXXX XXXXXXXXXXXXXXXX
0940 : XXXXXXXXXXXXXXXX XXXXXXXXXXXXXXXX XXXXXXXXXXXXXXXX XXXXXXXXXXXXXXXX
0980 : XXXXXXXXXXXXXXXX XXXXXXXXXXXXXXXX XXXXXXXXXXXXXXXX XXXXXXXXXXXXXXXX
09C0 : XXXXXXXXXXXXXXXX XXXXXXXXXXXXXXXX XXXXXXXXXXXXXXXX XXXXXXXXXXXXXXXX
0A00 : XXXXXXXXXXXXXXXX XXXXXXXXXXXXXXXX XXXXXXXXXXXXXXXX XXXXXXXXXXXXXXXX
0A40 : XXXXXXXXXXXXXXXX XXXXXXXXXXXXXXXX XXXXXXXXXXXXXXXX XXXXXXXXXXXXXXXX
0A80 : XXXXXXXXXXXXXXXX XXXXXXXXXXXXXXXX XXXXXXXXXXXXXXXX XXXXXXXXXXXXXXXX
0AC0 : XXXXXXXXXXXXXXXX XXXXXXXXXXXXXXXX XXXXXXXXXXXXXXXX XXXXXXXXXXXXXXXX
0B00 : XXXXXXXXXXXXXXXX XXXXXXXXXXXXXXXX XXXXXXXXXXXXXXXX XXXXXXXXXXXXXXXX
0B40 : XXXXXXXXXXXXXXXX XXXXXXXXXXXXXXXX XXXXXXXXXXXXXXXX XXXXXXXXXXXXXXXX
0B80 : XXXXXXXXXXXXXXXX XXXXXXXXXXXXXXXX XXXXXXXXXXXXXXXX XXXXXXXXXXXXXXXX
0BC0 : XXXXXXXXXXXXXXXX XXXXXXXXXXXXXXXX XXXXXXXXXXXXXXXX XXXXXXXXXXXXXXXX
0C00 : XXXXXXXXXXXXXXXX XXXXXXXXXXXXXXXX XXXXXXXXXXXXXXXX XXXXXXXXXXXXXXXX
0C40 : XXXXXXXXXXXXXXXX XXXXXXXXXXXXXXXX XXXXXXXXXXXXXXXX XXXXXXXXXXXXXXXX
0C80 : XXXXXXXXXXXXXXXX XXXXXXXXXXXXXXXX XXXXXXXXXXXXXXXX XXXXXXXXXXXXXXXX
0CC0 : XXXXXXXXXXXXXXXX XXXXXXXXXXXXXXXX XXXXXXXXXXXXXXXX XXXXXXXXXXXXXXXX
0D00 : XXXXXXXXXXXXXXXX XXXXXXXXXXXXXXXX XXXXXXXXXXXXXXXX XXXXXXXXXXXXXXXX
0D40 : XXXXXXXXXXXXXXXX XXXXXXXXXXXXXXXX XXXX------------ ----------------

All other memory blocks unused.

Program Memory Words Used:  1714

