gplink-2.2.37 (Jan 22 2024)
Listing File Generated: 2024-12-18  18:06:07
 
 
Address  Value    Disassembly              Source
-------  -----    -----------              ------
                                           ;--------------------------------------------------------
                                           ; external declarations
                                           ;--------------------------------------------------------
                                           	extern	_TM1650_Clear
                                           	extern	_TM1650_DisplayBit
                                           	extern	_INDF0bits
                                           	extern	_INDF1bits
                                           	extern	_INDF2bits
                                           	extern	_HIBYTEbits
                                           	extern	_FSR0bits
                                           	extern	_FSR1bits
                                           	extern	_PCLbits
                                           	extern	_PFLAGbits
                                           	extern	_MCRbits
                                           	extern	_INDF3bits
                                           	extern	_INTEbits
                                           	extern	_INTFbits
                                           	extern	_DRVCRbits
                                           	extern	_P0KBCRbits
                                           	extern	_P1KBCRbits
                                           	extern	_P2KBCRbits
                                           	extern	_IOP0bits
                                           	extern	_OEP0bits
                                           	extern	_PUP0bits
                                           	extern	_PDP0bits
                                           	extern	_IOP1bits
                                           	extern	_OEP1bits
                                           	extern	_PUP1bits
                                           	extern	_PDP1bits
                                           	extern	_T0CRbits
                                           	extern	_T0CNTbits
                                           	extern	_T0LOADbits
                                           	extern	_T0DATAbits
                                           	extern	_T1CRbits
                                           	extern	_T1CNTbits
                                           	extern	_T1LOADbits
                                           	extern	_T1DATAbits
                                           	extern	_T2CRbits
                                           	extern	_T2CNTbits
                                           	extern	_T2LOADbits
                                           	extern	_T2DATAbits
                                           	extern	_T3CRbits
                                           	extern	_T3CNTbits
                                           	extern	_T3LOADbits
                                           	extern	_PWM0DRbits
                                           	extern	_PWM1DRbits
                                           	extern	_PWM2DRbits
                                           	extern	_PWMCR0bits
                                           	extern	_PWMCR1bits
                                           	extern	_OSCMRbits
                                           	extern	_LVDCRbits
                                           	extern	_ADCR0bits
                                           	extern	_ADCR1bits
                                           	extern	_ADCR2bits
                                           	extern	_OSADJCRbits
                                           	extern	_ADRHbits
                                           	extern	_ADRLbits
                                           	extern	_P0ADCRbits
                                           	extern	_P1ADCRbits
                                           	extern	_IOP2bits
                                           	extern	_OEP2bits
                                           	extern	_PUP2bits
                                           	extern	_PDP2bits
                                           	extern	_PMODbits
                                           	extern	_PWMCR3bits
                                           	extern	_PWMCR2bits
                                           	extern	_PFRCCRbits
                                           	extern	_PFRCCALbits
                                           	extern	_EECRbits
                                           	extern	_EEPRbits
                                           	extern	_EEARbits
                                           	extern	_EEDRHbits
                                           	extern	_EEDRLbits
                                           	extern	_DBGCRbits
                                           	extern	_DBGPRbits
                                           	extern	_HIRCCALbits
                                           	extern	_INDF0
                                           	extern	_INDF1
                                           	extern	_INDF2
                                           	extern	_HIBYTE
                                           	extern	_FSR0
                                           	extern	_FSR1
                                           	extern	_PCL
                                           	extern	_PFLAG
                                           	extern	_MCR
                                           	extern	_INDF3
                                           	extern	_INTE
                                           	extern	_INTF
                                           	extern	_DRVCR
                                           	extern	_P0KBCR
                                           	extern	_P1KBCR
                                           	extern	_P2KBCR
                                           	extern	_IOP0
                                           	extern	_OEP0
                                           	extern	_PUP0
                                           	extern	_PDP0
                                           	extern	_IOP1
                                           	extern	_OEP1
                                           	extern	_PUP1
                                           	extern	_PDP1
                                           	extern	_T0CR
                                           	extern	_T0CNT
                                           	extern	_T0LOAD
                                           	extern	_T0DATA
                                           	extern	_T1CR
                                           	extern	_T1CNT
                                           	extern	_T1LOAD
                                           	extern	_T1DATA
                                           	extern	_T2CR
                                           	extern	_T2CNT
                                           	extern	_T2LOAD
                                           	extern	_T2DATA
                                           	extern	_T3CR
                                           	extern	_T3CNT
                                           	extern	_T3LOAD
                                           	extern	_PWM0DR
                                           	extern	_PWM1DR
                                           	extern	_PWM2DR
                                           	extern	_PWMCR0
                                           	extern	_PWMCR1
                                           	extern	_OSCMR
                                           	extern	_LVDCR
                                           	extern	_ADCR0
                                           	extern	_ADCR1
                                           	extern	_ADCR2
                                           	extern	_OSADJCR
                                           	extern	_ADRH
                                           	extern	_ADRL
                                           	extern	_P0ADCR
                                           	extern	_P1ADCR
                                           	extern	_IOP2
                                           	extern	_OEP2
                                           	extern	_PUP2
                                           	extern	_PDP2
                                           	extern	_PMOD
                                           	extern	_PWMCR3
                                           	extern	_PWMCR2
                                           	extern	_PFRCCR
                                           	extern	_PFRCCAL
                                           	extern	_EECR
                                           	extern	_EEPR
                                           	extern	_EEAR
                                           	extern	_EEDRH
                                           	extern	_EEDRL
                                           	extern	_DBGCR
                                           	extern	_DBGPR
                                           	extern	_HIRCCAL
                                           	extern	__gptrget1
                                           	extern	__mulchar
                                           ;--------------------------------------------------------
                                           ; global declarations
                                           ;--------------------------------------------------------
                                           	global	_TM1650_DisplayNum
                                           	global	_TM1650_Init
                                           	global	_TM1650_WriteByte
                                           	global	_bsp_i2c_stop
                                           	global	_bsp_i2c_rx_ack
                                           	global	_bsp_i2c_tx_byte
                                           	global	_bsp_i2c_start
                                           	global	_key_ad_key_event_deal
                                           	global	_ad_key_event_10ms_isr
                                           	global	_get_key_id
                                           	global	_adc_get_val
                                           	global	_adc_single_convert
                                           	global	_adc_channel_sel
                                           	global	_Sys_Init
                                           	global	_timer_100us_isr
                                           	global	_start_send
                                           	global	_pwm_led_config
                                           	global	_timer3_config
                                           	global	_timer1_config
                                           	global	_adc_config
                                           	global	_IO_Init
                                           	global	_CLR_RAM
                                           	global	_delay_us
                                           	global	_delay_ms
                                           	global	_send_data_msb
                                           	global	_main
                                           	global	_int_isr
                                           	global	_abuf
                                           	global	_statusbuf
                                           	global	_i
                                           	global	_tmp
                                           	global	_cur_w_pwm_duty
                                           	global	_cur_y_pwm_duty
                                           	global	_cur_light_status
                                           	global	_send_buf
                                           	global	_pin_state
                                           	global	_adc_val_tmp
                                           	global	_adc_val_sum
                                           	global	_get_adcmax
                                           	global	_get_adcmin
                                           	global	_adc_val
                                           	global	_ad_key_event
                                           	global	_cur_key_id
                                           	global	_set_time_hold_cnt
                                           	global	_cur_status
                                           	global	_set_time_delay_cnt
                                           	global	_set_time_done_cnt
                                           	global	_thousand
                                           	global	_hundred
                                           	global	_decade
                                           	global	_unit
                                           	global	_flag1
                                           	global	_id_table
                                           	global	_key_event_table
                                           	global	_NUM_TABLE
                                           
                                           	global STK06
                                           	global STK05
                                           	global STK04
                                           	global STK03
                                           	global STK02
                                           	global STK01
                                           	global STK00
                                           
                                           sharebank udata_ovr 0x0000
                                           STK06	res 1
                                           STK05	res 1
                                           STK04	res 1
                                           STK03	res 1
                                           STK02	res 1
                                           STK01	res 1
                                           STK00	res 1
                                           
                                           ;--------------------------------------------------------
                                           ; global definitions
                                           ;--------------------------------------------------------
                                           UD_MC32F7361_0	udata
                                           _abuf	res	1
                                           
                                           UD_MC32F7361_1	udata
                                           _statusbuf	res	1
                                           
                                           UD_MC32F7361_2	udata
                                           _i	res	2
                                           
                                           UD_MC32F7361_3	udata
                                           _tmp	res	2
                                           
                                           UD_MC32F7361_4	udata
                                           _cur_w_pwm_duty	res	1
                                           
                                           UD_MC32F7361_5	udata
                                           _cur_y_pwm_duty	res	1
                                           
                                           UD_MC32F7361_6	udata
                                           _cur_light_status	res	1
                                           
                                           UD_MC32F7361_7	udata
                                           _send_buf	res	3
                                           
                                           UD_MC32F7361_8	udata
                                           _pin_state	res	1
                                           
                                           UD_MC32F7361_9	udata
                                           _adc_val_tmp	res	2
                                           
                                           UD_MC32F7361_10	udata
                                           _adc_val_sum	res	4
                                           
                                           UD_MC32F7361_11	udata
                                           _get_adcmax	res	2
                                           
                                           UD_MC32F7361_12	udata
                                           _get_adcmin	res	2
                                           
                                           UD_MC32F7361_13	udata
                                           _adc_val	res	2
                                           
                                           UD_MC32F7361_14	udata
                                           _ad_key_event	res	1
                                           
                                           UD_MC32F7361_15	udata
                                           _cur_key_id	res	1
                                           
                                           UD_MC32F7361_16	udata
                                           _set_time_hold_cnt	res	1
                                           
                                           UD_MC32F7361_17	udata
                                           _cur_status	res	1
                                           
                                           UD_MC32F7361_18	udata
                                           _set_time_delay_cnt	res	2
                                           
                                           UD_MC32F7361_19	udata
                                           _set_time_done_cnt	res	2
                                           
                                           UD_MC32F7361_20	udata
                                           _thousand	res	1
                                           
                                           UD_MC32F7361_21	udata
                                           _hundred	res	1
                                           
                                           UD_MC32F7361_22	udata
                                           _decade	res	1
                                           
                                           UD_MC32F7361_23	udata
                                           _unit	res	1
                                           
                                           UD_MC32F7361_24	udata
                                           _flag1	res	1
                                           
                                           ;--------------------------------------------------------
                                           ; absolute symbol definitions
                                           ;--------------------------------------------------------
                                           ;--------------------------------------------------------
                                           ; compiler-defined variables
                                           ;--------------------------------------------------------
                                           UDL_MC32F7361_0	udata
                                           r0x104C	res	1
                                           r0x104B	res	1
                                           r0x104A	res	1
                                           r0x1049	res	1
                                           r0x104D	res	1
                                           r0x104E	res	1
                                           r0x1052	res	1
                                           r0x1051	res	1
                                           r0x1050	res	1
                                           r0x104F	res	1
                                           r0x1032	res	1
                                           r0x1031	res	1
                                           r0x1033	res	1
                                           r0x1034	res	1
                                           r0x1035	res	1
                                           r0x1036	res	1
                                           r0x1037	res	1
                                           r0x1038	res	1
                                           r0x1039	res	1
                                           r0x1041	res	1
                                           r0x1042	res	1
                                           r0x1043	res	1
                                           r0x1045	res	1
                                           r0x1044	res	1
                                           r0x1046	res	1
                                           r0x1047	res	1
                                           r0x1048	res	1
                                           r0x103A	res	1
                                           r0x103B	res	1
                                           r0x103C	res	1
                                           r0x103D	res	1
                                           r0x103F	res	1
                                           r0x103E	res	1
                                           r0x1053	res	1
                                           r0x1054	res	1
                                           _g_byte_count	res	1
                                           _g_bit_count	res	1
                                           _g_timer_count	res	1
                                           _g_data	res	3
                                           _g_last_pin_state	res	1
                                           _ad_key_event_10ms_isr_count_65536_105	res	1
                                           _ad_key_event_10ms_isr_last_key_id_65536_105	res	1
                                           _main_low_power_cnt_196608_169	res	1
                                           _int_isr_timer1_cnt_131072_186	res	2
                                           _int_isr_timer3_cnt_131072_188	res	1
                                           _int_isr___set_time_cnt_196608_190	res	1
                                           ;--------------------------------------------------------
                                           ; initialized data
                                           ;--------------------------------------------------------
                                           
                                           ID_MC32F7361_0	idata
                                           _g_state
                                           	db	0x00
                                           
                                           
                                           ID_MC32F7361_1	code
                                           _id_table
000001   0024     dw      0x24             	dw 0x24
000002   004e     dw      0x4e             	dw 0x4e
000003   0071     dw      0x71             	dw 0x71
000004   008d     dw      0x8d             	dw 0x8d
000005   00c0     dw      0xc0             	dw 0xc0
000006   00f3     dw      0xf3             	dw 0xf3
                                           
                                           
                                           ID_MC32F7361_2	code
                                           _key_event_table
00067b   0000     nop                      	dw 0x00
00067c   0001     dw      0x1              	dw 0x01
00067d   0002     dw      0x2              	dw 0x02
00067e   0003     dw      0x3              	dw 0x03
00067f   0004     dw      0x4              	dw 0x04
000680   0005     dw      0x5              	dw 0x05
000681   0006     dw      0x6              	dw 0x06
000682   0007     dw      0x7              	dw 0x07
000683   0008     dw      0x8              	dw 0x08
000684   0009     dsa                      	dw 0x09
000685   000a     daa                      	dw 0x0a
000686   000b     stop                     	dw 0x0b
000687   000c     return                   	dw 0x0c
000688   000d     retie                    	dw 0x0d
000689   000e     clrwdt                   	dw 0x0e
00068a   000f     dw      0xf              	dw 0x0f
00068b   0010     djza                     	dw 0x10
00068c   0011     deca                     	dw 0x11
                                           
                                           
                                           ID_MC32F7361_3	code
                                           _NUM_TABLE
00069f   00eb     dw      0xeb             	dw 0xeb
0006a0   0088     dw      0x88             	dw 0x88
0006a1   00b3     dw      0xb3             	dw 0xb3
0006a2   00ba     dw      0xba             	dw 0xba
0006a3   00d8     dw      0xd8             	dw 0xd8
0006a4   007a     dw      0x7a             	dw 0x7a
0006a5   007b     dw      0x7b             	dw 0x7b
0006a6   00a8     dw      0xa8             	dw 0xa8
0006a7   00fb     dw      0xfb             	dw 0xfb
0006a8   00fa     dw      0xfa             	dw 0xfa
                                           
                                           
                                           ;@Allocation info for local variables in function 'send_data_msb'
                                           ;@send_data_msb Sys_Init                  Allocated to registers ;size:2
                                           ;@send_data_msb CLR_RAM                   Allocated to registers ;size:2
                                           ;@send_data_msb IO_Init                   Allocated to registers ;size:2
                                           ;@send_data_msb delay_ms                  Allocated to registers ;size:2
                                           ;@send_data_msb delay_us                  Allocated to registers ;size:2
                                           ;@send_data_msb adc_config                Allocated to registers ;size:2
                                           ;@send_data_msb timer1_config             Allocated to registers ;size:2
                                           ;@send_data_msb timer3_config             Allocated to registers ;size:2
                                           ;@send_data_msb pwm_led_config            Allocated to registers ;size:2
                                           ;@send_data_msb start_send                Allocated to registers ;size:2
                                           ;@send_data_msb timer_100us_isr           Allocated to registers ;size:2
                                           ;@send_data_msb adc_channel_sel           Allocated to registers ;size:2
                                           ;@send_data_msb adc_single_convert        Allocated to registers ;size:2
                                           ;@send_data_msb adc_get_val               Allocated to registers ;size:2
                                           ;@send_data_msb get_key_id                Allocated to registers ;size:2
                                           ;@send_data_msb ad_key_event_10ms_isr     Allocated to registers ;size:2
                                           ;@send_data_msb key_ad_key_event_deal     Allocated to registers ;size:2
                                           ;@send_data_msb bsp_i2c_start             Allocated to registers ;size:2
                                           ;@send_data_msb bsp_i2c_tx_byte           Allocated to registers ;size:2
                                           ;@send_data_msb bsp_i2c_rx_ack            Allocated to registers ;size:2
                                           ;@send_data_msb bsp_i2c_stop              Allocated to registers ;size:2
                                           ;@send_data_msb TM1650_WriteByte          Allocated to registers ;size:2
                                           ;@send_data_msb TM1650_Clear              Allocated to registers ;size:2
                                           ;@send_data_msb TM1650_Init               Allocated to registers ;size:2
                                           ;@send_data_msb TM1650_DisplayBit         Allocated to registers ;size:2
                                           ;@send_data_msb TM1650_DisplayNum         Allocated to registers ;size:2
                                           ;@send_data_msb send_data_msb             Allocated to registers ;size:2
                                           ;@send_data_msb INDF0bits                 Allocated to registers ;size:1
                                           ;@send_data_msb INDF1bits                 Allocated to registers ;size:1
                                           ;@send_data_msb INDF2bits                 Allocated to registers ;size:1
                                           ;@send_data_msb HIBYTEbits                Allocated to registers ;size:1
                                           ;@send_data_msb FSR0bits                  Allocated to registers ;size:1
                                           ;@send_data_msb FSR1bits                  Allocated to registers ;size:1
                                           ;@send_data_msb PCLbits                   Allocated to registers ;size:1
                                           ;@send_data_msb PFLAGbits                 Allocated to registers ;size:1
                                           ;@send_data_msb MCRbits                   Allocated to registers ;size:1
                                           ;@send_data_msb INDF3bits                 Allocated to registers ;size:1
                                           ;@send_data_msb INTEbits                  Allocated to registers ;size:1
                                           ;@send_data_msb INTFbits                  Allocated to registers ;size:1
                                           ;@send_data_msb DRVCRbits                 Allocated to registers ;size:1
                                           ;@send_data_msb P0KBCRbits                Allocated to registers ;size:1
                                           ;@send_data_msb P1KBCRbits                Allocated to registers ;size:1
                                           ;@send_data_msb P2KBCRbits                Allocated to registers ;size:1
                                           ;@send_data_msb IOP0bits                  Allocated to registers ;size:1
                                           ;@send_data_msb OEP0bits                  Allocated to registers ;size:1
                                           ;@send_data_msb PUP0bits                  Allocated to registers ;size:1
                                           ;@send_data_msb PDP0bits                  Allocated to registers ;size:1
                                           ;@send_data_msb IOP1bits                  Allocated to registers ;size:1
                                           ;@send_data_msb OEP1bits                  Allocated to registers ;size:1
                                           ;@send_data_msb PUP1bits                  Allocated to registers ;size:1
                                           ;@send_data_msb PDP1bits                  Allocated to registers ;size:1
                                           ;@send_data_msb T0CRbits                  Allocated to registers ;size:1
                                           ;@send_data_msb T0CNTbits                 Allocated to registers ;size:1
                                           ;@send_data_msb T0LOADbits                Allocated to registers ;size:1
                                           ;@send_data_msb T0DATAbits                Allocated to registers ;size:1
                                           ;@send_data_msb T1CRbits                  Allocated to registers ;size:1
                                           ;@send_data_msb T1CNTbits                 Allocated to registers ;size:1
                                           ;@send_data_msb T1LOADbits                Allocated to registers ;size:1
                                           ;@send_data_msb T1DATAbits                Allocated to registers ;size:1
                                           ;@send_data_msb T2CRbits                  Allocated to registers ;size:1
                                           ;@send_data_msb T2CNTbits                 Allocated to registers ;size:1
                                           ;@send_data_msb T2LOADbits                Allocated to registers ;size:1
                                           ;@send_data_msb T2DATAbits                Allocated to registers ;size:1
                                           ;@send_data_msb T3CRbits                  Allocated to registers ;size:1
                                           ;@send_data_msb T3CNTbits                 Allocated to registers ;size:1
                                           ;@send_data_msb T3LOADbits                Allocated to registers ;size:1
                                           ;@send_data_msb PWM0DRbits                Allocated to registers ;size:1
                                           ;@send_data_msb PWM1DRbits                Allocated to registers ;size:1
                                           ;@send_data_msb PWM2DRbits                Allocated to registers ;size:1
                                           ;@send_data_msb PWMCR0bits                Allocated to registers ;size:1
                                           ;@send_data_msb PWMCR1bits                Allocated to registers ;size:1
                                           ;@send_data_msb OSCMRbits                 Allocated to registers ;size:1
                                           ;@send_data_msb LVDCRbits                 Allocated to registers ;size:1
                                           ;@send_data_msb ADCR0bits                 Allocated to registers ;size:1
                                           ;@send_data_msb ADCR1bits                 Allocated to registers ;size:1
                                           ;@send_data_msb ADCR2bits                 Allocated to registers ;size:1
                                           ;@send_data_msb OSADJCRbits               Allocated to registers ;size:1
                                           ;@send_data_msb ADRHbits                  Allocated to registers ;size:1
                                           ;@send_data_msb ADRLbits                  Allocated to registers ;size:1
                                           ;@send_data_msb P0ADCRbits                Allocated to registers ;size:1
                                           ;@send_data_msb P1ADCRbits                Allocated to registers ;size:1
                                           ;@send_data_msb IOP2bits                  Allocated to registers ;size:1
                                           ;@send_data_msb OEP2bits                  Allocated to registers ;size:1
                                           ;@send_data_msb PUP2bits                  Allocated to registers ;size:1
                                           ;@send_data_msb PDP2bits                  Allocated to registers ;size:1
                                           ;@send_data_msb PMODbits                  Allocated to registers ;size:1
                                           ;@send_data_msb PWMCR3bits                Allocated to registers ;size:1
                                           ;@send_data_msb PWMCR2bits                Allocated to registers ;size:1
                                           ;@send_data_msb PFRCCRbits                Allocated to registers ;size:1
                                           ;@send_data_msb PFRCCALbits               Allocated to registers ;size:1
                                           ;@send_data_msb EECRbits                  Allocated to registers ;size:1
                                           ;@send_data_msb EEPRbits                  Allocated to registers ;size:1
                                           ;@send_data_msb EEARbits                  Allocated to registers ;size:1
                                           ;@send_data_msb EEDRHbits                 Allocated to registers ;size:1
                                           ;@send_data_msb EEDRLbits                 Allocated to registers ;size:1
                                           ;@send_data_msb DBGCRbits                 Allocated to registers ;size:1
                                           ;@send_data_msb DBGPRbits                 Allocated to registers ;size:1
                                           ;@send_data_msb HIRCCALbits               Allocated to registers ;size:1
                                           ;@send_data_msb abuf                      Allocated to registers ;size:1
                                           ;@send_data_msb statusbuf                 Allocated to registers ;size:1
                                           ;@send_data_msb i                         Allocated to registers ;size:2
                                           ;@send_data_msb tmp                       Allocated to registers ;size:2
                                           ;@send_data_msb cur_w_pwm_duty            Allocated to registers ;size:1
                                           ;@send_data_msb cur_y_pwm_duty            Allocated to registers ;size:1
                                           ;@send_data_msb cur_light_status          Allocated to registers ;size:1
                                           ;@send_data_msb send_buf                  Allocated to registers ;size:3
                                           ;@send_data_msb g_data                    Allocated to registers ;size:3
                                           ;@send_data_msb g_byte_count              Allocated to registers ;size:1
                                           ;@send_data_msb g_bit_count               Allocated to registers ;size:1
                                           ;@send_data_msb g_timer_count             Allocated to registers ;size:1
                                           ;@send_data_msb g_state                   Allocated to registers ;size:1
                                           ;@send_data_msb g_last_pin_state          Allocated to registers ;size:1
                                           ;@send_data_msb pin_state                 Allocated to registers ;size:1
                                           ;@send_data_msb adc_val_tmp               Allocated to registers ;size:2
                                           ;@send_data_msb adc_val_sum               Allocated to registers ;size:4
                                           ;@send_data_msb get_adcmax                Allocated to registers ;size:2
                                           ;@send_data_msb get_adcmin                Allocated to registers ;size:2
                                           ;@send_data_msb adc_val                   Allocated to registers ;size:2
                                           ;@send_data_msb ad_key_event              Allocated to registers ;size:1
                                           ;@send_data_msb cur_key_id                Allocated to registers ;size:1
                                           ;@send_data_msb set_time_hold_cnt         Allocated to registers ;size:1
                                           ;@send_data_msb cur_status                Allocated to registers ;size:1
                                           ;@send_data_msb set_time_delay_cnt        Allocated to registers ;size:2
                                           ;@send_data_msb set_time_done_cnt         Allocated to registers ;size:2
                                           ;@send_data_msb thousand                  Allocated to registers ;size:1
                                           ;@send_data_msb hundred                   Allocated to registers ;size:1
                                           ;@send_data_msb decade                    Allocated to registers ;size:1
                                           ;@send_data_msb unit                      Allocated to registers ;size:1
                                           ;@send_data_msb flag1                     Allocated to registers ;size:1
                                           ;@send_data_msb send_data                 Allocated to registers r0x104C r0x104B r0x104A r0x1049 ;size:4
                                           ;@send_data_msb i                         Allocated to registers r0x104D ;size:1
                                           ;@send_data_msb INDF0                     Allocated to registers ;size:1
                                           ;@send_data_msb INDF1                     Allocated to registers ;size:1
                                           ;@send_data_msb INDF2                     Allocated to registers ;size:1
                                           ;@send_data_msb HIBYTE                    Allocated to registers ;size:1
                                           ;@send_data_msb FSR0                      Allocated to registers ;size:1
                                           ;@send_data_msb FSR1                      Allocated to registers ;size:1
                                           ;@send_data_msb PCL                       Allocated to registers ;size:1
                                           ;@send_data_msb PFLAG                     Allocated to registers ;size:1
                                           ;@send_data_msb MCR                       Allocated to registers ;size:1
                                           ;@send_data_msb INDF3                     Allocated to registers ;size:1
                                           ;@send_data_msb INTE                      Allocated to registers ;size:1
                                           ;@send_data_msb INTF                      Allocated to registers ;size:1
                                           ;@send_data_msb DRVCR                     Allocated to registers ;size:1
                                           ;@send_data_msb P0KBCR                    Allocated to registers ;size:1
                                           ;@send_data_msb P1KBCR                    Allocated to registers ;size:1
                                           ;@send_data_msb P2KBCR                    Allocated to registers ;size:1
                                           ;@send_data_msb IOP0                      Allocated to registers ;size:1
                                           ;@send_data_msb OEP0                      Allocated to registers ;size:1
                                           ;@send_data_msb PUP0                      Allocated to registers ;size:1
                                           ;@send_data_msb PDP0                      Allocated to registers ;size:1
                                           ;@send_data_msb IOP1                      Allocated to registers ;size:1
                                           ;@send_data_msb OEP1                      Allocated to registers ;size:1
                                           ;@send_data_msb PUP1                      Allocated to registers ;size:1
                                           ;@send_data_msb PDP1                      Allocated to registers ;size:1
                                           ;@send_data_msb T0CR                      Allocated to registers ;size:1
                                           ;@send_data_msb T0CNT                     Allocated to registers ;size:1
                                           ;@send_data_msb T0LOAD                    Allocated to registers ;size:1
                                           ;@send_data_msb T0DATA                    Allocated to registers ;size:1
                                           ;@send_data_msb T1CR                      Allocated to registers ;size:1
                                           ;@send_data_msb T1CNT                     Allocated to registers ;size:1
                                           ;@send_data_msb T1LOAD                    Allocated to registers ;size:1
                                           ;@send_data_msb T1DATA                    Allocated to registers ;size:1
                                           ;@send_data_msb T2CR                      Allocated to registers ;size:1
                                           ;@send_data_msb T2CNT                     Allocated to registers ;size:1
                                           ;@send_data_msb T2LOAD                    Allocated to registers ;size:1
                                           ;@send_data_msb T2DATA                    Allocated to registers ;size:1
                                           ;@send_data_msb T3CR                      Allocated to registers ;size:1
                                           ;@send_data_msb T3CNT                     Allocated to registers ;size:1
                                           ;@send_data_msb T3LOAD                    Allocated to registers ;size:1
                                           ;@send_data_msb PWM0DR                    Allocated to registers ;size:1
                                           ;@send_data_msb PWM1DR                    Allocated to registers ;size:1
                                           ;@send_data_msb PWM2DR                    Allocated to registers ;size:1
                                           ;@send_data_msb PWMCR0                    Allocated to registers ;size:1
                                           ;@send_data_msb PWMCR1                    Allocated to registers ;size:1
                                           ;@send_data_msb OSCMR                     Allocated to registers ;size:1
                                           ;@send_data_msb LVDCR                     Allocated to registers ;size:1
                                           ;@send_data_msb ADCR0                     Allocated to registers ;size:1
                                           ;@send_data_msb ADCR1                     Allocated to registers ;size:1
                                           ;@send_data_msb ADCR2                     Allocated to registers ;size:1
                                           ;@send_data_msb OSADJCR                   Allocated to registers ;size:1
                                           ;@send_data_msb ADRH                      Allocated to registers ;size:1
                                           ;@send_data_msb ADRL                      Allocated to registers ;size:1
                                           ;@send_data_msb P0ADCR                    Allocated to registers ;size:1
                                           ;@send_data_msb P1ADCR                    Allocated to registers ;size:1
                                           ;@send_data_msb IOP2                      Allocated to registers ;size:1
                                           ;@send_data_msb OEP2                      Allocated to registers ;size:1
                                           ;@send_data_msb PUP2                      Allocated to registers ;size:1
                                           ;@send_data_msb PDP2                      Allocated to registers ;size:1
                                           ;@send_data_msb PMOD                      Allocated to registers ;size:1
                                           ;@send_data_msb PWMCR3                    Allocated to registers ;size:1
                                           ;@send_data_msb PWMCR2                    Allocated to registers ;size:1
                                           ;@send_data_msb PFRCCR                    Allocated to registers ;size:1
                                           ;@send_data_msb PFRCCAL                   Allocated to registers ;size:1
                                           ;@send_data_msb EECR                      Allocated to registers ;size:1
                                           ;@send_data_msb EEPR                      Allocated to registers ;size:1
                                           ;@send_data_msb EEAR                      Allocated to registers ;size:1
                                           ;@send_data_msb EEDRH                     Allocated to registers ;size:1
                                           ;@send_data_msb EEDRL                     Allocated to registers ;size:1
                                           ;@send_data_msb DBGCR                     Allocated to registers ;size:1
                                           ;@send_data_msb DBGPR                     Allocated to registers ;size:1
                                           ;@send_data_msb HIRCCAL                   Allocated to registers ;size:1
                                           ;@end Allocation info for local variables in function 'send_data_msb';
                                           ;@Allocation info for local variables in function 'delay_ms'
                                           ;@delay_ms xms                       Allocated to registers ;size:2
                                           ;@delay_ms i                         Allocated to registers r0x1033 r0x1034 ;size:2
                                           ;@end Allocation info for local variables in function 'delay_ms';
                                           ;@Allocation info for local variables in function 'delay_us'
                                           ;@delay_us xus                       Allocated to registers ;size:1
                                           ;@end Allocation info for local variables in function 'delay_us';
                                           ;@Allocation info for local variables in function 'CLR_RAM'
                                           ;@end Allocation info for local variables in function 'CLR_RAM';
                                           ;@Allocation info for local variables in function 'IO_Init'
                                           ;@end Allocation info for local variables in function 'IO_Init';
                                           ;@Allocation info for local variables in function 'adc_config'
                                           ;@end Allocation info for local variables in function 'adc_config';
                                           ;@Allocation info for local variables in function 'timer1_config'
                                           ;@end Allocation info for local variables in function 'timer1_config';
                                           ;@Allocation info for local variables in function 'timer3_config'
                                           ;@end Allocation info for local variables in function 'timer3_config';
                                           ;@Allocation info for local variables in function 'pwm_led_config'
                                           ;@end Allocation info for local variables in function 'pwm_led_config';
                                           ;@Allocation info for local variables in function 'start_send'
                                           ;@start_send data                      Allocated to registers r0x1033 r0x1032 r0x1031 ;size:3
                                           ;@end Allocation info for local variables in function 'start_send';
                                           ;@Allocation info for local variables in function 'timer_100us_isr'
                                           ;@end Allocation info for local variables in function 'timer_100us_isr';
                                           ;@Allocation info for local variables in function 'Sys_Init'
                                           ;@end Allocation info for local variables in function 'Sys_Init';
                                           ;@Allocation info for local variables in function 'adc_channel_sel'
                                           ;@adc_channel_sel adc_channel               Allocated to registers r0x1037 ;size:1
                                           ;@end Allocation info for local variables in function 'adc_channel_sel';
                                           ;@Allocation info for local variables in function 'adc_single_convert'
                                           ;@end Allocation info for local variables in function 'adc_single_convert';
                                           ;@Allocation info for local variables in function 'adc_get_val'
                                           ;@end Allocation info for local variables in function 'adc_get_val';
                                           ;@Allocation info for local variables in function 'get_key_id'
                                           ;@end Allocation info for local variables in function 'get_key_id';
                                           ;@Allocation info for local variables in function 'ad_key_event_10ms_isr'
                                           ;@ad_key_event_10ms_isr last_key_id               Allocated to registers ;size:1
                                           ;@ad_key_event_10ms_isr count                     Allocated to registers ;size:1
                                           ;@end Allocation info for local variables in function 'ad_key_event_10ms_isr';
                                           ;@Allocation info for local variables in function 'ad_key_event_10ms_isr'
                                           ;@ad_key_event_10ms_isr last_key_id               Allocated to registers ;size:1
                                           ;@ad_key_event_10ms_isr count                     Allocated to registers ;size:1
                                           ;@end Allocation info for local variables in function 'ad_key_event_10ms_isr';
                                           ;@Allocation info for local variables in function 'key_ad_key_event_deal'
                                           ;@end Allocation info for local variables in function 'key_ad_key_event_deal';
                                           ;@Allocation info for local variables in function 'bsp_i2c_start'
                                           ;@end Allocation info for local variables in function 'bsp_i2c_start';
                                           ;@Allocation info for local variables in function 'bsp_i2c_tx_byte'
                                           ;@bsp_i2c_tx_byte dat                       Allocated to registers r0x1032 ;size:1
                                           ;@bsp_i2c_tx_byte i                         Allocated to registers r0x1033 ;size:1
                                           ;@end Allocation info for local variables in function 'bsp_i2c_tx_byte';
                                           ;@Allocation info for local variables in function 'bsp_i2c_rx_ack'
                                           ;@bsp_i2c_rx_ack ret                       Allocated to registers r0x1032 ;size:1
                                           ;@end Allocation info for local variables in function 'bsp_i2c_rx_ack';
                                           ;@Allocation info for local variables in function 'bsp_i2c_stop'
                                           ;@end Allocation info for local variables in function 'bsp_i2c_stop';
                                           ;@Allocation info for local variables in function 'TM1650_WriteByte'
                                           ;@TM1650_WriteByte data                      Allocated to registers r0x1036 ;size:1
                                           ;@TM1650_WriteByte addr                      Allocated to registers r0x1035 ;size:1
                                           ;@end Allocation info for local variables in function 'TM1650_WriteByte';
                                           ;@Allocation info for local variables in function 'TM1650_Init'
                                           ;@end Allocation info for local variables in function 'TM1650_Init';
                                           ;@Allocation info for local variables in function 'TM1650_DisplayNum'
                                           ;@end Allocation info for local variables in function 'TM1650_DisplayNum';
                                           ;@Allocation info for local variables in function 'main'
                                           ;@main low_power_cnt             Allocated to registers ;size:1
                                           ;@end Allocation info for local variables in function 'main';
                                           ;@Allocation info for local variables in function 'main'
                                           ;@main low_power_cnt             Allocated to registers ;size:1
                                           ;@end Allocation info for local variables in function 'main';
                                           ;@Allocation info for local variables in function 'int_isr'
                                           ;@int_isr timer1_cnt                Allocated to registers ;size:2
                                           ;@int_isr timer3_cnt                Allocated to registers ;size:1
                                           ;@int_isr __set_time_cnt            Allocated to registers ;size:1
                                           ;@end Allocation info for local variables in function 'int_isr';
                                           ;@Allocation info for local variables in function 'int_isr'
                                           ;@int_isr timer1_cnt                Allocated to registers ;size:2
                                           ;@int_isr timer3_cnt                Allocated to registers ;size:1
                                           ;@int_isr __set_time_cnt            Allocated to registers ;size:1
                                           ;@end Allocation info for local variables in function 'int_isr';
                                           
                                           ;--------------------------------------------------------
                                           ; overlayable items in internal ram 
                                           ;--------------------------------------------------------
                                           ;	udata_ovr
                                           ;--------------------------------------------------------
                                           ; reset vector 
                                           ;--------------------------------------------------------
                                           STARTUP	code 0x0000
000000   a059     goto    0x59             	goto	_main
                                           ;--------------------------------------------------------
                                           ; interrupt and initialization code
                                           ;--------------------------------------------------------
                                           c_interrupt	code	0x8
                                           __sdcc_interrupt
                                           ;***
                                           ;  pBlock Stats: dbName = I
                                           ;***
                                           ;entry:  _int_isr	;Function start
                                           ; 0 exit points
                                           ;functions called:
                                           ;   _timer_100us_isr
                                           ;   _timer_100us_isr
                                           ;2 compiler assigned registers:
                                           ;   r0x1053
                                           ;   r0x1054
                                           ;; Starting pCode block
                                           _int_isr	;Function start
                                           ; 0 exit points
                                           ;	.line	1106; "MC32F7361.c"	__endasm;
                                           	;
000008   5654     movra   0x54             	movra	_abuf;
000009   4587     swapar  0x187            	swapar	_PFLAG;
00000a   5655     movra   0x55             	movra	_statusbuf;
                                           	
                                           ;	.line	1109; "MC32F7361.c"	if (T1IF & T1IE)
00000b   7628     clrr    0x28             	CLRR	r0x1053
00000c   f38b     jbclr   0x18b, 0x1       	JBCLR	_INTFbits,1
00000d   6628     incr    0x28             	INCR	r0x1053
00000e   7629     clrr    0x29             	CLRR	r0x1054
00000f   f38a     jbclr   0x18a, 0x1       	JBCLR	_INTEbits,1
000010   6629     incr    0x29             	INCR	r0x1054
000011   5829     movar   0x29             	MOVAR	r0x1054
000012   7a28     andra   0x28             	ANDRA	r0x1053
000013   3c00     movai   0                	MOVAI	0x00
000014   5c28     orar    0x28             	ORAR	r0x1053
000015   f587     jbclr   0x187, 0x2       	JBCLR	PFLAG,2
000016   a025     goto    0x25             	GOTO	_00962_DS_
                                           ;	.line	1112; "MC32F7361.c"	timer1_cnt++;
000017   6634     incr    0x34             	INCR	_int_isr_timer1_cnt_131072_186
000018   f587     jbclr   0x187, 0x2       	JBCLR	PFLAG,2
000019   6635     incr    0x35             	INCR	(_int_isr_timer1_cnt_131072_186 + 1)
                                           ;;unsigned compare: left < lit(0x400=1024), size=2
                                           ;	.line	1113; "MC32F7361.c"	if (timer1_cnt >= 1024)
00001a   3c04     movai   0x4              	MOVAI	0x04
00001b   4835     rsubar  0x35             	RSUBAR	(_int_isr_timer1_cnt_131072_186 + 1)
00001c   e587     jbset   0x187, 0x2       	JBSET	PFLAG,2
00001d   a020     goto    0x20             	GOTO	_00999_DS_
00001e   3c00     movai   0                	MOVAI	0x00
00001f   4834     rsubar  0x34             	RSUBAR	_int_isr_timer1_cnt_131072_186
                                           _00999_DS_
000020   e187     jbset   0x187, 0         	JBSET	PFLAG,0
000021   a024     goto    0x24             	GOTO	_00960_DS_
                                           ;;genSkipc:3291: created from rifx:013B5EFC
                                           ;	.line	1116; "MC32F7361.c"	timer1_cnt = 0;
000022   7634     clrr    0x34             	CLRR	_int_isr_timer1_cnt_131072_186
000023   7635     clrr    0x35             	CLRR	(_int_isr_timer1_cnt_131072_186 + 1)
                                           _00960_DS_
                                           ;	.line	1130; "MC32F7361.c"	T1IF = 0;
000024   d38b     bclr    0x18b, 0x1       	BCLR	_INTFbits,1
                                           _00962_DS_
                                           ;	.line	1133; "MC32F7361.c"	if (T3IF & T3IE)
000025   7628     clrr    0x28             	CLRR	r0x1053
000026   ff8b     jbclr   0x18b, 0x7       	JBCLR	_INTFbits,7
000027   6628     incr    0x28             	INCR	r0x1053
000028   7629     clrr    0x29             	CLRR	r0x1054
000029   ff8a     jbclr   0x18a, 0x7       	JBCLR	_INTEbits,7
00002a   6629     incr    0x29             	INCR	r0x1054
00002b   5829     movar   0x29             	MOVAR	r0x1054
00002c   7a28     andra   0x28             	ANDRA	r0x1053
00002d   3c00     movai   0                	MOVAI	0x00
00002e   5c28     orar    0x28             	ORAR	r0x1053
00002f   f587     jbclr   0x187, 0x2       	JBCLR	PFLAG,2
000030   a054     goto    0x54             	GOTO	_00972_DS_
                                           ;	.line	1138; "MC32F7361.c"	timer3_cnt++;
000031   6636     incr    0x36             	INCR	_int_isr_timer3_cnt_131072_188
                                           ;;unsigned compare: left < lit(0x64=100), size=1
                                           ;	.line	1140; "MC32F7361.c"	if (timer3_cnt >= 100) // 100us * 100 == 10ms
000032   3c64     movai   0x64             	MOVAI	0x64
000033   4836     rsubar  0x36             	RSUBAR	_int_isr_timer3_cnt_131072_188
000034   e187     jbset   0x187, 0         	JBSET	PFLAG,0
000035   a038     goto    0x38             	GOTO	_00964_DS_
                                           ;;genSkipc:3291: created from rifx:013B5EFC
                                           ;	.line	1142; "MC32F7361.c"	flag_10ms = 1; // ad
000036   c062     bset    0x62, 0          	BSET	_flag1,0
                                           ;	.line	1143; "MC32F7361.c"	timer3_cnt = 0;
000037   7636     clrr    0x36             	CLRR	_int_isr_timer3_cnt_131072_188
                                           _00964_DS_
                                           ;	.line	1148; "MC32F7361.c"	__set_time_cnt++;
000038   6637     incr    0x37             	INCR	_int_isr___set_time_cnt_196608_190
                                           ;;unsigned compare: left < lit(0xA=10), size=1
                                           ;	.line	1150; "MC32F7361.c"	if (__set_time_cnt >= 10) // 1ms
000039   3c0a     movai   0xa              	MOVAI	0x0a
00003a   4837     rsubar  0x37             	RSUBAR	_int_isr___set_time_cnt_196608_190
00003b   e187     jbset   0x187, 0         	JBSET	PFLAG,0
00003c   a052     goto    0x52             	GOTO	_00970_DS_
                                           ;;genSkipc:3291: created from rifx:013B5EFC
                                           ;	.line	1152; "MC32F7361.c"	__set_time_cnt = 0;
00003d   7637     clrr    0x37             	CLRR	_int_isr___set_time_cnt_196608_190
                                           ;	.line	1153; "MC32F7361.c"	if (STATUS_SET_TIME_HOUR == cur_status ||
00003e   585d     movar   0x5d             	MOVAR	_cur_status
00003f   3901     xorai   0x1              	XORAI	0x01
000040   e587     jbset   0x187, 0x2       	JBSET	PFLAG,2
000041   a043     goto    0x43             	GOTO	_01002_DS_
000042   a047     goto    0x47             	GOTO	_00965_DS_
                                           _01002_DS_
                                           ;	.line	1154; "MC32F7361.c"	STATUS_SET_TIME_MIN == cur_status)
000043   585d     movar   0x5d             	MOVAR	_cur_status
000044   3902     xorai   0x2              	XORAI	0x02
000045   e587     jbset   0x187, 0x2       	JBSET	PFLAG,2
000046   a04e     goto    0x4e             	GOTO	_00966_DS_
                                           _00965_DS_
                                           ;	.line	1156; "MC32F7361.c"	set_time_delay_cnt++;
000047   6650     incr    0x50             	INCR	_set_time_delay_cnt
000048   f587     jbclr   0x187, 0x2       	JBCLR	PFLAG,2
000049   6651     incr    0x51             	INCR	(_set_time_delay_cnt + 1)
                                           ;	.line	1157; "MC32F7361.c"	set_time_done_cnt++;
00004a   6652     incr    0x52             	INCR	_set_time_done_cnt
00004b   f587     jbclr   0x187, 0x2       	JBCLR	PFLAG,2
00004c   6653     incr    0x53             	INCR	(_set_time_done_cnt + 1)
00004d   a052     goto    0x52             	GOTO	_00970_DS_
                                           _00966_DS_
                                           ;	.line	1161; "MC32F7361.c"	set_time_delay_cnt = 0;
00004e   7650     clrr    0x50             	CLRR	_set_time_delay_cnt
00004f   7651     clrr    0x51             	CLRR	(_set_time_delay_cnt + 1)
                                           ;	.line	1162; "MC32F7361.c"	set_time_done_cnt = 0;
000050   7652     clrr    0x52             	CLRR	_set_time_done_cnt
000051   7653     clrr    0x53             	CLRR	(_set_time_done_cnt + 1)
                                           _00970_DS_
                                           ;	.line	1167; "MC32F7361.c"	timer_100us_isr();
000052   83fb     call    0x3fb            	CALL	_timer_100us_isr
                                           ;	.line	1169; "MC32F7361.c"	T3IF = 0;
000053   df8b     bclr    0x18b, 0x7       	BCLR	_INTFbits,7
                                           _00972_DS_
                                           ;	.line	1177; "MC32F7361.c"	__endasm;
                                           	;
000054   4455     swapar  0x55             	swapar	_statusbuf;
000055   5787     movra   0x187            	movra	_PFLAG;
000056   4654     swapr   0x54             	swapr	_abuf;
000057   4454     swapar  0x54             	swapar	_abuf;
                                           	
                                           END_OF_INTERRUPT
                                           ;	.line	1178; "MC32F7361.c"	}
000058   000d     retie                    	RETIE	
                                           
                                           ;--------------------------------------------------------
                                           ; code
                                           ;--------------------------------------------------------
                                           code_MC32F7361	code
                                           ;***
                                           ;  pBlock Stats: dbName = M
                                           ;***
                                           ;entry:  _main	;Function start
                                           ; 2 exit points
                                           ;has an exit
                                           ;functions called:
                                           ;   _Sys_Init
                                           ;   _adc_channel_sel
                                           ;   _key_ad_key_event_deal
                                           ;   _adc_channel_sel
                                           ;   _adc_get_val
                                           ;   _TM1650_DisplayNum
                                           ;   _TM1650_WriteByte
                                           ;   _TM1650_WriteByte
                                           ;   _TM1650_DisplayNum
                                           ;   _TM1650_WriteByte
                                           ;   _TM1650_WriteByte
                                           ;   _TM1650_DisplayNum
                                           ;   _start_send
                                           ;   _delay_ms
                                           ;   _Sys_Init
                                           ;   _adc_channel_sel
                                           ;   _key_ad_key_event_deal
                                           ;   _adc_channel_sel
                                           ;   _adc_get_val
                                           ;   _TM1650_DisplayNum
                                           ;   _TM1650_WriteByte
                                           ;   _TM1650_WriteByte
                                           ;   _TM1650_DisplayNum
                                           ;   _TM1650_WriteByte
                                           ;   _TM1650_WriteByte
                                           ;   _TM1650_DisplayNum
                                           ;   _start_send
                                           ;   _delay_ms
                                           ;5 compiler assigned registers:
                                           ;   STK00
                                           ;   r0x103E
                                           ;   r0x103F
                                           ;   r0x1040
                                           ;   STK01
                                           ;; Starting pCode block
                                           _main	;Function start
                                           ; 2 exit points
                                           ;	.line	1005; "MC32F7361.c"	Sys_Init();
000059   83e4     call    0x3e4            	CALL	_Sys_Init
                                           _00899_DS_
                                           ;	.line	1009; "MC32F7361.c"	adc_channel_sel(ADC_CHANNEL_KEY);
00005a   3c01     movai   0x1              	MOVAI	0x01
00005b   83cd     call    0x3cd            	CALL	_adc_channel_sel
                                           ;	.line	1010; "MC32F7361.c"	key_ad_key_event_deal();
00005c   8182     call    0x182            	CALL	_key_ad_key_event_deal
                                           ;	.line	1014; "MC32F7361.c"	adc_channel_sel(ADC_CHANNEL_VDD);
00005d   3c00     movai   0                	MOVAI	0x00
00005e   83cd     call    0x3cd            	CALL	_adc_channel_sel
                                           ;	.line	1015; "MC32F7361.c"	adc_val = adc_get_val();
00005f   831f     call    0x31f            	CALL	_adc_get_val
000060   564f     movra   0x4f             	MOVRA	(_adc_val + 1)
000061   5806     movar   0x6              	MOVAR	STK00
000062   564e     movra   0x4e             	MOVRA	_adc_val
                                           ;;swapping arguments (AOP_TYPEs 1/3)
                                           ;;unsigned compare: left >= lit(0x801=2049), size=2
                                           ;	.line	1016; "MC32F7361.c"	if (adc_val <= 2048)
000063   3c08     movai   0x8              	MOVAI	0x08
000064   484f     rsubar  0x4f             	RSUBAR	(_adc_val + 1)
000065   e587     jbset   0x187, 0x2       	JBSET	PFLAG,2
000066   a069     goto    0x69             	GOTO	_00947_DS_
000067   3c01     movai   0x1              	MOVAI	0x01
000068   484e     rsubar  0x4e             	RSUBAR	_adc_val
                                           _00947_DS_
000069   f187     jbclr   0x187, 0         	JBCLR	PFLAG,0
00006a   a06d     goto    0x6d             	GOTO	_00874_DS_
                                           ;;genSkipc:3291: created from rifx:013B5EFC
                                           ;	.line	1018; "MC32F7361.c"	low_power_cnt++;
00006b   6633     incr    0x33             	INCR	_main_low_power_cnt_196608_169
00006c   a06e     goto    0x6e             	GOTO	_00875_DS_
                                           _00874_DS_
                                           ;	.line	1022; "MC32F7361.c"	low_power_cnt = 0;
00006d   7633     clrr    0x33             	CLRR	_main_low_power_cnt_196608_169
                                           ;;unsigned compare: left < lit(0xA=10), size=1
                                           _00875_DS_
                                           ;	.line	1025; "MC32F7361.c"	if (low_power_cnt >= 10)
00006e   3c0a     movai   0xa              	MOVAI	0x0a
00006f   4833     rsubar  0x33             	RSUBAR	_main_low_power_cnt_196608_169
000070   e187     jbset   0x187, 0         	JBSET	PFLAG,0
000071   a073     goto    0x73             	GOTO	_00877_DS_
                                           ;;genSkipc:3291: created from rifx:013B5EFC
                                           ;	.line	1027; "MC32F7361.c"	low_power_cnt = 0;
000072   7633     clrr    0x33             	CLRR	_main_low_power_cnt_196608_169
                                           _00877_DS_
                                           ;	.line	1034; "MC32F7361.c"	if (STATUS_SET_TIME_HOUR == cur_status)
000073   585d     movar   0x5d             	MOVAR	_cur_status
000074   3901     xorai   0x1              	XORAI	0x01
000075   e587     jbset   0x187, 0x2       	JBSET	PFLAG,2
000076   a0a0     goto    0xa0             	GOTO	_00896_DS_
                                           ;;unsigned compare: left < lit(0x1F4=500), size=2
                                           ;	.line	1036; "MC32F7361.c"	if (set_time_delay_cnt < 500)
000077   3c01     movai   0x1              	MOVAI	0x01
000078   4851     rsubar  0x51             	RSUBAR	(_set_time_delay_cnt + 1)
000079   e587     jbset   0x187, 0x2       	JBSET	PFLAG,2
00007a   a07d     goto    0x7d             	GOTO	_00949_DS_
00007b   3cf4     movai   0xf4             	MOVAI	0xf4
00007c   4850     rsubar  0x50             	RSUBAR	_set_time_delay_cnt
                                           _00949_DS_
00007d   f187     jbclr   0x187, 0         	JBCLR	PFLAG,0
00007e   a081     goto    0x81             	GOTO	_00881_DS_
                                           ;;genSkipc:3291: created from rifx:013B5EFC
                                           ;	.line	1038; "MC32F7361.c"	TM1650_DisplayNum();
00007f   80e3     call    0xe3             	CALL	_TM1650_DisplayNum
000080   a093     goto    0x93             	GOTO	_00882_DS_
                                           _00881_DS_
                                           ;	.line	1042; "MC32F7361.c"	TM1650_WriteByte(0x6E, 0x00);        // 4
000081   3c00     movai   0                	MOVAI	0x00
000082   5606     movra   0x6              	MOVRA	STK00
000083   3c6e     movai   0x6e             	MOVAI	0x6e
000084   813b     call    0x13b            	CALL	_TM1650_WriteByte
                                           ;	.line	1043; "MC32F7361.c"	TM1650_WriteByte(0x6C, 0x00 | 0x04); // 3
000085   3c04     movai   0x4              	MOVAI	0x04
000086   5606     movra   0x6              	MOVRA	STK00
000087   3c6c     movai   0x6c             	MOVAI	0x6c
000088   813b     call    0x13b            	CALL	_TM1650_WriteByte
                                           ;;unsigned compare: left < lit(0x3E7=999), size=2
                                           ;	.line	1045; "MC32F7361.c"	if (set_time_delay_cnt >= 1000 - 1)
000089   3c03     movai   0x3              	MOVAI	0x03
00008a   4851     rsubar  0x51             	RSUBAR	(_set_time_delay_cnt + 1)
00008b   e587     jbset   0x187, 0x2       	JBSET	PFLAG,2
00008c   a08f     goto    0x8f             	GOTO	_00950_DS_
00008d   3ce7     movai   0xe7             	MOVAI	0xe7
00008e   4850     rsubar  0x50             	RSUBAR	_set_time_delay_cnt
                                           _00950_DS_
00008f   e187     jbset   0x187, 0         	JBSET	PFLAG,0
000090   a093     goto    0x93             	GOTO	_00882_DS_
                                           ;;genSkipc:3291: created from rifx:013B5EFC
                                           ;	.line	1047; "MC32F7361.c"	set_time_delay_cnt = 0;
000091   7650     clrr    0x50             	CLRR	_set_time_delay_cnt
000092   7651     clrr    0x51             	CLRR	(_set_time_delay_cnt + 1)
                                           ;;unsigned compare: left < lit(0x1388=5000), size=2
                                           _00882_DS_
                                           ;	.line	1051; "MC32F7361.c"	if (set_time_done_cnt >= 5000)
000093   3c13     movai   0x13             	MOVAI	0x13
000094   4853     rsubar  0x53             	RSUBAR	(_set_time_done_cnt + 1)
000095   e587     jbset   0x187, 0x2       	JBSET	PFLAG,2
000096   a099     goto    0x99             	GOTO	_00951_DS_
000097   3c88     movai   0x88             	MOVAI	0x88
000098   4852     rsubar  0x52             	RSUBAR	_set_time_done_cnt
                                           _00951_DS_
000099   e187     jbset   0x187, 0         	JBSET	PFLAG,0
00009a   a0cd     goto    0xcd             	GOTO	_00897_DS_
                                           ;;genSkipc:3291: created from rifx:013B5EFC
                                           ;	.line	1053; "MC32F7361.c"	cur_status = STATUS_SET_TIME_MIN;
00009b   3c02     movai   0x2              	MOVAI	0x02
00009c   565d     movra   0x5d             	MOVRA	_cur_status
                                           ;	.line	1054; "MC32F7361.c"	set_time_done_cnt = 0;
00009d   7652     clrr    0x52             	CLRR	_set_time_done_cnt
00009e   7653     clrr    0x53             	CLRR	(_set_time_done_cnt + 1)
00009f   a0cd     goto    0xcd             	GOTO	_00897_DS_
                                           _00896_DS_
                                           ;	.line	1057; "MC32F7361.c"	else if (STATUS_SET_TIME_MIN == cur_status)
0000a0   585d     movar   0x5d             	MOVAR	_cur_status
0000a1   3902     xorai   0x2              	XORAI	0x02
0000a2   e587     jbset   0x187, 0x2       	JBSET	PFLAG,2
0000a3   a0cc     goto    0xcc             	GOTO	_00893_DS_
                                           ;;unsigned compare: left < lit(0x1F4=500), size=2
                                           ;	.line	1059; "MC32F7361.c"	if (set_time_delay_cnt < 500)
0000a4   3c01     movai   0x1              	MOVAI	0x01
0000a5   4851     rsubar  0x51             	RSUBAR	(_set_time_delay_cnt + 1)
0000a6   e587     jbset   0x187, 0x2       	JBSET	PFLAG,2
0000a7   a0aa     goto    0xaa             	GOTO	_00952_DS_
0000a8   3cf4     movai   0xf4             	MOVAI	0xf4
0000a9   4850     rsubar  0x50             	RSUBAR	_set_time_delay_cnt
                                           _00952_DS_
0000aa   f187     jbclr   0x187, 0         	JBCLR	PFLAG,0
0000ab   a0ae     goto    0xae             	GOTO	_00888_DS_
                                           ;;genSkipc:3291: created from rifx:013B5EFC
                                           ;	.line	1061; "MC32F7361.c"	TM1650_DisplayNum();
0000ac   80e3     call    0xe3             	CALL	_TM1650_DisplayNum
0000ad   a0c0     goto    0xc0             	GOTO	_00889_DS_
                                           _00888_DS_
                                           ;	.line	1065; "MC32F7361.c"	TM1650_WriteByte(0x6A, 0x00); // 2
0000ae   3c00     movai   0                	MOVAI	0x00
0000af   5606     movra   0x6              	MOVRA	STK00
0000b0   3c6a     movai   0x6a             	MOVAI	0x6a
0000b1   813b     call    0x13b            	CALL	_TM1650_WriteByte
                                           ;	.line	1066; "MC32F7361.c"	TM1650_WriteByte(0x68, 0x00); // 1
0000b2   3c00     movai   0                	MOVAI	0x00
0000b3   5606     movra   0x6              	MOVRA	STK00
0000b4   3c68     movai   0x68             	MOVAI	0x68
0000b5   813b     call    0x13b            	CALL	_TM1650_WriteByte
                                           ;;unsigned compare: left < lit(0x3E7=999), size=2
                                           ;	.line	1068; "MC32F7361.c"	if (set_time_delay_cnt >= 1000 - 1)
0000b6   3c03     movai   0x3              	MOVAI	0x03
0000b7   4851     rsubar  0x51             	RSUBAR	(_set_time_delay_cnt + 1)
0000b8   e587     jbset   0x187, 0x2       	JBSET	PFLAG,2
0000b9   a0bc     goto    0xbc             	GOTO	_00953_DS_
0000ba   3ce7     movai   0xe7             	MOVAI	0xe7
0000bb   4850     rsubar  0x50             	RSUBAR	_set_time_delay_cnt
                                           _00953_DS_
0000bc   e187     jbset   0x187, 0         	JBSET	PFLAG,0
0000bd   a0c0     goto    0xc0             	GOTO	_00889_DS_
                                           ;;genSkipc:3291: created from rifx:013B5EFC
                                           ;	.line	1070; "MC32F7361.c"	set_time_delay_cnt = 0;
0000be   7650     clrr    0x50             	CLRR	_set_time_delay_cnt
0000bf   7651     clrr    0x51             	CLRR	(_set_time_delay_cnt + 1)
                                           ;;unsigned compare: left < lit(0x1388=5000), size=2
                                           _00889_DS_
                                           ;	.line	1074; "MC32F7361.c"	if (set_time_done_cnt >= 5000)
0000c0   3c13     movai   0x13             	MOVAI	0x13
0000c1   4853     rsubar  0x53             	RSUBAR	(_set_time_done_cnt + 1)
0000c2   e587     jbset   0x187, 0x2       	JBSET	PFLAG,2
0000c3   a0c6     goto    0xc6             	GOTO	_00954_DS_
0000c4   3c88     movai   0x88             	MOVAI	0x88
0000c5   4852     rsubar  0x52             	RSUBAR	_set_time_done_cnt
                                           _00954_DS_
0000c6   e187     jbset   0x187, 0         	JBSET	PFLAG,0
0000c7   a0cd     goto    0xcd             	GOTO	_00897_DS_
                                           ;;genSkipc:3291: created from rifx:013B5EFC
                                           ;	.line	1076; "MC32F7361.c"	cur_status = STATUS_NONE;
0000c8   765d     clrr    0x5d             	CLRR	_cur_status
                                           ;	.line	1077; "MC32F7361.c"	set_time_done_cnt = 0;
0000c9   7652     clrr    0x52             	CLRR	_set_time_done_cnt
0000ca   7653     clrr    0x53             	CLRR	(_set_time_done_cnt + 1)
0000cb   a0cd     goto    0xcd             	GOTO	_00897_DS_
                                           _00893_DS_
                                           ;	.line	1082; "MC32F7361.c"	TM1650_DisplayNum(); // 
0000cc   80e3     call    0xe3             	CALL	_TM1650_DisplayNum
                                           ;;gen.c:6570: size=0, offset=0, AOP_TYPE(res)=8
                                           _00897_DS_
                                           ;	.line	1086; "MC32F7361.c"	send_buf[0] = 0xA5;
0000cd   3ca5     movai   0xa5             	MOVAI	0xa5
0000ce   5641     movra   0x41             	MOVRA	(_send_buf + 0)
                                           ;;gen.c:6570: size=0, offset=0, AOP_TYPE(res)=8
                                           ;	.line	1087; "MC32F7361.c"	send_buf[1] = 0x81;
0000cf   3c81     movai   0x81             	MOVAI	0x81
0000d0   5642     movra   0x42             	MOVRA	(_send_buf + 1)
                                           ;;gen.c:6570: size=0, offset=0, AOP_TYPE(res)=8
                                           ;	.line	1088; "MC32F7361.c"	send_buf[2] = 0x7E;
0000d1   3c7e     movai   0x7e             	MOVAI	0x7e
0000d2   5643     movra   0x43             	MOVRA	(_send_buf + 2)
                                           ;	.line	1089; "MC32F7361.c"	start_send(send_buf);
0000d3   3c00     movai   0                	MOVAI	high (_send_buf + 0)
0000d4   5627     movra   0x27             	MOVRA	r0x103E
0000d5   3c41     movai   0x41             	MOVAI	(_send_buf + 0)
0000d6   5626     movra   0x26             	MOVRA	r0x103F
                                           ;;1	CLRR	r0x1040
0000d7   5826     movar   0x26             	MOVAR	r0x103F
0000d8   5605     movra   0x5              	MOVRA	STK01
0000d9   5827     movar   0x27             	MOVAR	r0x103E
0000da   5606     movra   0x6              	MOVRA	STK00
0000db   3c00     movai   0                	MOVAI	0x00
0000dc   855f     call    0x55f            	CALL	_start_send
                                           ;	.line	1090; "MC32F7361.c"	delay_ms(100);
0000dd   3c64     movai   0x64             	MOVAI	0x64
0000de   5606     movra   0x6              	MOVRA	STK00
0000df   3c00     movai   0                	MOVAI	0x00
0000e0   85f4     call    0x5f4            	CALL	_delay_ms
0000e1   a05a     goto    0x5a             	GOTO	_00899_DS_
                                           ;	.line	1093; "MC32F7361.c"	}
0000e2   000c     return                   	RETURN	
                                           ; exit point of _main
                                           
                                           ;***
                                           ;  pBlock Stats: dbName = C
                                           ;***
                                           ;entry:  _TM1650_DisplayNum	;Function start
                                           ; 2 exit points
                                           ;has an exit
                                           ;functions called:
                                           ;   __gptrget1
                                           ;   _TM1650_WriteByte
                                           ;   __gptrget1
                                           ;   _TM1650_WriteByte
                                           ;   __gptrget1
                                           ;   _TM1650_WriteByte
                                           ;   __gptrget1
                                           ;   _TM1650_WriteByte
                                           ;   __gptrget1
                                           ;   _TM1650_WriteByte
                                           ;   __gptrget1
                                           ;   _TM1650_WriteByte
                                           ;   __gptrget1
                                           ;   _TM1650_WriteByte
                                           ;   __gptrget1
                                           ;   _TM1650_WriteByte
                                           ;6 compiler assigned registers:
                                           ;   r0x1037
                                           ;   r0x1038
                                           ;   STK01
                                           ;   STK00
                                           ;   r0x1039
                                           ;   r0x103A
                                           ;; Starting pCode block
                                           _TM1650_DisplayNum	;Function start
                                           ; 2 exit points
                                           ;	.line	991; "MC32F7361.c"	TM1650_WriteByte(0x68, NUM_TABLE[unit]);           // 1
0000e3   5861     movar   0x61             	MOVAR	_unit
0000e4   3f9f     addai   0x9f             	ADDAI	(_NUM_TABLE + 0)
0000e5   5617     movra   0x17             	MOVRA	r0x1037
0000e6   3c06     movai   0x6              	MOVAI	high (_NUM_TABLE + 0)
0000e7   f187     jbclr   0x187, 0         	JBCLR	PFLAG,0
0000e8   3f01     addai   0x1              	ADDAI	0x01
0000e9   5618     movra   0x18             	MOVRA	r0x1038
0000ea   5817     movar   0x17             	MOVAR	r0x1037
0000eb   5605     movra   0x5              	MOVRA	STK01
0000ec   5818     movar   0x18             	MOVAR	r0x1038
0000ed   5606     movra   0x6              	MOVRA	STK00
0000ee   3c80     movai   0x80             	MOVAI	0x80
0000ef   868d     call    0x68d            	CALL	__gptrget1
0000f0   5619     movra   0x19             	MOVRA	r0x1039
0000f1   5819     movar   0x19             	MOVAR	r0x1039
0000f2   5606     movra   0x6              	MOVRA	STK00
0000f3   3c68     movai   0x68             	MOVAI	0x68
0000f4   813b     call    0x13b            	CALL	_TM1650_WriteByte
                                           ;	.line	992; "MC32F7361.c"	TM1650_WriteByte(0x6A, NUM_TABLE[decade]);         // 2
0000f5   5860     movar   0x60             	MOVAR	_decade
0000f6   3f9f     addai   0x9f             	ADDAI	(_NUM_TABLE + 0)
0000f7   5617     movra   0x17             	MOVRA	r0x1037
0000f8   3c06     movai   0x6              	MOVAI	high (_NUM_TABLE + 0)
0000f9   f187     jbclr   0x187, 0         	JBCLR	PFLAG,0
0000fa   3f01     addai   0x1              	ADDAI	0x01
0000fb   5618     movra   0x18             	MOVRA	r0x1038
0000fc   5817     movar   0x17             	MOVAR	r0x1037
0000fd   5605     movra   0x5              	MOVRA	STK01
0000fe   5818     movar   0x18             	MOVAR	r0x1038
0000ff   5606     movra   0x6              	MOVRA	STK00
000100   3c80     movai   0x80             	MOVAI	0x80
000101   868d     call    0x68d            	CALL	__gptrget1
000102   5619     movra   0x19             	MOVRA	r0x1039
000103   5819     movar   0x19             	MOVAR	r0x1039
000104   5606     movra   0x6              	MOVRA	STK00
000105   3c6a     movai   0x6a             	MOVAI	0x6a
000106   813b     call    0x13b            	CALL	_TM1650_WriteByte
                                           ;	.line	993; "MC32F7361.c"	TM1650_WriteByte(0x6C, NUM_TABLE[hundred] | 0x04); // 3
000107   585f     movar   0x5f             	MOVAR	_hundred
000108   3f9f     addai   0x9f             	ADDAI	(_NUM_TABLE + 0)
000109   5617     movra   0x17             	MOVRA	r0x1037
00010a   3c06     movai   0x6              	MOVAI	high (_NUM_TABLE + 0)
00010b   f187     jbclr   0x187, 0         	JBCLR	PFLAG,0
00010c   3f01     addai   0x1              	ADDAI	0x01
00010d   5618     movra   0x18             	MOVRA	r0x1038
00010e   5817     movar   0x17             	MOVAR	r0x1037
00010f   5605     movra   0x5              	MOVRA	STK01
000110   5818     movar   0x18             	MOVAR	r0x1038
000111   5606     movra   0x6              	MOVRA	STK00
000112   3c80     movai   0x80             	MOVAI	0x80
000113   868d     call    0x68d            	CALL	__gptrget1
000114   5619     movra   0x19             	MOVRA	r0x1039
000115   3c04     movai   0x4              	MOVAI	0x04
000116   5c19     orar    0x19             	ORAR	r0x1039
000117   5617     movra   0x17             	MOVRA	r0x1037
000118   5817     movar   0x17             	MOVAR	r0x1037
000119   5606     movra   0x6              	MOVRA	STK00
00011a   3c6c     movai   0x6c             	MOVAI	0x6c
00011b   813b     call    0x13b            	CALL	_TM1650_WriteByte
                                           ;	.line	994; "MC32F7361.c"	TM1650_WriteByte(0x6E, NUM_TABLE[thousand]);       // 4
00011c   585e     movar   0x5e             	MOVAR	_thousand
00011d   3f9f     addai   0x9f             	ADDAI	(_NUM_TABLE + 0)
00011e   5617     movra   0x17             	MOVRA	r0x1037
00011f   3c06     movai   0x6              	MOVAI	high (_NUM_TABLE + 0)
000120   f187     jbclr   0x187, 0         	JBCLR	PFLAG,0
000121   3f01     addai   0x1              	ADDAI	0x01
000122   5619     movra   0x19             	MOVRA	r0x1039
000123   5817     movar   0x17             	MOVAR	r0x1037
000124   5605     movra   0x5              	MOVRA	STK01
000125   5819     movar   0x19             	MOVAR	r0x1039
000126   5606     movra   0x6              	MOVRA	STK00
000127   3c80     movai   0x80             	MOVAI	0x80
000128   868d     call    0x68d            	CALL	__gptrget1
000129   5622     movra   0x22             	MOVRA	r0x103A
00012a   5822     movar   0x22             	MOVAR	r0x103A
00012b   5606     movra   0x6              	MOVRA	STK00
00012c   3c6e     movai   0x6e             	MOVAI	0x6e
00012d   813b     call    0x13b            	CALL	_TM1650_WriteByte
                                           ;	.line	995; "MC32F7361.c"	}
00012e   000c     return                   	RETURN	
                                           ; exit point of _TM1650_DisplayNum
                                           
                                           ;***
                                           ;  pBlock Stats: dbName = C
                                           ;***
                                           ;entry:  _TM1650_Init	;Function start
                                           ; 2 exit points
                                           ;has an exit
                                           ;functions called:
                                           ;   _delay_ms
                                           ;   _TM1650_WriteByte
                                           ;   _delay_ms
                                           ;   _TM1650_WriteByte
                                           ;1 compiler assigned register :
                                           ;   STK00
                                           ;; Starting pCode block
                                           _TM1650_Init	;Function start
                                           ; 2 exit points
                                           ;	.line	932; "MC32F7361.c"	I2C_SDA_OUT();
00012f   c991     bset    0x191, 0x4       	BSET	_OEP0bits,4
                                           ;	.line	933; "MC32F7361.c"	I2C_SCL_OUT();
000130   c395     bset    0x195, 0x1       	BSET	_OEP1bits,1
                                           ;	.line	934; "MC32F7361.c"	I2C_SDA_H();
000131   c990     bset    0x190, 0x4       	BSET	_IOP0bits,4
                                           ;	.line	935; "MC32F7361.c"	delay_ms(5);
000132   3c05     movai   0x5              	MOVAI	0x05
000133   5606     movra   0x6              	MOVRA	STK00
000134   3c00     movai   0                	MOVAI	0x00
000135   85f4     call    0x5f4            	CALL	_delay_ms
                                           ;	.line	941; "MC32F7361.c"	TM1650_WriteByte(0x48, TM1650_DISPLAY_ON | TM1650_BRIGHT_MAX);
000136   3c71     movai   0x71             	MOVAI	0x71
000137   5606     movra   0x6              	MOVRA	STK00
000138   3c48     movai   0x48             	MOVAI	0x48
000139   813b     call    0x13b            	CALL	_TM1650_WriteByte
                                           ;	.line	945; "MC32F7361.c"	}
00013a   000c     return                   	RETURN	
                                           ; exit point of _TM1650_Init
                                           
                                           ;***
                                           ;  pBlock Stats: dbName = C
                                           ;***
                                           ;entry:  _TM1650_WriteByte	;Function start
                                           ; 2 exit points
                                           ;has an exit
                                           ;functions called:
                                           ;   _bsp_i2c_start
                                           ;   _bsp_i2c_tx_byte
                                           ;   _bsp_i2c_rx_ack
                                           ;   _bsp_i2c_tx_byte
                                           ;   _bsp_i2c_rx_ack
                                           ;   _bsp_i2c_stop
                                           ;   _bsp_i2c_start
                                           ;   _bsp_i2c_tx_byte
                                           ;   _bsp_i2c_rx_ack
                                           ;   _bsp_i2c_tx_byte
                                           ;   _bsp_i2c_rx_ack
                                           ;   _bsp_i2c_stop
                                           ;3 compiler assigned registers:
                                           ;   r0x1035
                                           ;   STK00
                                           ;   r0x1036
                                           ;; Starting pCode block
                                           _TM1650_WriteByte	;Function start
                                           ; 2 exit points
                                           ;	.line	902; "MC32F7361.c"	void TM1650_WriteByte(uint8_t addr, uint8_t data)
00013b   5615     movra   0x15             	MOVRA	r0x1035
00013c   5806     movar   0x6              	MOVAR	STK00
00013d   5616     movra   0x16             	MOVRA	r0x1036
                                           ;	.line	904; "MC32F7361.c"	bsp_i2c_start();
00013e   8177     call    0x177            	CALL	_bsp_i2c_start
                                           ;	.line	905; "MC32F7361.c"	bsp_i2c_tx_byte(addr);
00013f   5815     movar   0x15             	MOVAR	r0x1035
000140   815e     call    0x15e            	CALL	_bsp_i2c_tx_byte
                                           ;	.line	906; "MC32F7361.c"	bsp_i2c_rx_ack();
000141   8150     call    0x150            	CALL	_bsp_i2c_rx_ack
                                           ;	.line	907; "MC32F7361.c"	bsp_i2c_tx_byte(data);
000142   5816     movar   0x16             	MOVAR	r0x1036
000143   815e     call    0x15e            	CALL	_bsp_i2c_tx_byte
                                           ;	.line	908; "MC32F7361.c"	bsp_i2c_rx_ack();
000144   8150     call    0x150            	CALL	_bsp_i2c_rx_ack
                                           ;	.line	909; "MC32F7361.c"	bsp_i2c_stop();
000145   8147     call    0x147            	CALL	_bsp_i2c_stop
                                           ;	.line	910; "MC32F7361.c"	}
000146   000c     return                   	RETURN	
                                           ; exit point of _TM1650_WriteByte
                                           
                                           ;***
                                           ;  pBlock Stats: dbName = C
                                           ;***
                                           ;entry:  _bsp_i2c_stop	;Function start
                                           ; 2 exit points
                                           ;has an exit
                                           ;functions called:
                                           ;   _delay_us
                                           ;   _delay_us
                                           ;   _delay_us
                                           ;   _delay_us
                                           ;; Starting pCode block
                                           _bsp_i2c_stop	;Function start
                                           ; 2 exit points
                                           ;	.line	893; "MC32F7361.c"	I2C_SDA_OUT();
000147   c991     bset    0x191, 0x4       	BSET	_OEP0bits,4
                                           ;	.line	894; "MC32F7361.c"	I2C_SDA_L();
000148   d990     bclr    0x190, 0x4       	BCLR	_IOP0bits,4
                                           ;	.line	895; "MC32F7361.c"	delay_us(5);
000149   3c05     movai   0x5              	MOVAI	0x05
00014a   85eb     call    0x5eb            	CALL	_delay_us
                                           ;	.line	896; "MC32F7361.c"	I2C_SCL_H();
00014b   c394     bset    0x194, 0x1       	BSET	_IOP1bits,1
                                           ;	.line	897; "MC32F7361.c"	delay_us(5);
00014c   3c05     movai   0x5              	MOVAI	0x05
00014d   85eb     call    0x5eb            	CALL	_delay_us
                                           ;	.line	898; "MC32F7361.c"	I2C_SDA_H();
00014e   c990     bset    0x190, 0x4       	BSET	_IOP0bits,4
                                           ;	.line	899; "MC32F7361.c"	}
00014f   000c     return                   	RETURN	
                                           ; exit point of _bsp_i2c_stop
                                           
                                           ;***
                                           ;  pBlock Stats: dbName = C
                                           ;***
                                           ;entry:  _bsp_i2c_rx_ack	;Function start
                                           ; 2 exit points
                                           ;has an exit
                                           ;functions called:
                                           ;   _delay_us
                                           ;   _delay_us
                                           ;   _delay_us
                                           ;   _delay_us
                                           ;1 compiler assigned register :
                                           ;   r0x1032
                                           ;; Starting pCode block
                                           _bsp_i2c_rx_ack	;Function start
                                           ; 2 exit points
                                           ;	.line	878; "MC32F7361.c"	u8 ret = 0;
000150   7611     clrr    0x11             	CLRR	r0x1032
                                           ;	.line	879; "MC32F7361.c"	I2C_SDA_IN();
000151   d991     bclr    0x191, 0x4       	BCLR	_OEP0bits,4
                                           ;	.line	880; "MC32F7361.c"	delay_us(5);
000152   3c05     movai   0x5              	MOVAI	0x05
000153   85eb     call    0x5eb            	CALL	_delay_us
                                           ;	.line	881; "MC32F7361.c"	I2C_SCL_H();
000154   c394     bset    0x194, 0x1       	BSET	_IOP1bits,1
                                           ;	.line	882; "MC32F7361.c"	delay_us(5);
000155   3c05     movai   0x5              	MOVAI	0x05
000156   85eb     call    0x5eb            	CALL	_delay_us
                                           ;	.line	883; "MC32F7361.c"	if (!I2C_SDA_IS_H())
000157   f990     jbclr   0x190, 0x4       	JBCLR	_IOP0bits,4
000158   a15b     goto    0x15b            	GOTO	_00852_DS_
                                           ;	.line	886; "MC32F7361.c"	ret = 1;
000159   3c01     movai   0x1              	MOVAI	0x01
00015a   5611     movra   0x11             	MOVRA	r0x1032
                                           _00852_DS_
                                           ;	.line	888; "MC32F7361.c"	I2C_SCL_L();
00015b   d394     bclr    0x194, 0x1       	BCLR	_IOP1bits,1
                                           ;	.line	889; "MC32F7361.c"	return ret;
00015c   5811     movar   0x11             	MOVAR	r0x1032
                                           ;	.line	890; "MC32F7361.c"	}
00015d   000c     return                   	RETURN	
                                           ; exit point of _bsp_i2c_rx_ack
                                           
                                           ;***
                                           ;  pBlock Stats: dbName = C
                                           ;***
                                           ;entry:  _bsp_i2c_tx_byte	;Function start
                                           ; 2 exit points
                                           ;has an exit
                                           ;functions called:
                                           ;   _delay_us
                                           ;   _delay_us
                                           ;   _delay_us
                                           ;   _delay_us
                                           ;3 compiler assigned registers:
                                           ;   r0x1032
                                           ;   r0x1033
                                           ;   r0x1034
                                           ;; Starting pCode block
                                           _bsp_i2c_tx_byte	;Function start
                                           ; 2 exit points
                                           ;	.line	854; "MC32F7361.c"	void bsp_i2c_tx_byte(uint8_t dat)
00015e   5611     movra   0x11             	MOVRA	r0x1032
                                           ;	.line	857; "MC32F7361.c"	I2C_SDA_OUT();
00015f   c991     bset    0x191, 0x4       	BSET	_OEP0bits,4
                                           ;	.line	858; "MC32F7361.c"	for (i = 0; i < 8; i++)
000160   7613     clrr    0x13             	CLRR	r0x1033
                                           _00846_DS_
                                           ;	.line	860; "MC32F7361.c"	if (dat & 0x80)
000161   ee11     jbset   0x11, 0x7        	JBSET	r0x1032,7
000162   a165     goto    0x165            	GOTO	_00843_DS_
                                           ;	.line	862; "MC32F7361.c"	I2C_SDA_H();
000163   c990     bset    0x190, 0x4       	BSET	_IOP0bits,4
000164   a166     goto    0x166            	GOTO	_00844_DS_
                                           _00843_DS_
                                           ;	.line	866; "MC32F7361.c"	I2C_SDA_L();
000165   d990     bclr    0x190, 0x4       	BCLR	_IOP0bits,4
                                           _00844_DS_
                                           ;	.line	868; "MC32F7361.c"	delay_us(5);
000166   3c05     movai   0x5              	MOVAI	0x05
000167   85eb     call    0x5eb            	CALL	_delay_us
                                           ;	.line	869; "MC32F7361.c"	I2C_SCL_H();
000168   c394     bset    0x194, 0x1       	BSET	_IOP1bits,1
                                           ;	.line	870; "MC32F7361.c"	delay_us(5);
000169   3c05     movai   0x5              	MOVAI	0x05
00016a   85eb     call    0x5eb            	CALL	_delay_us
                                           ;	.line	871; "MC32F7361.c"	I2C_SCL_L();
00016b   d394     bclr    0x194, 0x1       	BCLR	_IOP1bits,1
                                           ;	.line	872; "MC32F7361.c"	dat <<= 1;
00016c   5811     movar   0x11             	MOVAR	r0x1032
00016d   5614     movra   0x14             	MOVRA	r0x1034
00016e   d187     bclr    0x187, 0         	BCLR	PFLAG,0
00016f   5014     rlar    0x14             	RLAR	r0x1034
000170   5611     movra   0x11             	MOVRA	r0x1032
                                           ;	.line	858; "MC32F7361.c"	for (i = 0; i < 8; i++)
000171   6613     incr    0x13             	INCR	r0x1033
                                           ;;unsigned compare: left < lit(0x8=8), size=1
000172   3c08     movai   0x8              	MOVAI	0x08
000173   4813     rsubar  0x13             	RSUBAR	r0x1033
000174   e187     jbset   0x187, 0         	JBSET	PFLAG,0
000175   a161     goto    0x161            	GOTO	_00846_DS_
                                           ;;genSkipc:3291: created from rifx:013B5EFC
                                           ;	.line	874; "MC32F7361.c"	}
000176   000c     return                   	RETURN	
                                           ; exit point of _bsp_i2c_tx_byte
                                           
                                           ;***
                                           ;  pBlock Stats: dbName = C
                                           ;***
                                           ;entry:  _bsp_i2c_start	;Function start
                                           ; 2 exit points
                                           ;has an exit
                                           ;functions called:
                                           ;   _delay_us
                                           ;   _delay_us
                                           ;   _delay_us
                                           ;   _delay_us
                                           ;; Starting pCode block
                                           _bsp_i2c_start	;Function start
                                           ; 2 exit points
                                           ;	.line	845; "MC32F7361.c"	I2C_SDA_OUT();
000177   c991     bset    0x191, 0x4       	BSET	_OEP0bits,4
                                           ;	.line	846; "MC32F7361.c"	I2C_SCL_OUT();
000178   c395     bset    0x195, 0x1       	BSET	_OEP1bits,1
                                           ;	.line	847; "MC32F7361.c"	I2C_SDA_H();
000179   c990     bset    0x190, 0x4       	BSET	_IOP0bits,4
                                           ;	.line	848; "MC32F7361.c"	I2C_SCL_H();
00017a   c394     bset    0x194, 0x1       	BSET	_IOP1bits,1
                                           ;	.line	849; "MC32F7361.c"	delay_us(5);
00017b   3c05     movai   0x5              	MOVAI	0x05
00017c   85eb     call    0x5eb            	CALL	_delay_us
                                           ;	.line	850; "MC32F7361.c"	I2C_SDA_L();
00017d   d990     bclr    0x190, 0x4       	BCLR	_IOP0bits,4
                                           ;	.line	851; "MC32F7361.c"	delay_us(5);
00017e   3c05     movai   0x5              	MOVAI	0x05
00017f   85eb     call    0x5eb            	CALL	_delay_us
                                           ;	.line	852; "MC32F7361.c"	I2C_SCL_L();
000180   d394     bclr    0x194, 0x1       	BCLR	_IOP1bits,1
                                           ;	.line	853; "MC32F7361.c"	}
000181   000c     return                   	RETURN	
                                           ; exit point of _bsp_i2c_start
                                           
                                           ;***
                                           ;  pBlock Stats: dbName = C
                                           ;***
                                           ;entry:  _key_ad_key_event_deal	;Function start
                                           ; 2 exit points
                                           ;has an exit
                                           ;functions called:
                                           ;   _ad_key_event_10ms_isr
                                           ;   __mulchar
                                           ;   __gptrget1
                                           ;   _TM1650_DisplayNum
                                           ;   _TM1650_DisplayNum
                                           ;   _TM1650_DisplayNum
                                           ;   _TM1650_DisplayNum
                                           ;   _ad_key_event_10ms_isr
                                           ;   __mulchar
                                           ;   __gptrget1
                                           ;   _TM1650_DisplayNum
                                           ;   _TM1650_DisplayNum
                                           ;   _TM1650_DisplayNum
                                           ;   _TM1650_DisplayNum
                                           ;5 compiler assigned registers:
                                           ;   r0x103B
                                           ;   STK00
                                           ;   r0x103C
                                           ;   STK01
                                           ;   r0x103D
                                           ;; Starting pCode block
                                           _key_ad_key_event_deal	;Function start
                                           ; 2 exit points
                                           ;	.line	547; "MC32F7361.c"	if (!flag_10ms)
000182   f062     jbclr   0x62, 0          	JBCLR	_flag1,0
000183   a185     goto    0x185            	GOTO	_00600_DS_
                                           ;	.line	548; "MC32F7361.c"	return;
000184   a2ad     goto    0x2ad            	GOTO	_00677_DS_
                                           _00600_DS_
                                           ;	.line	550; "MC32F7361.c"	flag_10ms = 0;
000185   d062     bclr    0x62, 0          	BCLR	_flag1,0
                                           ;	.line	552; "MC32F7361.c"	ad_key_event_10ms_isr();
000186   82ae     call    0x2ae            	CALL	_ad_key_event_10ms_isr
                                           ;	.line	555; "MC32F7361.c"	switch (cur_key_id)
000187   585b     movar   0x5b             	MOVAR	_cur_key_id
000188   5623     movra   0x23             	MOVRA	r0x103B
                                           ;;swapping arguments (AOP_TYPEs 1/2)
                                           ;;unsigned compare: left >= lit(0x6=6), size=1
000189   3c06     movai   0x6              	MOVAI	0x06
00018a   4823     rsubar  0x23             	RSUBAR	r0x103B
00018b   f187     jbclr   0x187, 0         	JBCLR	PFLAG,0
00018c   a195     goto    0x195            	GOTO	_00608_DS_
                                           ;;genSkipc:3291: created from rifx:013B5EFC
00018d   5823     movar   0x23             	MOVAR	r0x103B
00018e   7f86     addra   0x186            	ADDRA	PCL
00018f   a195     goto    0x195            	GOTO	_00608_DS_
000190   a195     goto    0x195            	GOTO	_00608_DS_
000191   a195     goto    0x195            	GOTO	_00608_DS_
000192   a195     goto    0x195            	GOTO	_00608_DS_
000193   a195     goto    0x195            	GOTO	_00608_DS_
000194   a195     goto    0x195            	GOTO	_00608_DS_
                                           ;;unsigned compare: left < lit(0x6=6), size=1
                                           _00608_DS_
                                           ;	.line	580; "MC32F7361.c"	if (cur_key_id < AD_KEY_ID_NONE && ad_key_event != KEY_EVENT_NONE)
000195   3c06     movai   0x6              	MOVAI	0x06
000196   485b     rsubar  0x5b             	RSUBAR	_cur_key_id
000197   f187     jbclr   0x187, 0         	JBCLR	PFLAG,0
000198   a2ad     goto    0x2ad            	GOTO	_00677_DS_
                                           ;;genSkipc:3291: created from rifx:013B5EFC
000199   585a     movar   0x5a             	MOVAR	_ad_key_event
00019a   3903     xorai   0x3              	XORAI	0x03
00019b   e587     jbset   0x187, 0x2       	JBSET	PFLAG,2
00019c   a19e     goto    0x19e            	GOTO	_00814_DS_
00019d   a2ad     goto    0x2ad            	GOTO	_00677_DS_
                                           _00814_DS_
                                           ;	.line	585; "MC32F7361.c"	switch (key_event_table[cur_key_id][ad_key_event])
00019e   3c03     movai   0x3              	MOVAI	0x03
00019f   5606     movra   0x6              	MOVRA	STK00
0001a0   585b     movar   0x5b             	MOVAR	_cur_key_id
0001a1   8664     call    0x664            	CALL	__mulchar
0001a2   5623     movra   0x23             	MOVRA	r0x103B
0001a3   5823     movar   0x23             	MOVAR	r0x103B
0001a4   3f7b     addai   0x7b             	ADDAI	(_key_event_table + 0)
0001a5   5623     movra   0x23             	MOVRA	r0x103B
0001a6   3c06     movai   0x6              	MOVAI	high (_key_event_table + 0)
0001a7   f187     jbclr   0x187, 0         	JBCLR	PFLAG,0
0001a8   3f01     addai   0x1              	ADDAI	0x01
0001a9   5624     movra   0x24             	MOVRA	r0x103C
0001aa   585a     movar   0x5a             	MOVAR	_ad_key_event
0001ab   7e23     addra   0x23             	ADDRA	r0x103B
0001ac   5824     movar   0x24             	MOVAR	r0x103C
0001ad   f187     jbclr   0x187, 0         	JBCLR	PFLAG,0
0001ae   3f01     addai   0x1              	ADDAI	0x01
0001af   5624     movra   0x24             	MOVRA	r0x103C
0001b0   5823     movar   0x23             	MOVAR	r0x103B
0001b1   5605     movra   0x5              	MOVRA	STK01
0001b2   5824     movar   0x24             	MOVAR	r0x103C
0001b3   5606     movra   0x6              	MOVRA	STK00
0001b4   3c80     movai   0x80             	MOVAI	0x80
0001b5   868d     call    0x68d            	CALL	__gptrget1
0001b6   5625     movra   0x25             	MOVRA	r0x103D
0001b7   5825     movar   0x25             	MOVAR	r0x103D
0001b8   3901     xorai   0x1              	XORAI	0x01
0001b9   e587     jbset   0x187, 0x2       	JBSET	PFLAG,2
0001ba   a1bc     goto    0x1bc            	GOTO	_00815_DS_
0001bb   a1ea     goto    0x1ea            	GOTO	_00609_DS_
                                           _00815_DS_
0001bc   5825     movar   0x25             	MOVAR	r0x103D
0001bd   3902     xorai   0x2              	XORAI	0x02
0001be   e587     jbset   0x187, 0x2       	JBSET	PFLAG,2
0001bf   a1c1     goto    0x1c1            	GOTO	_00816_DS_
0001c0   a2ab     goto    0x2ab            	GOTO	_00673_DS_
                                           _00816_DS_
0001c1   5825     movar   0x25             	MOVAR	r0x103D
0001c2   3903     xorai   0x3              	XORAI	0x03
0001c3   e587     jbset   0x187, 0x2       	JBSET	PFLAG,2
0001c4   a1c6     goto    0x1c6            	GOTO	_00817_DS_
0001c5   a1f3     goto    0x1f3            	GOTO	_00614_DS_
                                           _00817_DS_
0001c6   5825     movar   0x25             	MOVAR	r0x103D
0001c7   3905     xorai   0x5              	XORAI	0x05
0001c8   e587     jbset   0x187, 0x2       	JBSET	PFLAG,2
0001c9   a1cb     goto    0x1cb            	GOTO	_00818_DS_
0001ca   a214     goto    0x214            	GOTO	_00620_DS_
                                           _00818_DS_
0001cb   5825     movar   0x25             	MOVAR	r0x103D
0001cc   3908     xorai   0x8              	XORAI	0x08
0001cd   e587     jbset   0x187, 0x2       	JBSET	PFLAG,2
0001ce   a1d0     goto    0x1d0            	GOTO	_00819_DS_
0001cf   a274     goto    0x274            	GOTO	_00648_DS_
                                           _00819_DS_
0001d0   5825     movar   0x25             	MOVAR	r0x103D
0001d1   3909     xorai   0x9              	XORAI	0x09
0001d2   e587     jbset   0x187, 0x2       	JBSET	PFLAG,2
0001d3   a1d5     goto    0x1d5            	GOTO	_00820_DS_
0001d4   a27d     goto    0x27d            	GOTO	_00651_DS_
                                           _00820_DS_
0001d5   5825     movar   0x25             	MOVAR	r0x103D
0001d6   390b     xorai   0xb              	XORAI	0x0b
0001d7   e587     jbset   0x187, 0x2       	JBSET	PFLAG,2
0001d8   a1da     goto    0x1da            	GOTO	_00821_DS_
0001d9   a2ab     goto    0x2ab            	GOTO	_00673_DS_
                                           _00821_DS_
0001da   5825     movar   0x25             	MOVAR	r0x103D
0001db   390c     xorai   0xc              	XORAI	0x0c
0001dc   e587     jbset   0x187, 0x2       	JBSET	PFLAG,2
0001dd   a1df     goto    0x1df            	GOTO	_00822_DS_
0001de   a2ab     goto    0x2ab            	GOTO	_00673_DS_
                                           _00822_DS_
0001df   5825     movar   0x25             	MOVAR	r0x103D
0001e0   390e     xorai   0xe              	XORAI	0x0e
0001e1   e587     jbset   0x187, 0x2       	JBSET	PFLAG,2
0001e2   a1e4     goto    0x1e4            	GOTO	_00823_DS_
0001e3   a2ab     goto    0x2ab            	GOTO	_00673_DS_
                                           _00823_DS_
0001e4   5825     movar   0x25             	MOVAR	r0x103D
0001e5   390f     xorai   0xf              	XORAI	0x0f
0001e6   e587     jbset   0x187, 0x2       	JBSET	PFLAG,2
0001e7   a1e9     goto    0x1e9            	GOTO	_00824_DS_
0001e8   a28d     goto    0x28d            	GOTO	_00660_DS_
                                           _00824_DS_
0001e9   a2ab     goto    0x2ab            	GOTO	_00673_DS_
                                           _00609_DS_
                                           ;	.line	591; "MC32F7361.c"	if (flag_is_ble_open)
0001ea   e262     jbset   0x62, 0x1        	JBSET	_flag1,1
0001eb   a1ef     goto    0x1ef            	GOTO	_00611_DS_
                                           ;	.line	593; "MC32F7361.c"	BLE_CTL_PIN_IN();
0001ec   df95     bclr    0x195, 0x7       	BCLR	_OEP1bits,7
                                           ;	.line	594; "MC32F7361.c"	flag_is_ble_open = 0;
0001ed   d262     bclr    0x62, 0x1        	BCLR	_flag1,1
0001ee   a2ab     goto    0x2ab            	GOTO	_00673_DS_
                                           _00611_DS_
                                           ;	.line	598; "MC32F7361.c"	BLE_CTL_PIN_OUT();
0001ef   cf95     bset    0x195, 0x7       	BSET	_OEP1bits,7
                                           ;	.line	599; "MC32F7361.c"	BLE_CTL_PIN_LOW(); // 
0001f0   df94     bclr    0x194, 0x7       	BCLR	_IOP1bits,7
                                           ;	.line	600; "MC32F7361.c"	flag_is_ble_open = 1;
0001f1   c262     bset    0x62, 0x1        	BSET	_flag1,1
                                           ;	.line	603; "MC32F7361.c"	break;
0001f2   a2ab     goto    0x2ab            	GOTO	_00673_DS_
                                           _00614_DS_
                                           ;	.line	612; "MC32F7361.c"	switch (cur_light_status)
0001f3   5858     movar   0x58             	MOVAR	_cur_light_status
0001f4   5623     movra   0x23             	MOVRA	r0x103B
                                           ;;swapping arguments (AOP_TYPEs 1/2)
                                           ;;unsigned compare: left >= lit(0x3=3), size=1
0001f5   3c03     movai   0x3              	MOVAI	0x03
0001f6   4823     rsubar  0x23             	RSUBAR	r0x103B
0001f7   f187     jbclr   0x187, 0         	JBCLR	PFLAG,0
0001f8   a210     goto    0x210            	GOTO	_00618_DS_
                                           ;;genSkipc:3291: created from rifx:013B5EFC
0001f9   5823     movar   0x23             	MOVAR	r0x103B
0001fa   7f86     addra   0x186            	ADDRA	PCL
0001fb   a1fe     goto    0x1fe            	GOTO	_00615_DS_
0001fc   a203     goto    0x203            	GOTO	_00616_DS_
0001fd   a209     goto    0x209            	GOTO	_00617_DS_
                                           _00615_DS_
                                           ;	.line	616; "MC32F7361.c"	WHITE_PWM_DUTY_REG = cur_w_pwm_duty;
0001fe   5856     movar   0x56             	MOVAR	_cur_w_pwm_duty
0001ff   57a3     movra   0x1a3            	MOVRA	_T2DATA
                                           ;	.line	617; "MC32F7361.c"	cur_light_status = CUR_LIGHT_STATUS_WHITE;
000200   3c01     movai   0x1              	MOVAI	0x01
000201   5658     movra   0x58             	MOVRA	_cur_light_status
                                           ;	.line	618; "MC32F7361.c"	break;
000202   a2ab     goto    0x2ab            	GOTO	_00673_DS_
                                           _00616_DS_
                                           ;	.line	620; "MC32F7361.c"	WHITE_PWM_DUTY_REG = 0;
000203   77a3     clrr    0x1a3            	CLRR	_T2DATA
                                           ;	.line	621; "MC32F7361.c"	YELLOW_PWM_DUTY_REG = cur_y_pwm_duty;
000204   5857     movar   0x57             	MOVAR	_cur_y_pwm_duty
000205   579b     movra   0x19b            	MOVRA	_T0DATA
                                           ;	.line	622; "MC32F7361.c"	cur_light_status = CUR_LIGHT_STATUS_YELLOW;
000206   3c02     movai   0x2              	MOVAI	0x02
000207   5658     movra   0x58             	MOVRA	_cur_light_status
                                           ;	.line	623; "MC32F7361.c"	break;
000208   a2ab     goto    0x2ab            	GOTO	_00673_DS_
                                           _00617_DS_
                                           ;	.line	625; "MC32F7361.c"	WHITE_PWM_DUTY_REG = cur_w_pwm_duty;
000209   5856     movar   0x56             	MOVAR	_cur_w_pwm_duty
00020a   57a3     movra   0x1a3            	MOVRA	_T2DATA
                                           ;	.line	626; "MC32F7361.c"	YELLOW_PWM_DUTY_REG = cur_y_pwm_duty;
00020b   5857     movar   0x57             	MOVAR	_cur_y_pwm_duty
00020c   579b     movra   0x19b            	MOVRA	_T0DATA
                                           ;	.line	627; "MC32F7361.c"	cur_light_status = CUR_LIGHT_STATUS_WHITE_YELLOW;
00020d   3c03     movai   0x3              	MOVAI	0x03
00020e   5658     movra   0x58             	MOVRA	_cur_light_status
                                           ;	.line	628; "MC32F7361.c"	break;
00020f   a2ab     goto    0x2ab            	GOTO	_00673_DS_
                                           _00618_DS_
                                           ;	.line	630; "MC32F7361.c"	WHITE_PWM_DUTY_REG = 0;
000210   77a3     clrr    0x1a3            	CLRR	_T2DATA
                                           ;	.line	631; "MC32F7361.c"	YELLOW_PWM_DUTY_REG = 0;
000211   779b     clrr    0x19b            	CLRR	_T0DATA
                                           ;	.line	632; "MC32F7361.c"	cur_light_status = CUR_LIGHT_STATUS_OFF;
000212   7658     clrr    0x58             	CLRR	_cur_light_status
                                           ;	.line	636; "MC32F7361.c"	break;
000213   a2ab     goto    0x2ab            	GOTO	_00673_DS_
                                           _00620_DS_
                                           ;	.line	648; "MC32F7361.c"	if (adjust_pwm_dir)
000214   e462     jbset   0x62, 0x2        	JBSET	_flag1,2
000215   a245     goto    0x245            	GOTO	_00646_DS_
                                           ;	.line	650; "MC32F7361.c"	if (CUR_LIGHT_STATUS_WHITE == cur_light_status ||
000216   5858     movar   0x58             	MOVAR	_cur_light_status
000217   3901     xorai   0x1              	XORAI	0x01
000218   e587     jbset   0x187, 0x2       	JBSET	PFLAG,2
000219   a21b     goto    0x21b            	GOTO	_00827_DS_
00021a   a21f     goto    0x21f            	GOTO	_00624_DS_
                                           _00827_DS_
                                           ;	.line	651; "MC32F7361.c"	CUR_LIGHT_STATUS_WHITE_YELLOW == cur_light_status)
00021b   5858     movar   0x58             	MOVAR	_cur_light_status
00021c   3903     xorai   0x3              	XORAI	0x03
00021d   e587     jbset   0x187, 0x2       	JBSET	PFLAG,2
00021e   a22d     goto    0x22d            	GOTO	_00625_DS_
                                           ;;unsigned compare: left < lit(0xEC=236), size=1
                                           _00624_DS_
                                           ;	.line	654; "MC32F7361.c"	if (cur_w_pwm_duty < 255 - 19)
00021f   3cec     movai   0xec             	MOVAI	0xec
000220   4856     rsubar  0x56             	RSUBAR	_cur_w_pwm_duty
000221   f187     jbclr   0x187, 0         	JBCLR	PFLAG,0
000222   a229     goto    0x229            	GOTO	_00622_DS_
                                           ;;genSkipc:3291: created from rifx:013B5EFC
                                           ;	.line	656; "MC32F7361.c"	cur_w_pwm_duty += 18;
000223   5856     movar   0x56             	MOVAR	_cur_w_pwm_duty
000224   5623     movra   0x23             	MOVRA	r0x103B
000225   3c12     movai   0x12             	MOVAI	0x12
000226   7c23     addar   0x23             	ADDAR	r0x103B
000227   5656     movra   0x56             	MOVRA	_cur_w_pwm_duty
000228   a22b     goto    0x22b            	GOTO	_00623_DS_
                                           _00622_DS_
                                           ;	.line	660; "MC32F7361.c"	cur_w_pwm_duty = 255;
000229   3cff     movai   0xff             	MOVAI	0xff
00022a   5656     movra   0x56             	MOVRA	_cur_w_pwm_duty
                                           _00623_DS_
                                           ;	.line	663; "MC32F7361.c"	WHITE_PWM_DUTY_REG = cur_w_pwm_duty;
00022b   5856     movar   0x56             	MOVAR	_cur_w_pwm_duty
00022c   57a3     movra   0x1a3            	MOVRA	_T2DATA
                                           _00625_DS_
                                           ;	.line	666; "MC32F7361.c"	if (CUR_LIGHT_STATUS_YELLOW == cur_light_status ||
00022d   5858     movar   0x58             	MOVAR	_cur_light_status
00022e   3902     xorai   0x2              	XORAI	0x02
00022f   e587     jbset   0x187, 0x2       	JBSET	PFLAG,2
000230   a232     goto    0x232            	GOTO	_00829_DS_
000231   a236     goto    0x236            	GOTO	_00630_DS_
                                           _00829_DS_
                                           ;	.line	667; "MC32F7361.c"	CUR_LIGHT_STATUS_WHITE_YELLOW == cur_light_status)
000232   5858     movar   0x58             	MOVAR	_cur_light_status
000233   3903     xorai   0x3              	XORAI	0x03
000234   e587     jbset   0x187, 0x2       	JBSET	PFLAG,2
000235   a2ab     goto    0x2ab            	GOTO	_00673_DS_
                                           ;;unsigned compare: left < lit(0xEC=236), size=1
                                           _00630_DS_
                                           ;	.line	669; "MC32F7361.c"	if (cur_y_pwm_duty < 255 - 19)
000236   3cec     movai   0xec             	MOVAI	0xec
000237   4857     rsubar  0x57             	RSUBAR	_cur_y_pwm_duty
000238   f187     jbclr   0x187, 0         	JBCLR	PFLAG,0
000239   a240     goto    0x240            	GOTO	_00628_DS_
                                           ;;genSkipc:3291: created from rifx:013B5EFC
                                           ;	.line	671; "MC32F7361.c"	cur_y_pwm_duty += 18;
00023a   5857     movar   0x57             	MOVAR	_cur_y_pwm_duty
00023b   5623     movra   0x23             	MOVRA	r0x103B
00023c   3c12     movai   0x12             	MOVAI	0x12
00023d   7c23     addar   0x23             	ADDAR	r0x103B
00023e   5657     movra   0x57             	MOVRA	_cur_y_pwm_duty
00023f   a242     goto    0x242            	GOTO	_00629_DS_
                                           _00628_DS_
                                           ;	.line	675; "MC32F7361.c"	cur_y_pwm_duty = 255;
000240   3cff     movai   0xff             	MOVAI	0xff
000241   5657     movra   0x57             	MOVRA	_cur_y_pwm_duty
                                           _00629_DS_
                                           ;	.line	678; "MC32F7361.c"	YELLOW_PWM_DUTY_REG = cur_y_pwm_duty;
000242   5857     movar   0x57             	MOVAR	_cur_y_pwm_duty
000243   579b     movra   0x19b            	MOVRA	_T0DATA
000244   a2ab     goto    0x2ab            	GOTO	_00673_DS_
                                           _00646_DS_
                                           ;	.line	683; "MC32F7361.c"	if (CUR_LIGHT_STATUS_WHITE == cur_light_status ||
000245   5858     movar   0x58             	MOVAR	_cur_light_status
000246   3901     xorai   0x1              	XORAI	0x01
000247   e587     jbset   0x187, 0x2       	JBSET	PFLAG,2
000248   a24a     goto    0x24a            	GOTO	_00831_DS_
000249   a24e     goto    0x24e            	GOTO	_00636_DS_
                                           _00831_DS_
                                           ;	.line	684; "MC32F7361.c"	CUR_LIGHT_STATUS_WHITE_YELLOW == cur_light_status)
00024a   5858     movar   0x58             	MOVAR	_cur_light_status
00024b   3903     xorai   0x3              	XORAI	0x03
00024c   e587     jbset   0x187, 0x2       	JBSET	PFLAG,2
00024d   a25c     goto    0x25c            	GOTO	_00637_DS_
                                           ;;swapping arguments (AOP_TYPEs 1/3)
                                           ;;unsigned compare: left >= lit(0x2D=45), size=1
                                           _00636_DS_
                                           ;	.line	687; "MC32F7361.c"	if (cur_w_pwm_duty > 25 + 19)
00024e   3c2d     movai   0x2d             	MOVAI	0x2d
00024f   4856     rsubar  0x56             	RSUBAR	_cur_w_pwm_duty
000250   e187     jbset   0x187, 0         	JBSET	PFLAG,0
000251   a258     goto    0x258            	GOTO	_00634_DS_
                                           ;;genSkipc:3291: created from rifx:013B5EFC
                                           ;	.line	689; "MC32F7361.c"	cur_w_pwm_duty -= 18;
000252   5856     movar   0x56             	MOVAR	_cur_w_pwm_duty
000253   5623     movra   0x23             	MOVRA	r0x103B
000254   3cee     movai   0xee             	MOVAI	0xee
000255   7c23     addar   0x23             	ADDAR	r0x103B
000256   5656     movra   0x56             	MOVRA	_cur_w_pwm_duty
000257   a25a     goto    0x25a            	GOTO	_00635_DS_
                                           _00634_DS_
                                           ;	.line	693; "MC32F7361.c"	cur_w_pwm_duty = 25;
000258   3c19     movai   0x19             	MOVAI	0x19
000259   5656     movra   0x56             	MOVRA	_cur_w_pwm_duty
                                           _00635_DS_
                                           ;	.line	696; "MC32F7361.c"	WHITE_PWM_DUTY_REG = cur_w_pwm_duty;
00025a   5856     movar   0x56             	MOVAR	_cur_w_pwm_duty
00025b   57a3     movra   0x1a3            	MOVRA	_T2DATA
                                           _00637_DS_
                                           ;	.line	699; "MC32F7361.c"	if (CUR_LIGHT_STATUS_YELLOW == cur_light_status ||
00025c   5858     movar   0x58             	MOVAR	_cur_light_status
00025d   3902     xorai   0x2              	XORAI	0x02
00025e   e587     jbset   0x187, 0x2       	JBSET	PFLAG,2
00025f   a261     goto    0x261            	GOTO	_00833_DS_
000260   a265     goto    0x265            	GOTO	_00642_DS_
                                           _00833_DS_
                                           ;	.line	700; "MC32F7361.c"	CUR_LIGHT_STATUS_WHITE_YELLOW == cur_light_status)
000261   5858     movar   0x58             	MOVAR	_cur_light_status
000262   3903     xorai   0x3              	XORAI	0x03
000263   e587     jbset   0x187, 0x2       	JBSET	PFLAG,2
000264   a2ab     goto    0x2ab            	GOTO	_00673_DS_
                                           ;;swapping arguments (AOP_TYPEs 1/3)
                                           ;;unsigned compare: left >= lit(0x2D=45), size=1
                                           _00642_DS_
                                           ;	.line	702; "MC32F7361.c"	if (cur_y_pwm_duty > 25 + 19)
000265   3c2d     movai   0x2d             	MOVAI	0x2d
000266   4857     rsubar  0x57             	RSUBAR	_cur_y_pwm_duty
000267   e187     jbset   0x187, 0         	JBSET	PFLAG,0
000268   a26f     goto    0x26f            	GOTO	_00640_DS_
                                           ;;genSkipc:3291: created from rifx:013B5EFC
                                           ;	.line	704; "MC32F7361.c"	cur_y_pwm_duty -= 18;
000269   5857     movar   0x57             	MOVAR	_cur_y_pwm_duty
00026a   5623     movra   0x23             	MOVRA	r0x103B
00026b   3cee     movai   0xee             	MOVAI	0xee
00026c   7c23     addar   0x23             	ADDAR	r0x103B
00026d   5657     movra   0x57             	MOVRA	_cur_y_pwm_duty
00026e   a271     goto    0x271            	GOTO	_00641_DS_
                                           _00640_DS_
                                           ;	.line	708; "MC32F7361.c"	cur_y_pwm_duty = 25;
00026f   3c19     movai   0x19             	MOVAI	0x19
000270   5657     movra   0x57             	MOVRA	_cur_y_pwm_duty
                                           _00641_DS_
                                           ;	.line	711; "MC32F7361.c"	YELLOW_PWM_DUTY_REG = cur_y_pwm_duty;
000271   5857     movar   0x57             	MOVAR	_cur_y_pwm_duty
000272   579b     movra   0x19b            	MOVRA	_T0DATA
                                           ;	.line	715; "MC32F7361.c"	break;
000273   a2ab     goto    0x2ab            	GOTO	_00673_DS_
                                           _00648_DS_
                                           ;	.line	720; "MC32F7361.c"	set_time_hold_cnt++;
000274   665c     incr    0x5c             	INCR	_set_time_hold_cnt
                                           ;;unsigned compare: left < lit(0xE=14), size=1
                                           ;	.line	721; "MC32F7361.c"	if (set_time_hold_cnt >= 14) // 14 * 150ms == 2100ms
000275   3c0e     movai   0xe              	MOVAI	0x0e
000276   485c     rsubar  0x5c             	RSUBAR	_set_time_hold_cnt
000277   e187     jbset   0x187, 0         	JBSET	PFLAG,0
000278   a2ab     goto    0x2ab            	GOTO	_00673_DS_
                                           ;;genSkipc:3291: created from rifx:013B5EFC
                                           ;	.line	723; "MC32F7361.c"	set_time_hold_cnt = 0;
000279   765c     clrr    0x5c             	CLRR	_set_time_hold_cnt
                                           ;	.line	724; "MC32F7361.c"	cur_status = STATUS_SET_TIME_HOUR;
00027a   3c01     movai   0x1              	MOVAI	0x01
00027b   565d     movra   0x5d             	MOVRA	_cur_status
                                           ;	.line	727; "MC32F7361.c"	break;
00027c   a2ab     goto    0x2ab            	GOTO	_00673_DS_
                                           _00651_DS_
                                           ;	.line	731; "MC32F7361.c"	set_time_done_cnt = 0;
00027d   7652     clrr    0x52             	CLRR	_set_time_done_cnt
00027e   7653     clrr    0x53             	CLRR	(_set_time_done_cnt + 1)
                                           ;	.line	732; "MC32F7361.c"	set_time_delay_cnt = 0;
00027f   7650     clrr    0x50             	CLRR	_set_time_delay_cnt
000280   7651     clrr    0x51             	CLRR	(_set_time_delay_cnt + 1)
                                           ;	.line	733; "MC32F7361.c"	if (STATUS_SET_TIME_HOUR == cur_status)
000281   585d     movar   0x5d             	MOVAR	_cur_status
000282   3901     xorai   0x1              	XORAI	0x01
000283   e587     jbset   0x187, 0x2       	JBSET	PFLAG,2
000284   a287     goto    0x287            	GOTO	_00655_DS_
                                           ;	.line	746; "MC32F7361.c"	TM1650_DisplayNum();
000285   80e3     call    0xe3             	CALL	_TM1650_DisplayNum
000286   a2ab     goto    0x2ab            	GOTO	_00673_DS_
                                           _00655_DS_
                                           ;	.line	748; "MC32F7361.c"	else if (STATUS_SET_TIME_MIN == cur_status)
000287   585d     movar   0x5d             	MOVAR	_cur_status
000288   3902     xorai   0x2              	XORAI	0x02
000289   e587     jbset   0x187, 0x2       	JBSET	PFLAG,2
00028a   a2ab     goto    0x2ab            	GOTO	_00673_DS_
                                           ;	.line	760; "MC32F7361.c"	TM1650_DisplayNum();
00028b   80e3     call    0xe3             	CALL	_TM1650_DisplayNum
                                           ;	.line	763; "MC32F7361.c"	break;
00028c   a2ab     goto    0x2ab            	GOTO	_00673_DS_
                                           _00660_DS_
                                           ;	.line	779; "MC32F7361.c"	set_time_done_cnt = 0;
00028d   7652     clrr    0x52             	CLRR	_set_time_done_cnt
00028e   7653     clrr    0x53             	CLRR	(_set_time_done_cnt + 1)
                                           ;	.line	780; "MC32F7361.c"	set_time_delay_cnt = 0;
00028f   7650     clrr    0x50             	CLRR	_set_time_delay_cnt
000290   7651     clrr    0x51             	CLRR	(_set_time_delay_cnt + 1)
                                           ;	.line	781; "MC32F7361.c"	if (STATUS_SET_TIME_HOUR == cur_status)
000291   585d     movar   0x5d             	MOVAR	_cur_status
000292   3901     xorai   0x1              	XORAI	0x01
000293   e587     jbset   0x187, 0x2       	JBSET	PFLAG,2
000294   a2a6     goto    0x2a6            	GOTO	_00669_DS_
                                           ;;unsigned compare: left < lit(0x2=2), size=1
                                           ;	.line	793; "MC32F7361.c"	if (thousand < 2 && hundred < 3)
000295   3c02     movai   0x2              	MOVAI	0x02
000296   485e     rsubar  0x5e             	RSUBAR	_thousand
000297   f187     jbclr   0x187, 0         	JBCLR	PFLAG,0
000298   a2a4     goto    0x2a4            	GOTO	_00664_DS_
                                           ;;genSkipc:3291: created from rifx:013B5EFC
                                           ;;unsigned compare: left < lit(0x3=3), size=1
000299   3c03     movai   0x3              	MOVAI	0x03
00029a   485f     rsubar  0x5f             	RSUBAR	_hundred
00029b   f187     jbclr   0x187, 0         	JBCLR	PFLAG,0
00029c   a2a4     goto    0x2a4            	GOTO	_00664_DS_
                                           ;;genSkipc:3291: created from rifx:013B5EFC
                                           ;	.line	795; "MC32F7361.c"	hundred++;
00029d   665f     incr    0x5f             	INCR	_hundred
                                           ;;swapping arguments (AOP_TYPEs 1/3)
                                           ;;unsigned compare: left >= lit(0x3=3), size=1
                                           ;	.line	796; "MC32F7361.c"	if (hundred > 2)
00029e   3c03     movai   0x3              	MOVAI	0x03
00029f   485f     rsubar  0x5f             	RSUBAR	_hundred
0002a0   e187     jbset   0x187, 0         	JBSET	PFLAG,0
0002a1   a2a4     goto    0x2a4            	GOTO	_00664_DS_
                                           ;;genSkipc:3291: created from rifx:013B5EFC
                                           ;	.line	798; "MC32F7361.c"	hundred = 0;
0002a2   765f     clrr    0x5f             	CLRR	_hundred
                                           ;	.line	799; "MC32F7361.c"	thousand++;
0002a3   665e     incr    0x5e             	INCR	_thousand
                                           _00664_DS_
                                           ;	.line	803; "MC32F7361.c"	TM1650_DisplayNum();
0002a4   80e3     call    0xe3             	CALL	_TM1650_DisplayNum
0002a5   a2ab     goto    0x2ab            	GOTO	_00673_DS_
                                           _00669_DS_
                                           ;	.line	805; "MC32F7361.c"	else if (STATUS_SET_TIME_MIN == cur_status)
0002a6   585d     movar   0x5d             	MOVAR	_cur_status
0002a7   3902     xorai   0x2              	XORAI	0x02
0002a8   e587     jbset   0x187, 0x2       	JBSET	PFLAG,2
0002a9   a2ab     goto    0x2ab            	GOTO	_00673_DS_
                                           ;	.line	817; "MC32F7361.c"	TM1650_DisplayNum();
0002aa   80e3     call    0xe3             	CALL	_TM1650_DisplayNum
                                           _00673_DS_
                                           ;	.line	830; "MC32F7361.c"	ad_key_event = KEY_EVENT_NONE; // 
0002ab   3c03     movai   0x3              	MOVAI	0x03
0002ac   565a     movra   0x5a             	MOVRA	_ad_key_event
                                           _00677_DS_
                                           ;	.line	832; "MC32F7361.c"	}
0002ad   000c     return                   	RETURN	
                                           ; exit point of _key_ad_key_event_deal
                                           
                                           ;***
                                           ;  pBlock Stats: dbName = C
                                           ;***
                                           ;entry:  _ad_key_event_10ms_isr	;Function start
                                           ; 2 exit points
                                           ;has an exit
                                           ;functions called:
                                           ;   _get_key_id
                                           ;   _get_key_id
                                           ;; Starting pCode block
                                           _ad_key_event_10ms_isr	;Function start
                                           ; 2 exit points
                                           ;	.line	459; "MC32F7361.c"	cur_key_id = get_key_id();
0002ae   82e7     call    0x2e7            	CALL	_get_key_id
0002af   565b     movra   0x5b             	MOVRA	_cur_key_id
                                           ;	.line	490; "MC32F7361.c"	if (last_key_id != cur_key_id) //  / 
0002b0   585b     movar   0x5b             	MOVAR	_cur_key_id
0002b1   4032     xorar   0x32             	XORAR	_ad_key_event_10ms_isr_last_key_id_65536_105
0002b2   e587     jbset   0x187, 0x2       	JBSET	PFLAG,2
0002b3   a2b5     goto    0x2b5            	GOTO	_00592_DS_
0002b4   a2cf     goto    0x2cf            	GOTO	_00552_DS_
                                           _00592_DS_
                                           ;	.line	492; "MC32F7361.c"	if (last_key_id == AD_KEY_ID_NONE)
0002b5   5832     movar   0x32             	MOVAR	_ad_key_event_10ms_isr_last_key_id_65536_105
0002b6   3906     xorai   0x6              	XORAI	0x06
0002b7   e587     jbset   0x187, 0x2       	JBSET	PFLAG,2
0002b8   a2bb     goto    0x2bb            	GOTO	_00542_DS_
                                           ;	.line	494; "MC32F7361.c"	count = 0;
0002b9   7631     clrr    0x31             	CLRR	_ad_key_event_10ms_isr_count_65536_105
0002ba   a2e4     goto    0x2e4            	GOTO	_00553_DS_
                                           _00542_DS_
                                           ;	.line	496; "MC32F7361.c"	else if (cur_key_id == AD_KEY_ID_NONE)
0002bb   585b     movar   0x5b             	MOVAR	_cur_key_id
0002bc   3906     xorai   0x6              	XORAI	0x06
0002bd   e587     jbset   0x187, 0x2       	JBSET	PFLAG,2
0002be   a2e4     goto    0x2e4            	GOTO	_00553_DS_
                                           ;;unsigned compare: left < lit(0x4B=75), size=1
                                           ;	.line	498; "MC32F7361.c"	if (count < 75)
0002bf   3c4b     movai   0x4b             	MOVAI	0x4b
0002c0   4831     rsubar  0x31             	RSUBAR	_ad_key_event_10ms_isr_count_65536_105
0002c1   f187     jbclr   0x187, 0         	JBCLR	PFLAG,0
0002c2   a2c5     goto    0x2c5            	GOTO	_00537_DS_
                                           ;;genSkipc:3291: created from rifx:013B5EFC
                                           ;	.line	501; "MC32F7361.c"	ad_key_event = KEY_EVENT_CLICK;
0002c3   765a     clrr    0x5a             	CLRR	_ad_key_event
0002c4   a2e4     goto    0x2e4            	GOTO	_00553_DS_
                                           _00537_DS_
                                           ;	.line	507; "MC32F7361.c"	if (AD_KEY_ID_MID == last_key_id)
0002c5   5832     movar   0x32             	MOVAR	_ad_key_event_10ms_isr_last_key_id_65536_105
0002c6   3901     xorai   0x1              	XORAI	0x01
0002c7   e587     jbset   0x187, 0x2       	JBSET	PFLAG,2
0002c8   a2e4     goto    0x2e4            	GOTO	_00553_DS_
                                           ;	.line	512; "MC32F7361.c"	if (adjust_pwm_dir)
0002c9   e462     jbset   0x62, 0x2        	JBSET	_flag1,2
0002ca   a2cd     goto    0x2cd            	GOTO	_00532_DS_
                                           ;	.line	514; "MC32F7361.c"	adjust_pwm_dir = 0;
0002cb   d462     bclr    0x62, 0x2        	BCLR	_flag1,2
0002cc   a2e4     goto    0x2e4            	GOTO	_00553_DS_
                                           _00532_DS_
                                           ;	.line	518; "MC32F7361.c"	adjust_pwm_dir = 1;
0002cd   c462     bset    0x62, 0x2        	BSET	_flag1,2
0002ce   a2e4     goto    0x2e4            	GOTO	_00553_DS_
                                           _00552_DS_
                                           ;	.line	528; "MC32F7361.c"	else if (cur_key_id != AD_KEY_ID_NONE)
0002cf   585b     movar   0x5b             	MOVAR	_cur_key_id
0002d0   3906     xorai   0x6              	XORAI	0x06
0002d1   e587     jbset   0x187, 0x2       	JBSET	PFLAG,2
0002d2   a2d4     goto    0x2d4            	GOTO	_00594_DS_
0002d3   a2e4     goto    0x2e4            	GOTO	_00553_DS_
                                           _00594_DS_
                                           ;	.line	530; "MC32F7361.c"	count++;
0002d4   6631     incr    0x31             	INCR	_ad_key_event_10ms_isr_count_65536_105
                                           ;	.line	531; "MC32F7361.c"	if (count == 75)
0002d5   5831     movar   0x31             	MOVAR	_ad_key_event_10ms_isr_count_65536_105
0002d6   394b     xorai   0x4b             	XORAI	0x4b
0002d7   e587     jbset   0x187, 0x2       	JBSET	PFLAG,2
0002d8   a2dc     goto    0x2dc            	GOTO	_00547_DS_
                                           ;	.line	533; "MC32F7361.c"	ad_key_event = KEY_EVENT_LONG;
0002d9   3c01     movai   0x1              	MOVAI	0x01
0002da   565a     movra   0x5a             	MOVRA	_ad_key_event
0002db   a2e4     goto    0x2e4            	GOTO	_00553_DS_
                                           ;;unsigned compare: left < lit(0x5A=90), size=1
                                           _00547_DS_
                                           ;	.line	535; "MC32F7361.c"	else if (count >= 75 + 15)
0002dc   3c5a     movai   0x5a             	MOVAI	0x5a
0002dd   4831     rsubar  0x31             	RSUBAR	_ad_key_event_10ms_isr_count_65536_105
0002de   e187     jbset   0x187, 0         	JBSET	PFLAG,0
0002df   a2e4     goto    0x2e4            	GOTO	_00553_DS_
                                           ;;genSkipc:3291: created from rifx:013B5EFC
                                           ;	.line	537; "MC32F7361.c"	ad_key_event = KEY_EVENT_HOLD;
0002e0   3c02     movai   0x2              	MOVAI	0x02
0002e1   565a     movra   0x5a             	MOVRA	_ad_key_event
                                           ;	.line	538; "MC32F7361.c"	count = 75;
0002e2   3c4b     movai   0x4b             	MOVAI	0x4b
0002e3   5631     movra   0x31             	MOVRA	_ad_key_event_10ms_isr_count_65536_105
                                           _00553_DS_
                                           ;	.line	542; "MC32F7361.c"	last_key_id = cur_key_id;
0002e4   585b     movar   0x5b             	MOVAR	_cur_key_id
0002e5   5632     movra   0x32             	MOVRA	_ad_key_event_10ms_isr_last_key_id_65536_105
                                           ;	.line	543; "MC32F7361.c"	}
0002e6   000c     return                   	RETURN	
                                           ; exit point of _ad_key_event_10ms_isr
                                           
                                           ;***
                                           ;  pBlock Stats: dbName = C
                                           ;***
                                           ;entry:  _get_key_id	;Function start
                                           ; 2 exit points
                                           ;has an exit
                                           ;functions called:
                                           ;   _adc_single_convert
                                           ;   __gptrget1
                                           ;   _adc_single_convert
                                           ;   __gptrget1
                                           ;5 compiler assigned registers:
                                           ;   r0x1037
                                           ;   STK00
                                           ;   r0x1038
                                           ;   STK01
                                           ;   r0x1039
                                           ;; Starting pCode block
                                           _get_key_id	;Function start
                                           ; 2 exit points
                                           ;	.line	442; "MC32F7361.c"	adc_val = adc_single_convert() >> 4;
0002e7   83af     call    0x3af            	CALL	_adc_single_convert
0002e8   5617     movra   0x17             	MOVRA	r0x1037
0002e9   5806     movar   0x6              	MOVAR	STK00
0002ea   5618     movra   0x18             	MOVRA	r0x1038
0002eb   4418     swapar  0x18             	SWAPAR	r0x1038
0002ec   3e0f     andai   0xf              	ANDAI	0x0f
0002ed   564e     movra   0x4e             	MOVRA	_adc_val
0002ee   4417     swapar  0x17             	SWAPAR	r0x1037
0002ef   564f     movra   0x4f             	MOVRA	(_adc_val + 1)
0002f0   3ef0     andai   0xf0             	ANDAI	0xf0
0002f1   5e4e     orra    0x4e             	ORRA	_adc_val
0002f2   424f     xorra   0x4f             	XORRA	(_adc_val + 1)
                                           ;	.line	443; "MC32F7361.c"	for (i = 0; i < AD_KEY_ID_NONE; i++)
0002f3   7644     clrr    0x44             	CLRR	_i
0002f4   7645     clrr    0x45             	CLRR	(_i + 1)
                                           _00509_DS_
                                           ;	.line	445; "MC32F7361.c"	if (adc_val <= id_table[i])
0002f5   5844     movar   0x44             	MOVAR	_i
0002f6   3f01     addai   0x1              	ADDAI	(_id_table + 0)
0002f7   5618     movra   0x18             	MOVRA	r0x1038
0002f8   3c00     movai   0                	MOVAI	high (_id_table + 0)
0002f9   5617     movra   0x17             	MOVRA	r0x1037
0002fa   5845     movar   0x45             	MOVAR	(_i + 1)
0002fb   f187     jbclr   0x187, 0         	JBCLR	PFLAG,0
0002fc   6045     jzar    0x45             	JZAR	(_i + 1)
0002fd   7e17     addra   0x17             	ADDRA	r0x1037
0002fe   5818     movar   0x18             	MOVAR	r0x1038
0002ff   5605     movra   0x5              	MOVRA	STK01
000300   5817     movar   0x17             	MOVAR	r0x1037
000301   5606     movra   0x6              	MOVRA	STK00
000302   3c80     movai   0x80             	MOVAI	0x80
000303   868d     call    0x68d            	CALL	__gptrget1
000304   5618     movra   0x18             	MOVRA	r0x1038
                                           ;;1	MOVRA	r0x1039
                                           ;;105	MOVAR	r0x1039
000305   7617     clrr    0x17             	CLRR	r0x1037
000306   584f     movar   0x4f             	MOVAR	(_adc_val + 1)
000307   4817     rsubar  0x17             	RSUBAR	r0x1037
000308   e587     jbset   0x187, 0x2       	JBSET	PFLAG,2
000309   a30c     goto    0x30c            	GOTO	_00525_DS_
00030a   584e     movar   0x4e             	MOVAR	_adc_val
00030b   4818     rsubar  0x18             	RSUBAR	r0x1038
                                           _00525_DS_
00030c   e187     jbset   0x187, 0         	JBSET	PFLAG,0
00030d   a312     goto    0x312            	GOTO	_00510_DS_
                                           ;;genSkipc:3291: created from rifx:013B5EFC
                                           ;	.line	446; "MC32F7361.c"	return i;
00030e   5844     movar   0x44             	MOVAR	_i
00030f   5618     movra   0x18             	MOVRA	r0x1038
000310   5818     movar   0x18             	MOVAR	r0x1038
000311   a31e     goto    0x31e            	GOTO	_00511_DS_
                                           _00510_DS_
                                           ;	.line	443; "MC32F7361.c"	for (i = 0; i < AD_KEY_ID_NONE; i++)
000312   6644     incr    0x44             	INCR	_i
000313   f587     jbclr   0x187, 0x2       	JBCLR	PFLAG,2
000314   6645     incr    0x45             	INCR	(_i + 1)
                                           ;;unsigned compare: left < lit(0x6=6), size=2
000315   3c00     movai   0                	MOVAI	0x00
000316   4845     rsubar  0x45             	RSUBAR	(_i + 1)
000317   e587     jbset   0x187, 0x2       	JBSET	PFLAG,2
000318   a31b     goto    0x31b            	GOTO	_00526_DS_
000319   3c06     movai   0x6              	MOVAI	0x06
00031a   4844     rsubar  0x44             	RSUBAR	_i
                                           _00526_DS_
00031b   e187     jbset   0x187, 0         	JBSET	PFLAG,0
00031c   a2f5     goto    0x2f5            	GOTO	_00509_DS_
                                           ;;genSkipc:3291: created from rifx:013B5EFC
                                           ;	.line	448; "MC32F7361.c"	return AD_KEY_ID_NONE;
00031d   3c06     movai   0x6              	MOVAI	0x06
                                           _00511_DS_
                                           ;	.line	449; "MC32F7361.c"	}
00031e   000c     return                   	RETURN	
                                           ; exit point of _get_key_id
                                           
                                           ;***
                                           ;  pBlock Stats: dbName = C
                                           ;***
                                           ;entry:  _adc_get_val	;Function start
                                           ; 2 exit points
                                           ;has an exit
                                           ;functions called:
                                           ;   _adc_single_convert
                                           ;   _adc_single_convert
                                           ;5 compiler assigned registers:
                                           ;   STK00
                                           ;   r0x1037
                                           ;   r0x1038
                                           ;   r0x1039
                                           ;   r0x103A
                                           ;; Starting pCode block
                                           _adc_get_val	;Function start
                                           ; 2 exit points
                                           ;	.line	417; "MC32F7361.c"	adc_val_sum = 0;
00031f   763d     clrr    0x3d             	CLRR	_adc_val_sum
000320   763e     clrr    0x3e             	CLRR	(_adc_val_sum + 1)
000321   763f     clrr    0x3f             	CLRR	(_adc_val_sum + 2)
000322   7640     clrr    0x40             	CLRR	(_adc_val_sum + 3)
                                           ;	.line	418; "MC32F7361.c"	get_adcmax = 0;
000323   764a     clrr    0x4a             	CLRR	_get_adcmax
000324   764b     clrr    0x4b             	CLRR	(_get_adcmax + 1)
                                           ;	.line	419; "MC32F7361.c"	get_adcmin = 0xFFFF;
000325   3cff     movai   0xff             	MOVAI	0xff
000326   564c     movra   0x4c             	MOVRA	_get_adcmin
000327   564d     movra   0x4d             	MOVRA	(_get_adcmin + 1)
                                           ;	.line	421; "MC32F7361.c"	for (i = 0; i < 20; i++)
000328   7644     clrr    0x44             	CLRR	_i
000329   7645     clrr    0x45             	CLRR	(_i + 1)
                                           _00475_DS_
                                           ;	.line	423; "MC32F7361.c"	adc_val_tmp = adc_single_convert(); // adc
00032a   83af     call    0x3af            	CALL	_adc_single_convert
00032b   5649     movra   0x49             	MOVRA	(_adc_val_tmp + 1)
00032c   5806     movar   0x6              	MOVAR	STK00
00032d   5648     movra   0x48             	MOVRA	_adc_val_tmp
                                           ;;unsigned compare: left < lit(0x2=2), size=2
                                           ;	.line	424; "MC32F7361.c"	if (i < 2)
00032e   3c00     movai   0                	MOVAI	0x00
00032f   4845     rsubar  0x45             	RSUBAR	(_i + 1)
000330   e587     jbset   0x187, 0x2       	JBSET	PFLAG,2
000331   a334     goto    0x334            	GOTO	_00498_DS_
000332   3c02     movai   0x2              	MOVAI	0x02
000333   4844     rsubar  0x44             	RSUBAR	_i
                                           _00498_DS_
000334   e187     jbset   0x187, 0         	JBSET	PFLAG,0
000335   a362     goto    0x362            	GOTO	_00473_DS_
                                           ;;genSkipc:3291: created from rifx:013B5EFC
                                           ;	.line	426; "MC32F7361.c"	if (adc_val_tmp > get_adcmax)
000336   5849     movar   0x49             	MOVAR	(_adc_val_tmp + 1)
000337   484b     rsubar  0x4b             	RSUBAR	(_get_adcmax + 1)
000338   e587     jbset   0x187, 0x2       	JBSET	PFLAG,2
000339   a33c     goto    0x33c            	GOTO	_00499_DS_
00033a   5848     movar   0x48             	MOVAR	_adc_val_tmp
00033b   484a     rsubar  0x4a             	RSUBAR	_get_adcmax
                                           _00499_DS_
00033c   f187     jbclr   0x187, 0         	JBCLR	PFLAG,0
00033d   a342     goto    0x342            	GOTO	_00470_DS_
                                           ;;genSkipc:3291: created from rifx:013B5EFC
                                           ;	.line	427; "MC32F7361.c"	get_adcmax = adc_val_tmp; // 
00033e   5848     movar   0x48             	MOVAR	_adc_val_tmp
00033f   564a     movra   0x4a             	MOVRA	_get_adcmax
000340   5849     movar   0x49             	MOVAR	(_adc_val_tmp + 1)
000341   564b     movra   0x4b             	MOVRA	(_get_adcmax + 1)
                                           _00470_DS_
                                           ;	.line	428; "MC32F7361.c"	if (adc_val_tmp < get_adcmin)
000342   584d     movar   0x4d             	MOVAR	(_get_adcmin + 1)
000343   4849     rsubar  0x49             	RSUBAR	(_adc_val_tmp + 1)
000344   e587     jbset   0x187, 0x2       	JBSET	PFLAG,2
000345   a348     goto    0x348            	GOTO	_00500_DS_
000346   584c     movar   0x4c             	MOVAR	_get_adcmin
000347   4848     rsubar  0x48             	RSUBAR	_adc_val_tmp
                                           _00500_DS_
000348   f187     jbclr   0x187, 0         	JBCLR	PFLAG,0
000349   a34e     goto    0x34e            	GOTO	_00472_DS_
                                           ;;genSkipc:3291: created from rifx:013B5EFC
                                           ;	.line	429; "MC32F7361.c"	get_adcmin = adc_val_tmp; // 
00034a   5848     movar   0x48             	MOVAR	_adc_val_tmp
00034b   564c     movra   0x4c             	MOVRA	_get_adcmin
00034c   5849     movar   0x49             	MOVAR	(_adc_val_tmp + 1)
00034d   564d     movra   0x4d             	MOVRA	(_get_adcmin + 1)
                                           _00472_DS_
                                           ;	.line	430; "MC32F7361.c"	adc_val_sum += adc_val_tmp;
00034e   5848     movar   0x48             	MOVAR	_adc_val_tmp
00034f   5617     movra   0x17             	MOVRA	r0x1037
000350   5849     movar   0x49             	MOVAR	(_adc_val_tmp + 1)
000351   5618     movra   0x18             	MOVRA	r0x1038
000352   7619     clrr    0x19             	CLRR	r0x1039
000353   7622     clrr    0x22             	CLRR	r0x103A
000354   5817     movar   0x17             	MOVAR	r0x1037
000355   7e3d     addra   0x3d             	ADDRA	_adc_val_sum
000356   5818     movar   0x18             	MOVAR	r0x1038
000357   f187     jbclr   0x187, 0         	JBCLR	PFLAG,0
000358   6018     jzar    0x18             	JZAR	r0x1038
000359   7e3e     addra   0x3e             	ADDRA	(_adc_val_sum + 1)
00035a   5819     movar   0x19             	MOVAR	r0x1039
00035b   f187     jbclr   0x187, 0         	JBCLR	PFLAG,0
00035c   6019     jzar    0x19             	JZAR	r0x1039
00035d   7e3f     addra   0x3f             	ADDRA	(_adc_val_sum + 2)
00035e   5822     movar   0x22             	MOVAR	r0x103A
00035f   f187     jbclr   0x187, 0         	JBCLR	PFLAG,0
000360   6022     jzar    0x22             	JZAR	r0x103A
000361   7e40     addra   0x40             	ADDRA	(_adc_val_sum + 3)
                                           _00473_DS_
                                           ;	.line	421; "MC32F7361.c"	for (i = 0; i < 20; i++)
000362   6644     incr    0x44             	INCR	_i
000363   f587     jbclr   0x187, 0x2       	JBCLR	PFLAG,2
000364   6645     incr    0x45             	INCR	(_i + 1)
                                           ;;unsigned compare: left < lit(0x14=20), size=2
000365   3c00     movai   0                	MOVAI	0x00
000366   4845     rsubar  0x45             	RSUBAR	(_i + 1)
000367   e587     jbset   0x187, 0x2       	JBSET	PFLAG,2
000368   a36b     goto    0x36b            	GOTO	_00501_DS_
000369   3c14     movai   0x14             	MOVAI	0x14
00036a   4844     rsubar  0x44             	RSUBAR	_i
                                           _00501_DS_
00036b   e187     jbset   0x187, 0         	JBSET	PFLAG,0
00036c   a32a     goto    0x32a            	GOTO	_00475_DS_
                                           ;;genSkipc:3291: created from rifx:013B5EFC
                                           ;	.line	433; "MC32F7361.c"	adc_val_sum -= get_adcmax;        // 
00036d   584a     movar   0x4a             	MOVAR	_get_adcmax
00036e   5617     movra   0x17             	MOVRA	r0x1037
00036f   584b     movar   0x4b             	MOVAR	(_get_adcmax + 1)
000370   5618     movra   0x18             	MOVRA	r0x1038
000371   7619     clrr    0x19             	CLRR	r0x1039
000372   7622     clrr    0x22             	CLRR	r0x103A
000373   5817     movar   0x17             	MOVAR	r0x1037
000374   4a3d     rsubra  0x3d             	RSUBRA	_adc_val_sum
000375   5818     movar   0x18             	MOVAR	r0x1038
000376   e187     jbset   0x187, 0         	JBSET	PFLAG,0
000377   6018     jzar    0x18             	JZAR	r0x1038
000378   4a3e     rsubra  0x3e             	RSUBRA	(_adc_val_sum + 1)
000379   5819     movar   0x19             	MOVAR	r0x1039
00037a   e187     jbset   0x187, 0         	JBSET	PFLAG,0
00037b   6019     jzar    0x19             	JZAR	r0x1039
00037c   4a3f     rsubra  0x3f             	RSUBRA	(_adc_val_sum + 2)
00037d   5822     movar   0x22             	MOVAR	r0x103A
00037e   e187     jbset   0x187, 0         	JBSET	PFLAG,0
00037f   6022     jzar    0x22             	JZAR	r0x103A
000380   4a40     rsubra  0x40             	RSUBRA	(_adc_val_sum + 3)
                                           ;	.line	434; "MC32F7361.c"	adc_val_sum -= get_adcmin;        // 
000381   584c     movar   0x4c             	MOVAR	_get_adcmin
000382   5617     movra   0x17             	MOVRA	r0x1037
000383   584d     movar   0x4d             	MOVAR	(_get_adcmin + 1)
000384   5618     movra   0x18             	MOVRA	r0x1038
000385   7619     clrr    0x19             	CLRR	r0x1039
000386   7622     clrr    0x22             	CLRR	r0x103A
000387   5817     movar   0x17             	MOVAR	r0x1037
000388   4a3d     rsubra  0x3d             	RSUBRA	_adc_val_sum
000389   5818     movar   0x18             	MOVAR	r0x1038
00038a   e187     jbset   0x187, 0         	JBSET	PFLAG,0
00038b   6018     jzar    0x18             	JZAR	r0x1038
00038c   4a3e     rsubra  0x3e             	RSUBRA	(_adc_val_sum + 1)
00038d   5819     movar   0x19             	MOVAR	r0x1039
00038e   e187     jbset   0x187, 0         	JBSET	PFLAG,0
00038f   6019     jzar    0x19             	JZAR	r0x1039
000390   4a3f     rsubra  0x3f             	RSUBRA	(_adc_val_sum + 2)
000391   5822     movar   0x22             	MOVAR	r0x103A
000392   e187     jbset   0x187, 0         	JBSET	PFLAG,0
000393   6022     jzar    0x22             	JZAR	r0x103A
000394   4a40     rsubra  0x40             	RSUBRA	(_adc_val_sum + 3)
                                           ;	.line	435; "MC32F7361.c"	adc_val_tmp = (adc_val_sum >> 4); // 16
000395   443d     swapar  0x3d             	SWAPAR	_adc_val_sum
000396   3e0f     andai   0xf              	ANDAI	0x0f
000397   5617     movra   0x17             	MOVRA	r0x1037
000398   443e     swapar  0x3e             	SWAPAR	(_adc_val_sum + 1)
000399   5618     movra   0x18             	MOVRA	r0x1038
00039a   3ef0     andai   0xf0             	ANDAI	0xf0
00039b   5e17     orra    0x17             	ORRA	r0x1037
00039c   4218     xorra   0x18             	XORRA	r0x1038
00039d   443f     swapar  0x3f             	SWAPAR	(_adc_val_sum + 2)
00039e   5619     movra   0x19             	MOVRA	r0x1039
00039f   3ef0     andai   0xf0             	ANDAI	0xf0
0003a0   5e18     orra    0x18             	ORRA	r0x1038
0003a1   4219     xorra   0x19             	XORRA	r0x1039
0003a2   4440     swapar  0x40             	SWAPAR	(_adc_val_sum + 3)
0003a3   5622     movra   0x22             	MOVRA	r0x103A
0003a4   3ef0     andai   0xf0             	ANDAI	0xf0
0003a5   5e19     orra    0x19             	ORRA	r0x1039
0003a6   4222     xorra   0x22             	XORRA	r0x103A
0003a7   5817     movar   0x17             	MOVAR	r0x1037
0003a8   5648     movra   0x48             	MOVRA	_adc_val_tmp
0003a9   5818     movar   0x18             	MOVAR	r0x1038
0003aa   5649     movra   0x49             	MOVRA	(_adc_val_tmp + 1)
                                           ;	.line	437; "MC32F7361.c"	return adc_val_tmp;
0003ab   5848     movar   0x48             	MOVAR	_adc_val_tmp
0003ac   5606     movra   0x6              	MOVRA	STK00
0003ad   5849     movar   0x49             	MOVAR	(_adc_val_tmp + 1)
                                           ;	.line	438; "MC32F7361.c"	}
0003ae   000c     return                   	RETURN	
                                           ; exit point of _adc_get_val
                                           
                                           ;***
                                           ;  pBlock Stats: dbName = C
                                           ;***
                                           ;entry:  _adc_single_convert	;Function start
                                           ; 2 exit points
                                           ;has an exit
                                           ;7 compiler assigned registers:
                                           ;   r0x1031
                                           ;   r0x1032
                                           ;   r0x1033
                                           ;   r0x1034
                                           ;   r0x1035
                                           ;   r0x1036
                                           ;   STK00
                                           ;; Starting pCode block
                                           _adc_single_convert	;Function start
                                           ; 2 exit points
                                           ;	.line	407; "MC32F7361.c"	ADEOC = 0;
0003af   d3b0     bclr    0x1b0, 0x1       	BCLR	_ADCR0bits,1
                                           _00462_DS_
                                           ;	.line	408; "MC32F7361.c"	while (!ADEOC)
0003b0   e3b0     jbset   0x1b0, 0x1       	JBSET	_ADCR0bits,1
0003b1   a3b0     goto    0x3b0            	GOTO	_00462_DS_
                                           ;	.line	410; "MC32F7361.c"	adc_val_tmp = ADRH;
0003b2   59b4     movar   0x1b4            	MOVAR	_ADRH
0003b3   5648     movra   0x48             	MOVRA	_adc_val_tmp
0003b4   7649     clrr    0x49             	CLRR	(_adc_val_tmp + 1)
                                           ;	.line	411; "MC32F7361.c"	adc_val_tmp = adc_val_tmp << 4 | (ADRL & 0x0F);
0003b5   4449     swapar  0x49             	SWAPAR	(_adc_val_tmp + 1)
0003b6   3ef0     andai   0xf0             	ANDAI	0xf0
0003b7   5612     movra   0x12             	MOVRA	r0x1031
0003b8   4448     swapar  0x48             	SWAPAR	_adc_val_tmp
0003b9   5611     movra   0x11             	MOVRA	r0x1032
0003ba   3e0f     andai   0xf              	ANDAI	0x0f
0003bb   5e12     orra    0x12             	ORRA	r0x1031
0003bc   4211     xorra   0x11             	XORRA	r0x1032
0003bd   59b5     movar   0x1b5            	MOVAR	_ADRL
0003be   5613     movra   0x13             	MOVRA	r0x1033
0003bf   7614     clrr    0x14             	CLRR	r0x1034
0003c0   3c0f     movai   0xf              	MOVAI	0x0f
0003c1   7a13     andra   0x13             	ANDRA	r0x1033
0003c2   7614     clrr    0x14             	CLRR	r0x1034
                                           ;;101	MOVAR	r0x1033
                                           ;;99	MOVRA	r0x1035
                                           ;;104	MOVAR	r0x1034
                                           ;;102	MOVRA	r0x1036
                                           ;;100	MOVAR	r0x1035
0003c3   5813     movar   0x13             	MOVAR	r0x1033
0003c4   5c11     orar    0x11             	ORAR	r0x1032
0003c5   5648     movra   0x48             	MOVRA	_adc_val_tmp
                                           ;;103	MOVAR	r0x1036
0003c6   3c00     movai   0                	MOVAI	0x00
0003c7   5c12     orar    0x12             	ORAR	r0x1031
0003c8   5649     movra   0x49             	MOVRA	(_adc_val_tmp + 1)
                                           ;	.line	412; "MC32F7361.c"	return adc_val_tmp;
0003c9   5848     movar   0x48             	MOVAR	_adc_val_tmp
0003ca   5606     movra   0x6              	MOVRA	STK00
0003cb   5849     movar   0x49             	MOVAR	(_adc_val_tmp + 1)
                                           ;	.line	413; "MC32F7361.c"	}
0003cc   000c     return                   	RETURN	
                                           ; exit point of _adc_single_convert
                                           
                                           ;***
                                           ;  pBlock Stats: dbName = C
                                           ;***
                                           ;entry:  _adc_channel_sel	;Function start
                                           ; 2 exit points
                                           ;has an exit
                                           ;functions called:
                                           ;   _delay_ms
                                           ;   _delay_ms
                                           ;2 compiler assigned registers:
                                           ;   r0x1037
                                           ;   STK00
                                           ;; Starting pCode block
                                           _adc_channel_sel	;Function start
                                           ; 2 exit points
                                           ;	.line	385; "MC32F7361.c"	void adc_channel_sel(u8 adc_channel)
0003cd   5617     movra   0x17             	MOVRA	r0x1037
                                           ;	.line	387; "MC32F7361.c"	switch (adc_channel)
0003ce   5817     movar   0x17             	MOVAR	r0x1037
0003cf   e587     jbset   0x187, 0x2       	JBSET	PFLAG,2
0003d0   a3d2     goto    0x3d2            	GOTO	_00457_DS_
0003d1   a3db     goto    0x3db            	GOTO	_00444_DS_
                                           _00457_DS_
0003d2   5817     movar   0x17             	MOVAR	r0x1037
0003d3   3901     xorai   0x1              	XORAI	0x01
0003d4   e587     jbset   0x187, 0x2       	JBSET	PFLAG,2
0003d5   a3df     goto    0x3df            	GOTO	_00446_DS_
                                           ;	.line	390; "MC32F7361.c"	ADCR0 = 0x7F; // AN7ADC
0003d6   3c7f     movai   0x7f             	MOVAI	0x7f
0003d7   57b0     movra   0x1b0            	MOVRA	_ADCR0
                                           ;	.line	391; "MC32F7361.c"	ADCR1 = 0x82; // adc == FHIRC/324V
0003d8   3c82     movai   0x82             	MOVAI	0x82
0003d9   57b1     movra   0x1b1            	MOVRA	_ADCR1
                                           ;	.line	392; "MC32F7361.c"	break;
0003da   a3df     goto    0x3df            	GOTO	_00446_DS_
                                           _00444_DS_
                                           ;	.line	395; "MC32F7361.c"	ADCR0 = 0xAF; // 1/VDDADC
0003db   3caf     movai   0xaf             	MOVAI	0xaf
0003dc   57b0     movra   0x1b0            	MOVRA	_ADCR0
                                           ;	.line	396; "MC32F7361.c"	ADCR1 = 0x80; // adc == FHIRC/322V
0003dd   3c80     movai   0x80             	MOVAI	0x80
0003de   57b1     movra   0x1b1            	MOVRA	_ADCR1
                                           _00446_DS_
                                           ;	.line	402; "MC32F7361.c"	delay_ms(1);
0003df   3c01     movai   0x1              	MOVAI	0x01
0003e0   5606     movra   0x6              	MOVRA	STK00
0003e1   3c00     movai   0                	MOVAI	0x00
0003e2   85f4     call    0x5f4            	CALL	_delay_ms
                                           ;	.line	403; "MC32F7361.c"	}
0003e3   000c     return                   	RETURN	
                                           ; exit point of _adc_channel_sel
                                           
                                           ;***
                                           ;  pBlock Stats: dbName = C
                                           ;***
                                           ;entry:  _Sys_Init	;Function start
                                           ; 2 exit points
                                           ;has an exit
                                           ;functions called:
                                           ;   _CLR_RAM
                                           ;   _IO_Init
                                           ;   _adc_config
                                           ;   _timer1_config
                                           ;   _TM1650_Init
                                           ;   _pwm_led_config
                                           ;   _timer3_config
                                           ;   _CLR_RAM
                                           ;   _IO_Init
                                           ;   _adc_config
                                           ;   _timer1_config
                                           ;   _TM1650_Init
                                           ;   _pwm_led_config
                                           ;   _timer3_config
                                           ;; Starting pCode block
                                           _Sys_Init	;Function start
                                           ; 2 exit points
                                           ;	.line	354; "MC32F7361.c"	GIE = 0;
0003e4   df88     bclr    0x188, 0x7       	BCLR	_MCRbits,7
                                           ;	.line	355; "MC32F7361.c"	CLR_RAM();
0003e5   85df     call    0x5df            	CALL	_CLR_RAM
                                           ;	.line	356; "MC32F7361.c"	IO_Init();
0003e6   85ca     call    0x5ca            	CALL	_IO_Init
                                           ;	.line	358; "MC32F7361.c"	adc_config();
0003e7   85c0     call    0x5c0            	CALL	_adc_config
                                           ;	.line	359; "MC32F7361.c"	timer1_config();
0003e8   85b9     call    0x5b9            	CALL	_timer1_config
                                           ;	.line	360; "MC32F7361.c"	TM1650_Init();
0003e9   812f     call    0x12f            	CALL	_TM1650_Init
                                           ;	.line	361; "MC32F7361.c"	pwm_led_config();
0003ea   85a0     call    0x5a0            	CALL	_pwm_led_config
                                           ;	.line	362; "MC32F7361.c"	timer3_config();
0003eb   85b2     call    0x5b2            	CALL	_timer3_config
                                           ;	.line	365; "MC32F7361.c"	P03PD = 1; // 
0003ec   c793     bset    0x193, 0x3       	BSET	_PDP0bits,3
                                           ;	.line	366; "MC32F7361.c"	P03OE = 1; // 
0003ed   c791     bset    0x191, 0x3       	BSET	_OEP0bits,3
                                           ;	.line	369; "MC32F7361.c"	BLE_CTL_PIN_IN();
0003ee   df95     bclr    0x195, 0x7       	BCLR	_OEP1bits,7
                                           ;	.line	372; "MC32F7361.c"	P16PU = 1; // 
0003ef   cd96     bset    0x196, 0x6       	BSET	_PUP1bits,6
                                           ;	.line	373; "MC32F7361.c"	P16OE = 0; // 
0003f0   dd95     bclr    0x195, 0x6       	BCLR	_OEP1bits,6
                                           ;	.line	375; "MC32F7361.c"	ad_key_event = KEY_EVENT_NONE;
0003f1   3c03     movai   0x3              	MOVAI	0x03
0003f2   565a     movra   0x5a             	MOVRA	_ad_key_event
                                           ;	.line	376; "MC32F7361.c"	cur_key_id = AD_KEY_ID_NONE;
0003f3   3c06     movai   0x6              	MOVAI	0x06
0003f4   565b     movra   0x5b             	MOVRA	_cur_key_id
                                           ;	.line	377; "MC32F7361.c"	cur_w_pwm_duty = 255;
0003f5   3cff     movai   0xff             	MOVAI	0xff
0003f6   5656     movra   0x56             	MOVRA	_cur_w_pwm_duty
                                           ;	.line	378; "MC32F7361.c"	cur_y_pwm_duty = 255;
0003f7   3cff     movai   0xff             	MOVAI	0xff
0003f8   5657     movra   0x57             	MOVRA	_cur_y_pwm_duty
                                           ;	.line	380; "MC32F7361.c"	GIE = 1;
0003f9   cf88     bset    0x188, 0x7       	BSET	_MCRbits,7
                                           ;	.line	381; "MC32F7361.c"	}
0003fa   000c     return                   	RETURN	
                                           ; exit point of _Sys_Init
                                           
                                           ;***
                                           ;  pBlock Stats: dbName = C
                                           ;***
                                           ;entry:  _timer_100us_isr	;Function start
                                           ; 2 exit points
                                           ;has an exit
                                           ;8 compiler assigned registers:
                                           ;   r0x1041
                                           ;   r0x1042
                                           ;   r0x1043
                                           ;   r0x1044
                                           ;   r0x1045
                                           ;   r0x1046
                                           ;   r0x1047
                                           ;   r0x1048
                                           ;; Starting pCode block
                                           _timer_100us_isr	;Function start
                                           ; 2 exit points
                                           ;	.line	172; "MC32F7361.c"	if (g_state == TX_START || g_state == TX_SENDING_BIT || g_state == TX_SENDING_LOW)
0003fb   5863     movar   0x63             	MOVAR	_g_state
0003fc   3901     xorai   0x1              	XORAI	0x01
0003fd   e587     jbset   0x187, 0x2       	JBSET	PFLAG,2
0003fe   a400     goto    0x400            	GOTO	_00403_DS_
0003ff   a409     goto    0x409            	GOTO	_00237_DS_
                                           _00403_DS_
000400   5863     movar   0x63             	MOVAR	_g_state
000401   3902     xorai   0x2              	XORAI	0x02
000402   e587     jbset   0x187, 0x2       	JBSET	PFLAG,2
000403   a405     goto    0x405            	GOTO	_00404_DS_
000404   a409     goto    0x409            	GOTO	_00237_DS_
                                           _00404_DS_
000405   5863     movar   0x63             	MOVAR	_g_state
000406   3903     xorai   0x3              	XORAI	0x03
000407   e587     jbset   0x187, 0x2       	JBSET	PFLAG,2
000408   a4ba     goto    0x4ba            	GOTO	_00238_DS_
                                           ;;unsigned compare: left < lit(0x1=1), size=1
                                           _00237_DS_
                                           ;	.line	174; "MC32F7361.c"	switch (g_state)
000409   3c01     movai   0x1              	MOVAI	0x01
00040a   4863     rsubar  0x63             	RSUBAR	_g_state
00040b   e187     jbset   0x187, 0         	JBSET	PFLAG,0
00040c   a4b9     goto    0x4b9            	GOTO	_00236_DS_
                                           ;;genSkipc:3291: created from rifx:013B5EFC
                                           ;;swapping arguments (AOP_TYPEs 1/3)
                                           ;;unsigned compare: left >= lit(0x4=4), size=1
00040d   3c04     movai   0x4              	MOVAI	0x04
00040e   4863     rsubar  0x63             	RSUBAR	_g_state
00040f   f187     jbclr   0x187, 0         	JBCLR	PFLAG,0
000410   a4b9     goto    0x4b9            	GOTO	_00236_DS_
                                           ;;genSkipc:3291: created from rifx:013B5EFC
000411   6c63     decar   0x63             	DECAR	_g_state
000412   561a     movra   0x1a             	MOVRA	r0x1041
000413   581a     movar   0x1a             	MOVAR	r0x1041
000414   7f86     addra   0x186            	ADDRA	PCL
000415   a418     goto    0x418            	GOTO	_00204_DS_
000416   a422     goto    0x422            	GOTO	_00207_DS_
000417   a45e     goto    0x45e            	GOTO	_00215_DS_
                                           _00204_DS_
                                           ;	.line	177; "MC32F7361.c"	if (++g_timer_count >= START_SIGNAL_TIME)
000418   662c     incr    0x2c             	INCR	_g_timer_count
                                           ;;unsigned compare: left < lit(0x64=100), size=1
000419   3c64     movai   0x64             	MOVAI	0x64
00041a   482c     rsubar  0x2c             	RSUBAR	_g_timer_count
00041b   e187     jbset   0x187, 0         	JBSET	PFLAG,0
00041c   a4b9     goto    0x4b9            	GOTO	_00236_DS_
                                           ;;genSkipc:3291: created from rifx:013B5EFC
                                           ;	.line	179; "MC32F7361.c"	g_timer_count = 0;
00041d   762c     clrr    0x2c             	CLRR	_g_timer_count
                                           ;	.line	180; "MC32F7361.c"	g_state = TX_SENDING_BIT;
00041e   3c02     movai   0x2              	MOVAI	0x02
00041f   5663     movra   0x63             	MOVRA	_g_state
                                           ;	.line	181; "MC32F7361.c"	set_pin_high();
000420   c794     bset    0x194, 0x3       	BSET	_IOP1bits,3
                                           ;	.line	183; "MC32F7361.c"	break;
000421   a4b9     goto    0x4b9            	GOTO	_00236_DS_
                                           _00207_DS_
                                           ;	.line	186; "MC32F7361.c"	if (g_data[g_byte_count] & BIT(g_bit_count))
000422   582a     movar   0x2a             	MOVAR	_g_byte_count
000423   3f2d     addai   0x2d             	ADDAI	(_g_data + 0)
000424   561a     movra   0x1a             	MOVRA	r0x1041
000425   3c00     movai   0                	MOVAI	high (_g_data + 0)
000426   f187     jbclr   0x187, 0         	JBCLR	PFLAG,0
000427   3f01     addai   0x1              	ADDAI	0x01
000428   561b     movra   0x1b             	MOVRA	r0x1042
000429   581a     movar   0x1a             	MOVAR	r0x1041
00042a   5784     movra   0x184            	MOVRA	FSR0
00042b   581b     movar   0x1b             	MOVAR	r0x1042
00042c   5785     movra   0x185            	MOVRA	FSR1
00042d   5982     movar   0x182            	MOVAR	INDF2
00042e   561c     movra   0x1c             	MOVRA	r0x1043
                                           ;;111	MOVAR	_g_bit_count
00042f   3c00     movai   0                	MOVAI	0x00
000430   561e     movra   0x1e             	MOVRA	r0x1044
000431   3c01     movai   0x1              	MOVAI	0x01
000432   561d     movra   0x1d             	MOVRA	r0x1045
                                           ;;110	MOVAR	r0x1041
000433   582b     movar   0x2b             	MOVAR	_g_bit_count
000434   561a     movra   0x1a             	MOVRA	r0x1041
000435   3a00     isubai  0                	ISUBAI	0x00
000436   f587     jbclr   0x187, 0x2       	JBCLR	PFLAG,2
000437   a43d     goto    0x43d            	GOTO	_00410_DS_
                                           _00409_DS_
000438   521d     rlr     0x1d             	RLR	r0x1045
000439   521e     rlr     0x1e             	RLR	r0x1044
00043a   3f01     addai   0x1              	ADDAI	0x01
00043b   e187     jbset   0x187, 0         	JBSET	PFLAG,0
00043c   a438     goto    0x438            	GOTO	_00409_DS_
                                           _00410_DS_
00043d   581c     movar   0x1c             	MOVAR	r0x1043
00043e   561a     movra   0x1a             	MOVRA	r0x1041
00043f   761f     clrr    0x1f             	CLRR	r0x1046
000440   581d     movar   0x1d             	MOVAR	r0x1045
000441   781a     andar   0x1a             	ANDAR	r0x1041
000442   561c     movra   0x1c             	MOVRA	r0x1043
000443   581e     movar   0x1e             	MOVAR	r0x1044
000444   781f     andar   0x1f             	ANDAR	r0x1046
000445   5620     movra   0x20             	MOVRA	r0x1047
000446   581c     movar   0x1c             	MOVAR	r0x1043
000447   5c20     orar    0x20             	ORAR	r0x1047
000448   f587     jbclr   0x187, 0x2       	JBCLR	PFLAG,2
000449   a454     goto    0x454            	GOTO	_00213_DS_
                                           ;	.line	189; "MC32F7361.c"	if (++g_timer_count >= BIT1_HIGH_TIME)
00044a   662c     incr    0x2c             	INCR	_g_timer_count
                                           ;;unsigned compare: left < lit(0xA=10), size=1
00044b   3c0a     movai   0xa              	MOVAI	0x0a
00044c   482c     rsubar  0x2c             	RSUBAR	_g_timer_count
00044d   e187     jbset   0x187, 0         	JBSET	PFLAG,0
00044e   a4b9     goto    0x4b9            	GOTO	_00236_DS_
                                           ;;genSkipc:3291: created from rifx:013B5EFC
                                           ;	.line	191; "MC32F7361.c"	g_timer_count = 0;
00044f   762c     clrr    0x2c             	CLRR	_g_timer_count
                                           ;	.line	192; "MC32F7361.c"	g_state = TX_SENDING_LOW;
000450   3c03     movai   0x3              	MOVAI	0x03
000451   5663     movra   0x63             	MOVRA	_g_state
                                           ;	.line	193; "MC32F7361.c"	set_pin_low();
000452   d794     bclr    0x194, 0x3       	BCLR	_IOP1bits,3
000453   a4b9     goto    0x4b9            	GOTO	_00236_DS_
                                           _00213_DS_
                                           ;	.line	199; "MC32F7361.c"	if (++g_timer_count >= BIT0_HIGH_TIME)
000454   662c     incr    0x2c             	INCR	_g_timer_count
                                           ;;unsigned compare: left < lit(0x5=5), size=1
000455   3c05     movai   0x5              	MOVAI	0x05
000456   482c     rsubar  0x2c             	RSUBAR	_g_timer_count
000457   e187     jbset   0x187, 0         	JBSET	PFLAG,0
000458   a4b9     goto    0x4b9            	GOTO	_00236_DS_
                                           ;;genSkipc:3291: created from rifx:013B5EFC
                                           ;	.line	201; "MC32F7361.c"	g_timer_count = 0;
000459   762c     clrr    0x2c             	CLRR	_g_timer_count
                                           ;	.line	202; "MC32F7361.c"	g_state = TX_SENDING_LOW;
00045a   3c03     movai   0x3              	MOVAI	0x03
00045b   5663     movra   0x63             	MOVRA	_g_state
                                           ;	.line	203; "MC32F7361.c"	set_pin_low();
00045c   d794     bclr    0x194, 0x3       	BCLR	_IOP1bits,3
                                           ;	.line	206; "MC32F7361.c"	break;
00045d   a4b9     goto    0x4b9            	GOTO	_00236_DS_
                                           _00215_DS_
                                           ;	.line	209; "MC32F7361.c"	if (g_data[g_byte_count] & BIT(g_bit_count))
00045e   582a     movar   0x2a             	MOVAR	_g_byte_count
00045f   3f2d     addai   0x2d             	ADDAI	(_g_data + 0)
000460   561a     movra   0x1a             	MOVRA	r0x1041
000461   3c00     movai   0                	MOVAI	high (_g_data + 0)
000462   f187     jbclr   0x187, 0         	JBCLR	PFLAG,0
000463   3f01     addai   0x1              	ADDAI	0x01
000464   561c     movra   0x1c             	MOVRA	r0x1043
000465   581a     movar   0x1a             	MOVAR	r0x1041
000466   5784     movra   0x184            	MOVRA	FSR0
000467   581c     movar   0x1c             	MOVAR	r0x1043
000468   5785     movra   0x185            	MOVRA	FSR1
000469   5982     movar   0x182            	MOVAR	INDF2
00046a   561d     movra   0x1d             	MOVRA	r0x1045
                                           ;;107	MOVAR	_g_bit_count
00046b   3c00     movai   0                	MOVAI	0x00
00046c   561f     movra   0x1f             	MOVRA	r0x1046
00046d   3c01     movai   0x1              	MOVAI	0x01
00046e   561e     movra   0x1e             	MOVRA	r0x1044
                                           ;;106	MOVAR	r0x1041
00046f   582b     movar   0x2b             	MOVAR	_g_bit_count
000470   561a     movra   0x1a             	MOVRA	r0x1041
000471   3a00     isubai  0                	ISUBAI	0x00
000472   f587     jbclr   0x187, 0x2       	JBCLR	PFLAG,2
000473   a479     goto    0x479            	GOTO	_00414_DS_
                                           _00413_DS_
000474   521e     rlr     0x1e             	RLR	r0x1044
000475   521f     rlr     0x1f             	RLR	r0x1046
000476   3f01     addai   0x1              	ADDAI	0x01
000477   e187     jbset   0x187, 0         	JBSET	PFLAG,0
000478   a474     goto    0x474            	GOTO	_00413_DS_
                                           _00414_DS_
000479   581d     movar   0x1d             	MOVAR	r0x1045
00047a   561a     movra   0x1a             	MOVRA	r0x1041
00047b   7620     clrr    0x20             	CLRR	r0x1047
00047c   581e     movar   0x1e             	MOVAR	r0x1044
00047d   781a     andar   0x1a             	ANDAR	r0x1041
00047e   561d     movra   0x1d             	MOVRA	r0x1045
00047f   581f     movar   0x1f             	MOVAR	r0x1046
000480   7820     andar   0x20             	ANDAR	r0x1047
000481   5621     movra   0x21             	MOVRA	r0x1048
000482   581d     movar   0x1d             	MOVAR	r0x1045
000483   5c21     orar    0x21             	ORAR	r0x1048
000484   f587     jbclr   0x187, 0x2       	JBCLR	PFLAG,2
000485   a4a0     goto    0x4a0            	GOTO	_00233_DS_
                                           ;	.line	212; "MC32F7361.c"	if (++g_timer_count >= BIT1_LOW_TIME)
000486   662c     incr    0x2c             	INCR	_g_timer_count
                                           ;;unsigned compare: left < lit(0x5=5), size=1
000487   3c05     movai   0x5              	MOVAI	0x05
000488   482c     rsubar  0x2c             	RSUBAR	_g_timer_count
000489   e187     jbset   0x187, 0         	JBSET	PFLAG,0
00048a   a4b9     goto    0x4b9            	GOTO	_00236_DS_
                                           ;;genSkipc:3291: created from rifx:013B5EFC
                                           ;	.line	214; "MC32F7361.c"	g_timer_count = 0;
00048b   762c     clrr    0x2c             	CLRR	_g_timer_count
                                           ;	.line	215; "MC32F7361.c"	if (++g_bit_count >= 8)
00048c   662b     incr    0x2b             	INCR	_g_bit_count
                                           ;;unsigned compare: left < lit(0x8=8), size=1
00048d   3c08     movai   0x8              	MOVAI	0x08
00048e   482b     rsubar  0x2b             	RSUBAR	_g_bit_count
00048f   e187     jbset   0x187, 0         	JBSET	PFLAG,0
000490   a498     goto    0x498            	GOTO	_00219_DS_
                                           ;;genSkipc:3291: created from rifx:013B5EFC
                                           ;	.line	217; "MC32F7361.c"	g_bit_count = 0;
000491   762b     clrr    0x2b             	CLRR	_g_bit_count
                                           ;	.line	218; "MC32F7361.c"	if (++g_byte_count >= SEND_DATA_LEN)
000492   662a     incr    0x2a             	INCR	_g_byte_count
                                           ;;unsigned compare: left < lit(0x3=3), size=1
000493   3c03     movai   0x3              	MOVAI	0x03
000494   482a     rsubar  0x2a             	RSUBAR	_g_byte_count
000495   e187     jbset   0x187, 0         	JBSET	PFLAG,0
000496   a498     goto    0x498            	GOTO	_00219_DS_
                                           ;;genSkipc:3291: created from rifx:013B5EFC
                                           ;	.line	220; "MC32F7361.c"	g_state = IDLE;
000497   7663     clrr    0x63             	CLRR	_g_state
                                           _00219_DS_
                                           ;	.line	223; "MC32F7361.c"	if (g_state != IDLE)
000498   3c00     movai   0                	MOVAI	0x00
000499   5c63     orar    0x63             	ORAR	_g_state
00049a   f587     jbclr   0x187, 0x2       	JBCLR	PFLAG,2
00049b   a4b9     goto    0x4b9            	GOTO	_00236_DS_
                                           ;	.line	225; "MC32F7361.c"	g_state = TX_SENDING_BIT;
00049c   3c02     movai   0x2              	MOVAI	0x02
00049d   5663     movra   0x63             	MOVRA	_g_state
                                           ;	.line	226; "MC32F7361.c"	set_pin_high();
00049e   c794     bset    0x194, 0x3       	BSET	_IOP1bits,3
00049f   a4b9     goto    0x4b9            	GOTO	_00236_DS_
                                           _00233_DS_
                                           ;	.line	233; "MC32F7361.c"	if (++g_timer_count >= BIT0_LOW_TIME)
0004a0   662c     incr    0x2c             	INCR	_g_timer_count
                                           ;;unsigned compare: left < lit(0xA=10), size=1
0004a1   3c0a     movai   0xa              	MOVAI	0x0a
0004a2   482c     rsubar  0x2c             	RSUBAR	_g_timer_count
0004a3   e187     jbset   0x187, 0         	JBSET	PFLAG,0
0004a4   a4b9     goto    0x4b9            	GOTO	_00236_DS_
                                           ;;genSkipc:3291: created from rifx:013B5EFC
                                           ;	.line	235; "MC32F7361.c"	g_timer_count = 0;
0004a5   762c     clrr    0x2c             	CLRR	_g_timer_count
                                           ;	.line	236; "MC32F7361.c"	if (++g_bit_count >= 8)
0004a6   662b     incr    0x2b             	INCR	_g_bit_count
                                           ;;unsigned compare: left < lit(0x8=8), size=1
0004a7   3c08     movai   0x8              	MOVAI	0x08
0004a8   482b     rsubar  0x2b             	RSUBAR	_g_bit_count
0004a9   e187     jbset   0x187, 0         	JBSET	PFLAG,0
0004aa   a4b2     goto    0x4b2            	GOTO	_00227_DS_
                                           ;;genSkipc:3291: created from rifx:013B5EFC
                                           ;	.line	238; "MC32F7361.c"	g_bit_count = 0;
0004ab   762b     clrr    0x2b             	CLRR	_g_bit_count
                                           ;	.line	239; "MC32F7361.c"	if (++g_byte_count >= SEND_DATA_LEN)
0004ac   662a     incr    0x2a             	INCR	_g_byte_count
                                           ;;unsigned compare: left < lit(0x3=3), size=1
0004ad   3c03     movai   0x3              	MOVAI	0x03
0004ae   482a     rsubar  0x2a             	RSUBAR	_g_byte_count
0004af   e187     jbset   0x187, 0         	JBSET	PFLAG,0
0004b0   a4b2     goto    0x4b2            	GOTO	_00227_DS_
                                           ;;genSkipc:3291: created from rifx:013B5EFC
                                           ;	.line	241; "MC32F7361.c"	g_state = IDLE;
0004b1   7663     clrr    0x63             	CLRR	_g_state
                                           _00227_DS_
                                           ;	.line	244; "MC32F7361.c"	if (g_state != IDLE)
0004b2   3c00     movai   0                	MOVAI	0x00
0004b3   5c63     orar    0x63             	ORAR	_g_state
0004b4   f587     jbclr   0x187, 0x2       	JBCLR	PFLAG,2
0004b5   a4b9     goto    0x4b9            	GOTO	_00236_DS_
                                           ;	.line	246; "MC32F7361.c"	g_state = TX_SENDING_BIT;
0004b6   3c02     movai   0x2              	MOVAI	0x02
0004b7   5663     movra   0x63             	MOVRA	_g_state
                                           ;	.line	247; "MC32F7361.c"	set_pin_high();
0004b8   c794     bset    0x194, 0x3       	BSET	_IOP1bits,3
                                           _00236_DS_
                                           ;	.line	257; "MC32F7361.c"	return;
0004b9   a55e     goto    0x55e            	GOTO	_00269_DS_
                                           _00238_DS_
                                           ;	.line	263; "MC32F7361.c"	set_pin_high();
0004ba   c794     bset    0x194, 0x3       	BSET	_IOP1bits,3
                                           ;	.line	267; "MC32F7361.c"	pin_state = get_pin_state();
0004bb   761a     clrr    0x1a             	CLRR	r0x1041
0004bc   fd94     jbclr   0x194, 0x6       	JBCLR	_IOP1bits,6
0004bd   661a     incr    0x1a             	INCR	r0x1041
0004be   581a     movar   0x1a             	MOVAR	r0x1041
0004bf   5659     movra   0x59             	MOVRA	_pin_state
                                           ;	.line	269; "MC32F7361.c"	switch (g_state)
0004c0   5863     movar   0x63             	MOVAR	_g_state
0004c1   e587     jbset   0x187, 0x2       	JBSET	PFLAG,2
0004c2   a4c4     goto    0x4c4            	GOTO	_00421_DS_
0004c3   a4d4     goto    0x4d4            	GOTO	_00242_DS_
                                           _00421_DS_
0004c4   5863     movar   0x63             	MOVAR	_g_state
0004c5   3904     xorai   0x4              	XORAI	0x04
0004c6   e587     jbset   0x187, 0x2       	JBSET	PFLAG,2
0004c7   a4c9     goto    0x4c9            	GOTO	_00422_DS_
0004c8   a4fa     goto    0x4fa            	GOTO	_00246_DS_
                                           _00422_DS_
0004c9   5863     movar   0x63             	MOVAR	_g_state
0004ca   3905     xorai   0x5              	XORAI	0x05
0004cb   e587     jbset   0x187, 0x2       	JBSET	PFLAG,2
0004cc   a4ce     goto    0x4ce            	GOTO	_00423_DS_
0004cd   a50d     goto    0x50d            	GOTO	_00253_DS_
                                           _00423_DS_
0004ce   5863     movar   0x63             	MOVAR	_g_state
0004cf   3906     xorai   0x6              	XORAI	0x06
0004d0   e587     jbset   0x187, 0x2       	JBSET	PFLAG,2
0004d1   a4d3     goto    0x4d3            	GOTO	_00424_DS_
0004d2   a55b     goto    0x55b            	GOTO	_00265_DS_
                                           _00424_DS_
0004d3   a55c     goto    0x55c            	GOTO	_00266_DS_
                                           _00242_DS_
                                           ;	.line	272; "MC32F7361.c"	if (pin_state == 0)
0004d4   3c00     movai   0                	MOVAI	0x00
0004d5   5c59     orar    0x59             	ORAR	_pin_state
0004d6   e587     jbset   0x187, 0x2       	JBSET	PFLAG,2
0004d7   a55c     goto    0x55c            	GOTO	_00266_DS_
                                           ;	.line	274; "MC32F7361.c"	g_timer_count = 0;
0004d8   762c     clrr    0x2c             	CLRR	_g_timer_count
                                           ;	.line	275; "MC32F7361.c"	g_state = RX_START;
0004d9   3c04     movai   0x4              	MOVAI	0x04
0004da   5663     movra   0x63             	MOVRA	_g_state
                                           ;	.line	276; "MC32F7361.c"	g_byte_count = 0;
0004db   762a     clrr    0x2a             	CLRR	_g_byte_count
                                           ;	.line	277; "MC32F7361.c"	g_bit_count = 0;
0004dc   762b     clrr    0x2b             	CLRR	_g_bit_count
                                           ;	.line	279; "MC32F7361.c"	for (i = 0; i < 9; i++)
0004dd   7644     clrr    0x44             	CLRR	_i
0004de   7645     clrr    0x45             	CLRR	(_i + 1)
                                           _00267_DS_
                                           ;	.line	281; "MC32F7361.c"	g_data[i] = 0;
0004df   5844     movar   0x44             	MOVAR	_i
0004e0   3f2d     addai   0x2d             	ADDAI	(_g_data + 0)
0004e1   561a     movra   0x1a             	MOVRA	r0x1041
0004e2   3c00     movai   0                	MOVAI	high (_g_data + 0)
0004e3   561d     movra   0x1d             	MOVRA	r0x1045
0004e4   5845     movar   0x45             	MOVAR	(_i + 1)
0004e5   f187     jbclr   0x187, 0         	JBCLR	PFLAG,0
0004e6   6045     jzar    0x45             	JZAR	(_i + 1)
0004e7   7e1d     addra   0x1d             	ADDRA	r0x1045
0004e8   581a     movar   0x1a             	MOVAR	r0x1041
0004e9   5784     movra   0x184            	MOVRA	FSR0
0004ea   581d     movar   0x1d             	MOVAR	r0x1045
0004eb   5785     movra   0x185            	MOVRA	FSR1
0004ec   3c00     movai   0                	MOVAI	0x00
0004ed   5782     movra   0x182            	MOVRA	INDF2
                                           ;	.line	279; "MC32F7361.c"	for (i = 0; i < 9; i++)
0004ee   6644     incr    0x44             	INCR	_i
0004ef   f587     jbclr   0x187, 0x2       	JBCLR	PFLAG,2
0004f0   6645     incr    0x45             	INCR	(_i + 1)
                                           ;;unsigned compare: left < lit(0x9=9), size=2
0004f1   3c00     movai   0                	MOVAI	0x00
0004f2   4845     rsubar  0x45             	RSUBAR	(_i + 1)
0004f3   e587     jbset   0x187, 0x2       	JBSET	PFLAG,2
0004f4   a4f7     goto    0x4f7            	GOTO	_00425_DS_
0004f5   3c09     movai   0x9              	MOVAI	0x09
0004f6   4844     rsubar  0x44             	RSUBAR	_i
                                           _00425_DS_
0004f7   e187     jbset   0x187, 0         	JBSET	PFLAG,0
0004f8   a4df     goto    0x4df            	GOTO	_00267_DS_
                                           ;;genSkipc:3291: created from rifx:013B5EFC
                                           ;	.line	284; "MC32F7361.c"	break;
0004f9   a55c     goto    0x55c            	GOTO	_00266_DS_
                                           _00246_DS_
                                           ;	.line	287; "MC32F7361.c"	g_timer_count++;
0004fa   662c     incr    0x2c             	INCR	_g_timer_count
                                           ;	.line	288; "MC32F7361.c"	if (pin_state == 1)
0004fb   5859     movar   0x59             	MOVAR	_pin_state
0004fc   3901     xorai   0x1              	XORAI	0x01
0004fd   e587     jbset   0x187, 0x2       	JBSET	PFLAG,2
0004fe   a55c     goto    0x55c            	GOTO	_00266_DS_
                                           ;;unsigned compare: left < lit(0x50=80), size=1
                                           ;	.line	291; "MC32F7361.c"	if (g_timer_count >= RX_START_MIN_TIME && g_timer_count <= RX_START_MAX_TIME)
0004ff   3c50     movai   0x50             	MOVAI	0x50
000500   482c     rsubar  0x2c             	RSUBAR	_g_timer_count
000501   e187     jbset   0x187, 0         	JBSET	PFLAG,0
000502   a50b     goto    0x50b            	GOTO	_00248_DS_
                                           ;;genSkipc:3291: created from rifx:013B5EFC
                                           ;;swapping arguments (AOP_TYPEs 1/3)
                                           ;;unsigned compare: left >= lit(0x97=151), size=1
000503   3c97     movai   0x97             	MOVAI	0x97
000504   482c     rsubar  0x2c             	RSUBAR	_g_timer_count
000505   f187     jbclr   0x187, 0         	JBCLR	PFLAG,0
000506   a50b     goto    0x50b            	GOTO	_00248_DS_
                                           ;;genSkipc:3291: created from rifx:013B5EFC
                                           ;	.line	293; "MC32F7361.c"	g_timer_count = 0;
000507   762c     clrr    0x2c             	CLRR	_g_timer_count
                                           ;	.line	294; "MC32F7361.c"	g_state = RX_DATA;
000508   3c05     movai   0x5              	MOVAI	0x05
000509   5663     movra   0x63             	MOVRA	_g_state
00050a   a55c     goto    0x55c            	GOTO	_00266_DS_
                                           _00248_DS_
                                           ;	.line	298; "MC32F7361.c"	g_state = IDLE;
00050b   7663     clrr    0x63             	CLRR	_g_state
                                           ;	.line	301; "MC32F7361.c"	break;
00050c   a55c     goto    0x55c            	GOTO	_00266_DS_
                                           _00253_DS_
                                           ;	.line	304; "MC32F7361.c"	g_timer_count++;
00050d   662c     incr    0x2c             	INCR	_g_timer_count
                                           ;	.line	305; "MC32F7361.c"	if (pin_state != g_last_pin_state)
00050e   5830     movar   0x30             	MOVAR	_g_last_pin_state
00050f   4059     xorar   0x59             	XORAR	_pin_state
000510   e587     jbset   0x187, 0x2       	JBSET	PFLAG,2
000511   a513     goto    0x513            	GOTO	_00428_DS_
000512   a55c     goto    0x55c            	GOTO	_00266_DS_
                                           _00428_DS_
                                           ;	.line	307; "MC32F7361.c"	if (g_last_pin_state == 1)
000513   5830     movar   0x30             	MOVAR	_g_last_pin_state
000514   3901     xorai   0x1              	XORAI	0x01
000515   e587     jbset   0x187, 0x2       	JBSET	PFLAG,2
000516   a559     goto    0x559            	GOTO	_00262_DS_
                                           ;;unsigned compare: left < lit(0x8=8), size=1
                                           ;	.line	311; "MC32F7361.c"	if (g_timer_count >= RX_BIT1_MIN_TIME && g_timer_count <= RX_BIT1_MAX_TIME)
000517   3c08     movai   0x8              	MOVAI	0x08
000518   482c     rsubar  0x2c             	RSUBAR	_g_timer_count
000519   e187     jbset   0x187, 0         	JBSET	PFLAG,0
00051a   a54c     goto    0x54c            	GOTO	_00255_DS_
                                           ;;genSkipc:3291: created from rifx:013B5EFC
                                           ;;swapping arguments (AOP_TYPEs 1/3)
                                           ;;unsigned compare: left >= lit(0xD=13), size=1
00051b   3c0d     movai   0xd              	MOVAI	0x0d
00051c   482c     rsubar  0x2c             	RSUBAR	_g_timer_count
00051d   f187     jbclr   0x187, 0         	JBCLR	PFLAG,0
00051e   a54c     goto    0x54c            	GOTO	_00255_DS_
                                           ;;genSkipc:3291: created from rifx:013B5EFC
                                           ;	.line	313; "MC32F7361.c"	g_data[g_byte_count] |= BIT(g_bit_count);
00051f   582a     movar   0x2a             	MOVAR	_g_byte_count
000520   3f2d     addai   0x2d             	ADDAI	(_g_data + 0)
000521   561a     movra   0x1a             	MOVRA	r0x1041
000522   3c00     movai   0                	MOVAI	high (_g_data + 0)
000523   f187     jbclr   0x187, 0         	JBCLR	PFLAG,0
000524   3f01     addai   0x1              	ADDAI	0x01
000525   561d     movra   0x1d             	MOVRA	r0x1045
000526   581a     movar   0x1a             	MOVAR	r0x1041
000527   5784     movra   0x184            	MOVRA	FSR0
000528   581d     movar   0x1d             	MOVAR	r0x1045
000529   5785     movra   0x185            	MOVRA	FSR1
00052a   5982     movar   0x182            	MOVAR	INDF2
00052b   561e     movra   0x1e             	MOVRA	r0x1044
                                           ;;109	MOVAR	_g_bit_count
00052c   3c01     movai   0x1              	MOVAI	0x01
00052d   5620     movra   0x20             	MOVRA	r0x1047
                                           ;;108	MOVAR	r0x1046
00052e   582b     movar   0x2b             	MOVAR	_g_bit_count
00052f   561f     movra   0x1f             	MOVRA	r0x1046
000530   fe1f     jbclr   0x1f, 0x7        	JBCLR	r0x1046,7
000531   a53a     goto    0x53a            	GOTO	_00434_DS_
000532   3a00     isubai  0                	ISUBAI	0x00
000533   f587     jbclr   0x187, 0x2       	JBCLR	PFLAG,2
000534   a541     goto    0x541            	GOTO	_00432_DS_
                                           _00431_DS_
000535   5220     rlr     0x20             	RLR	r0x1047
000536   3f01     addai   0x1              	ADDAI	0x01
000537   e187     jbset   0x187, 0         	JBSET	PFLAG,0
000538   a535     goto    0x535            	GOTO	_00431_DS_
000539   a541     goto    0x541            	GOTO	_00432_DS_
                                           _00434_DS_
00053a   d187     bclr    0x187, 0         	BCLR	PFLAG,0
00053b   fe20     jbclr   0x20, 0x7        	JBCLR	r0x1047,7
00053c   c187     bset    0x187, 0         	BSET	PFLAG,0
00053d   4e20     rrr     0x20             	RRR	r0x1047
00053e   3f01     addai   0x1              	ADDAI	0x01
00053f   e187     jbset   0x187, 0         	JBSET	PFLAG,0
000540   a53a     goto    0x53a            	GOTO	_00434_DS_
                                           _00432_DS_
000541   581e     movar   0x1e             	MOVAR	r0x1044
000542   561f     movra   0x1f             	MOVRA	r0x1046
000543   5820     movar   0x20             	MOVAR	r0x1047
000544   5c1f     orar    0x1f             	ORAR	r0x1046
000545   561e     movra   0x1e             	MOVRA	r0x1044
000546   581a     movar   0x1a             	MOVAR	r0x1041
000547   5784     movra   0x184            	MOVRA	FSR0
000548   581d     movar   0x1d             	MOVAR	r0x1045
000549   5785     movra   0x185            	MOVRA	FSR1
00054a   581e     movar   0x1e             	MOVAR	r0x1044
00054b   5782     movra   0x182            	MOVRA	INDF2
                                           _00255_DS_
                                           ;	.line	316; "MC32F7361.c"	g_bit_count++;
00054c   662b     incr    0x2b             	INCR	_g_bit_count
                                           ;;unsigned compare: left < lit(0x8=8), size=1
                                           ;	.line	317; "MC32F7361.c"	if (g_bit_count >= 8)
00054d   3c08     movai   0x8              	MOVAI	0x08
00054e   482b     rsubar  0x2b             	RSUBAR	_g_bit_count
00054f   e187     jbset   0x187, 0         	JBSET	PFLAG,0
000550   a559     goto    0x559            	GOTO	_00262_DS_
                                           ;;genSkipc:3291: created from rifx:013B5EFC
                                           ;	.line	319; "MC32F7361.c"	g_bit_count = 0;
000551   762b     clrr    0x2b             	CLRR	_g_bit_count
                                           ;	.line	320; "MC32F7361.c"	g_byte_count++;
000552   662a     incr    0x2a             	INCR	_g_byte_count
                                           ;;unsigned compare: left < lit(0x3=3), size=1
                                           ;	.line	321; "MC32F7361.c"	if (g_byte_count >= RX_DATA_LEN)
000553   3c03     movai   0x3              	MOVAI	0x03
000554   482a     rsubar  0x2a             	RSUBAR	_g_byte_count
000555   e187     jbset   0x187, 0         	JBSET	PFLAG,0
000556   a559     goto    0x559            	GOTO	_00262_DS_
                                           ;;genSkipc:3291: created from rifx:013B5EFC
                                           ;	.line	323; "MC32F7361.c"	g_state = RX_END; // 
000557   3c06     movai   0x6              	MOVAI	0x06
000558   5663     movra   0x63             	MOVRA	_g_state
                                           _00262_DS_
                                           ;	.line	327; "MC32F7361.c"	g_timer_count = 0;
000559   762c     clrr    0x2c             	CLRR	_g_timer_count
                                           ;	.line	329; "MC32F7361.c"	break;
00055a   a55c     goto    0x55c            	GOTO	_00266_DS_
                                           _00265_DS_
                                           ;	.line	336; "MC32F7361.c"	g_state = IDLE;
00055b   7663     clrr    0x63             	CLRR	_g_state
                                           _00266_DS_
                                           ;	.line	339; "MC32F7361.c"	g_last_pin_state = pin_state;
00055c   5859     movar   0x59             	MOVAR	_pin_state
00055d   5630     movra   0x30             	MOVRA	_g_last_pin_state
                                           _00269_DS_
                                           ;	.line	340; "MC32F7361.c"	}
00055e   000c     return                   	RETURN	
                                           ; exit point of _timer_100us_isr
                                           
                                           ;***
                                           ;  pBlock Stats: dbName = C
                                           ;***
                                           ;entry:  _start_send	;Function start
                                           ; 2 exit points
                                           ;has an exit
                                           ;functions called:
                                           ;   __gptrget1
                                           ;   __gptrget1
                                           ;11 compiler assigned registers:
                                           ;   r0x1031
                                           ;   STK00
                                           ;   r0x1032
                                           ;   STK01
                                           ;   r0x1033
                                           ;   r0x1034
                                           ;   r0x1035
                                           ;   r0x1036
                                           ;   r0x1037
                                           ;   r0x1038
                                           ;   r0x1039
                                           ;; Starting pCode block
                                           _start_send	;Function start
                                           ; 2 exit points
                                           ;	.line	150; "MC32F7361.c"	void start_send(uint8_t *data)
00055f   5612     movra   0x12             	MOVRA	r0x1031
000560   5806     movar   0x6              	MOVAR	STK00
000561   5611     movra   0x11             	MOVRA	r0x1032
000562   5805     movar   0x5              	MOVAR	STK01
000563   5613     movra   0x13             	MOVRA	r0x1033
                                           ;	.line	152; "MC32F7361.c"	if (g_state != IDLE)
000564   3c00     movai   0                	MOVAI	0x00
000565   5c63     orar    0x63             	ORAR	_g_state
000566   f587     jbclr   0x187, 0x2       	JBCLR	PFLAG,2
000567   a569     goto    0x569            	GOTO	_00181_DS_
                                           ;	.line	153; "MC32F7361.c"	return; // 
000568   a59f     goto    0x59f            	GOTO	_00185_DS_
                                           _00181_DS_
                                           ;	.line	156; "MC32F7361.c"	for (i = 0; i < SEND_DATA_LEN; i++)
000569   7644     clrr    0x44             	CLRR	_i
00056a   7645     clrr    0x45             	CLRR	(_i + 1)
                                           _00183_DS_
                                           ;	.line	158; "MC32F7361.c"	g_data[i] = data[i];
00056b   5844     movar   0x44             	MOVAR	_i
00056c   3f2d     addai   0x2d             	ADDAI	(_g_data + 0)
00056d   5614     movra   0x14             	MOVRA	r0x1034
00056e   3c00     movai   0                	MOVAI	high (_g_data + 0)
00056f   5615     movra   0x15             	MOVRA	r0x1035
000570   5845     movar   0x45             	MOVAR	(_i + 1)
000571   f187     jbclr   0x187, 0         	JBCLR	PFLAG,0
000572   6045     jzar    0x45             	JZAR	(_i + 1)
000573   7e15     addra   0x15             	ADDRA	r0x1035
000574   5844     movar   0x44             	MOVAR	_i
000575   7c13     addar   0x13             	ADDAR	r0x1033
000576   5616     movra   0x16             	MOVRA	r0x1036
000577   5811     movar   0x11             	MOVAR	r0x1032
000578   5617     movra   0x17             	MOVRA	r0x1037
000579   5845     movar   0x45             	MOVAR	(_i + 1)
00057a   f187     jbclr   0x187, 0         	JBCLR	PFLAG,0
00057b   6045     jzar    0x45             	JZAR	(_i + 1)
00057c   7e17     addra   0x17             	ADDRA	r0x1037
00057d   5812     movar   0x12             	MOVAR	r0x1031
00057e   f187     jbclr   0x187, 0         	JBCLR	PFLAG,0
00057f   3f01     addai   0x1              	ADDAI	0x01
000580   5618     movra   0x18             	MOVRA	r0x1038
000581   5816     movar   0x16             	MOVAR	r0x1036
000582   5605     movra   0x5              	MOVRA	STK01
000583   5817     movar   0x17             	MOVAR	r0x1037
000584   5606     movra   0x6              	MOVRA	STK00
000585   5818     movar   0x18             	MOVAR	r0x1038
000586   868d     call    0x68d            	CALL	__gptrget1
000587   5619     movra   0x19             	MOVRA	r0x1039
000588   5814     movar   0x14             	MOVAR	r0x1034
000589   5784     movra   0x184            	MOVRA	FSR0
00058a   5815     movar   0x15             	MOVAR	r0x1035
00058b   5785     movra   0x185            	MOVRA	FSR1
00058c   5819     movar   0x19             	MOVAR	r0x1039
00058d   5782     movra   0x182            	MOVRA	INDF2
                                           ;	.line	156; "MC32F7361.c"	for (i = 0; i < SEND_DATA_LEN; i++)
00058e   6644     incr    0x44             	INCR	_i
00058f   f587     jbclr   0x187, 0x2       	JBCLR	PFLAG,2
000590   6645     incr    0x45             	INCR	(_i + 1)
                                           ;;unsigned compare: left < lit(0x3=3), size=2
000591   3c00     movai   0                	MOVAI	0x00
000592   4845     rsubar  0x45             	RSUBAR	(_i + 1)
000593   e587     jbset   0x187, 0x2       	JBSET	PFLAG,2
000594   a597     goto    0x597            	GOTO	_00199_DS_
000595   3c03     movai   0x3              	MOVAI	0x03
000596   4844     rsubar  0x44             	RSUBAR	_i
                                           _00199_DS_
000597   e187     jbset   0x187, 0         	JBSET	PFLAG,0
000598   a56b     goto    0x56b            	GOTO	_00183_DS_
                                           ;;genSkipc:3291: created from rifx:013B5EFC
                                           ;	.line	160; "MC32F7361.c"	g_byte_count = 0;
000599   762a     clrr    0x2a             	CLRR	_g_byte_count
                                           ;	.line	161; "MC32F7361.c"	g_bit_count = 0;
00059a   762b     clrr    0x2b             	CLRR	_g_bit_count
                                           ;	.line	162; "MC32F7361.c"	g_timer_count = 0;
00059b   762c     clrr    0x2c             	CLRR	_g_timer_count
                                           ;	.line	163; "MC32F7361.c"	g_state = TX_START;
00059c   3c01     movai   0x1              	MOVAI	0x01
00059d   5663     movra   0x63             	MOVRA	_g_state
                                           ;	.line	165; "MC32F7361.c"	set_pin_low(); // 
00059e   d794     bclr    0x194, 0x3       	BCLR	_IOP1bits,3
                                           _00185_DS_
                                           ;	.line	166; "MC32F7361.c"	}
00059f   000c     return                   	RETURN	
                                           ; exit point of _start_send
                                           
                                           ;***
                                           ;  pBlock Stats: dbName = C
                                           ;***
                                           ;entry:  _pwm_led_config	;Function start
                                           ; 2 exit points
                                           ;has an exit
                                           ;; Starting pCode block
                                           _pwm_led_config	;Function start
                                           ; 2 exit points
                                           ;	.line	133; "MC32F7361.c"	T0CR = DEF_SET_BIT6 | DEF_SET_BIT0 | DEF_SET_BIT1; // PWM,CPU,8
0005a0   3c43     movai   0x43             	MOVAI	0x43
0005a1   5798     movra   0x198            	MOVRA	_T0CR
                                           ;	.line	134; "MC32F7361.c"	T0CNT = 255 - 1;
0005a2   3cfe     movai   0xfe             	MOVAI	0xfe
0005a3   5799     movra   0x199            	MOVRA	_T0CNT
                                           ;	.line	135; "MC32F7361.c"	T0LOAD = 255 - 1; //
0005a4   3cfe     movai   0xfe             	MOVAI	0xfe
0005a5   579a     movra   0x19a            	MOVRA	_T0LOAD
                                           ;	.line	138; "MC32F7361.c"	T2CR = DEF_SET_BIT6 | DEF_SET_BIT0 | DEF_SET_BIT1; // PWM,CPU,8
0005a6   3c43     movai   0x43             	MOVAI	0x43
0005a7   57a0     movra   0x1a0            	MOVRA	_T2CR
                                           ;	.line	139; "MC32F7361.c"	T2CNT = 255 - 1;
0005a8   3cfe     movai   0xfe             	MOVAI	0xfe
0005a9   57a1     movra   0x1a1            	MOVRA	_T2CNT
                                           ;	.line	140; "MC32F7361.c"	T2LOAD = 255 - 1; //
0005aa   3cfe     movai   0xfe             	MOVAI	0xfe
0005ab   57a2     movra   0x1a2            	MOVRA	_T2LOAD
                                           ;	.line	143; "MC32F7361.c"	PWMCR1 = 0x00; // pwm
0005ac   77ad     clrr    0x1ad            	CLRR	_PWMCR1
                                           ;	.line	144; "MC32F7361.c"	PWMCR3 = 0x04; // PWM0P02
0005ad   3c04     movai   0x4              	MOVAI	0x04
0005ae   57bd     movra   0x1bd            	MOVRA	_PWMCR3
                                           ;	.line	145; "MC32F7361.c"	T0EN = 1;
0005af   cf98     bset    0x198, 0x7       	BSET	_T0CRbits,7
                                           ;	.line	146; "MC32F7361.c"	T2EN = 1;
0005b0   cfa0     bset    0x1a0, 0x7       	BSET	_T2CRbits,7
                                           ;	.line	147; "MC32F7361.c"	}
0005b1   000c     return                   	RETURN	
                                           ; exit point of _pwm_led_config
                                           
                                           ;***
                                           ;  pBlock Stats: dbName = C
                                           ;***
                                           ;entry:  _timer3_config	;Function start
                                           ; 2 exit points
                                           ;has an exit
                                           ;; Starting pCode block
                                           _timer3_config	;Function start
                                           ; 2 exit points
                                           ;	.line	122; "MC32F7361.c"	T3CR = 0x03; // ,CPU,8
0005b2   3c03     movai   0x3              	MOVAI	0x03
0005b3   57a4     movra   0x1a4            	MOVRA	_T3CR
                                           ;	.line	124; "MC32F7361.c"	T3LOAD = 100 - 1; // 8100us
0005b4   3c63     movai   0x63             	MOVAI	0x63
0005b5   57a6     movra   0x1a6            	MOVRA	_T3LOAD
                                           ;	.line	125; "MC32F7361.c"	T3EN = 1;
0005b6   cfa4     bset    0x1a4, 0x7       	BSET	_T3CRbits,7
                                           ;	.line	126; "MC32F7361.c"	T3IE = 1;
0005b7   cf8a     bset    0x18a, 0x7       	BSET	_INTEbits,7
                                           ;	.line	127; "MC32F7361.c"	}
0005b8   000c     return                   	RETURN	
                                           ; exit point of _timer3_config
                                           
                                           ;***
                                           ;  pBlock Stats: dbName = C
                                           ;***
                                           ;entry:  _timer1_config	;Function start
                                           ; 2 exit points
                                           ;has an exit
                                           ;; Starting pCode block
                                           _timer1_config	;Function start
                                           ; 2 exit points
                                           ;	.line	112; "MC32F7361.c"	T1CR = 0x15; // FLOSC3232Khz(32768) / 32  1Khz0.9765625ms
0005b9   3c15     movai   0x15             	MOVAI	0x15
0005ba   579c     movra   0x19c            	MOVRA	_T1CR
                                           ;	.line	114; "MC32F7361.c"	T1LOAD = 10 - 1; //
0005bb   3c09     movai   0x9              	MOVAI	0x09
0005bc   579e     movra   0x19e            	MOVRA	_T1LOAD
                                           ;	.line	115; "MC32F7361.c"	T1EN = 1;
0005bd   cf9c     bset    0x19c, 0x7       	BSET	_T1CRbits,7
                                           ;	.line	116; "MC32F7361.c"	T1IE = 1;
0005be   c38a     bset    0x18a, 0x1       	BSET	_INTEbits,1
                                           ;	.line	117; "MC32F7361.c"	}
0005bf   000c     return                   	RETURN	
                                           ; exit point of _timer1_config
                                           
                                           ;***
                                           ;  pBlock Stats: dbName = C
                                           ;***
                                           ;entry:  _adc_config	;Function start
                                           ; 2 exit points
                                           ;has an exit
                                           ;; Starting pCode block
                                           _adc_config	;Function start
                                           ; 2 exit points
                                           ;	.line	90; "MC32F7361.c"	P12OE = 0;    // 
0005c0   d595     bclr    0x195, 0x2       	BCLR	_OEP1bits,2
                                           ;	.line	91; "MC32F7361.c"	P12DC = 1;    // 
0005c1   c5b7     bset    0x1b7, 0x2       	BSET	_P1ADCRbits,2
                                           ;	.line	92; "MC32F7361.c"	ADCR0 = 0xFB; // ADC12H8L4
0005c2   3cfb     movai   0xfb             	MOVAI	0xfb
0005c3   57b0     movra   0x1b0            	MOVRA	_ADCR0
                                           ;	.line	93; "MC32F7361.c"	ADCR1 = 0x80; // adc322V
0005c4   3c80     movai   0x80             	MOVAI	0x80
0005c5   57b1     movra   0x1b1            	MOVRA	_ADCR1
                                           ;	.line	94; "MC32F7361.c"	ADCR2 = 0xFF; // 15ADCLK
0005c6   3cff     movai   0xff             	MOVAI	0xff
0005c7   57b2     movra   0x1b2            	MOVRA	_ADCR2
                                           ;	.line	96; "MC32F7361.c"	ADEN = 1;
0005c8   c1b0     bset    0x1b0, 0         	BSET	_ADCR0bits,0
                                           ;	.line	97; "MC32F7361.c"	}
0005c9   000c     return                   	RETURN	
                                           ; exit point of _adc_config
                                           
                                           ;***
                                           ;  pBlock Stats: dbName = C
                                           ;***
                                           ;entry:  _IO_Init	;Function start
                                           ; 2 exit points
                                           ;has an exit
                                           ;; Starting pCode block
                                           _IO_Init	;Function start
                                           ; 2 exit points
                                           ;	.line	66; "MC32F7361.c"	IOP0 = 0x00;   // io
0005ca   7790     clrr    0x190            	CLRR	_IOP0
                                           ;	.line	67; "MC32F7361.c"	OEP0 = 0x3F;   // io 1:out  0:in
0005cb   3c3f     movai   0x3f             	MOVAI	0x3f
0005cc   5791     movra   0x191            	MOVRA	_OEP0
                                           ;	.line	68; "MC32F7361.c"	PUP0 = 0x00;   // io   1:enable  0:disable
0005cd   7792     clrr    0x192            	CLRR	_PUP0
                                           ;	.line	69; "MC32F7361.c"	PDP0 = 0x00;   // io   1:enable  0:disable
0005ce   7793     clrr    0x193            	CLRR	_PDP0
                                           ;	.line	70; "MC32F7361.c"	P0ADCR = 0x00; // io  1:  0:io
0005cf   77b6     clrr    0x1b6            	CLRR	_P0ADCR
                                           ;	.line	72; "MC32F7361.c"	IOP1 = 0x00;   // io
0005d0   7794     clrr    0x194            	CLRR	_IOP1
                                           ;	.line	73; "MC32F7361.c"	OEP1 = 0xFF;   // io 1:out  0:in
0005d1   3cff     movai   0xff             	MOVAI	0xff
0005d2   5795     movra   0x195            	MOVRA	_OEP1
                                           ;	.line	74; "MC32F7361.c"	PUP1 = 0x00;   // io   1:enable  0:disable
0005d3   7796     clrr    0x196            	CLRR	_PUP1
                                           ;	.line	75; "MC32F7361.c"	PDP1 = 0x00;   // io   1:enable  0:disable
0005d4   7797     clrr    0x197            	CLRR	_PDP1
                                           ;	.line	76; "MC32F7361.c"	P1ADCR = 0x00; // io  1:  0:io
0005d5   77b7     clrr    0x1b7            	CLRR	_P1ADCR
                                           ;	.line	78; "MC32F7361.c"	IOP2 = 0x00; // io
0005d6   77b8     clrr    0x1b8            	CLRR	_IOP2
                                           ;	.line	79; "MC32F7361.c"	OEP2 = 0x0F; // io 1:out  0:in
0005d7   3c0f     movai   0xf              	MOVAI	0x0f
0005d8   57b9     movra   0x1b9            	MOVRA	_OEP2
                                           ;	.line	80; "MC32F7361.c"	PUP2 = 0x00; // io   1:enable  0:disable
0005d9   77ba     clrr    0x1ba            	CLRR	_PUP2
                                           ;	.line	81; "MC32F7361.c"	PDP2 = 0x00; // io   1:enable  0:disablea
0005da   77bb     clrr    0x1bb            	CLRR	_PDP2
                                           ;	.line	83; "MC32F7361.c"	PMOD = 0x00;  // P00P01P13 io
0005db   77bc     clrr    0x1bc            	CLRR	_PMOD
                                           ;	.line	84; "MC32F7361.c"	DRVCR = 0x80; // 
0005dc   3c80     movai   0x80             	MOVAI	0x80
0005dd   578c     movra   0x18c            	MOVRA	_DRVCR
                                           ;	.line	85; "MC32F7361.c"	}
0005de   000c     return                   	RETURN	
                                           ; exit point of _IO_Init
                                           
                                           ;***
                                           ;  pBlock Stats: dbName = C
                                           ;***
                                           ;entry:  _CLR_RAM	;Function start
                                           ; 2 exit points
                                           ;has an exit
                                           ;; Starting pCode block
                                           _CLR_RAM	;Function start
                                           ; 2 exit points
                                           ;	.line	51; "MC32F7361.c"	for (FSR0 = 0; FSR0 < 0xff; FSR0++)
0005df   7784     clrr    0x184            	CLRR	_FSR0
                                           ;;unsigned compare: left < lit(0xFF=255), size=1
                                           _00155_DS_
0005e0   3cff     movai   0xff             	MOVAI	0xff
0005e1   4984     rsubar  0x184            	RSUBAR	_FSR0
0005e2   f187     jbclr   0x187, 0         	JBCLR	PFLAG,0
0005e3   a5e7     goto    0x5e7            	GOTO	_00153_DS_
                                           ;;genSkipc:3291: created from rifx:013B5EFC
                                           ;	.line	53; "MC32F7361.c"	INDF0 = 0x00;
0005e4   7780     clrr    0x180            	CLRR	_INDF0
                                           ;	.line	51; "MC32F7361.c"	for (FSR0 = 0; FSR0 < 0xff; FSR0++)
0005e5   6784     incr    0x184            	INCR	_FSR0
0005e6   a5e0     goto    0x5e0            	GOTO	_00155_DS_
                                           _00153_DS_
                                           ;	.line	55; "MC32F7361.c"	FSR0 = 0xFF;
0005e7   3cff     movai   0xff             	MOVAI	0xff
0005e8   5784     movra   0x184            	MOVRA	_FSR0
                                           ;	.line	56; "MC32F7361.c"	INDF0 = 0x00;
0005e9   7780     clrr    0x180            	CLRR	_INDF0
                                           ;	.line	57; "MC32F7361.c"	}
0005ea   000c     return                   	RETURN	
                                           ; exit point of _CLR_RAM
                                           
                                           ;***
                                           ;  pBlock Stats: dbName = C
                                           ;***
                                           ;entry:  _delay_us	;Function start
                                           ; 2 exit points
                                           ;has an exit
                                           ;1 compiler assigned register :
                                           ;   r0x1031
                                           ;; Starting pCode block
                                           _delay_us	;Function start
                                           ; 2 exit points
                                           ;	.line	34; "MC32F7361.c"	void delay_us(u8 xus)
0005eb   5612     movra   0x12             	MOVRA	r0x1031
                                           _00145_DS_
                                           ;	.line	36; "MC32F7361.c"	while (xus)
0005ec   3c00     movai   0                	MOVAI	0x00
0005ed   5c12     orar    0x12             	ORAR	r0x1031
0005ee   f587     jbclr   0x187, 0x2       	JBCLR	PFLAG,2
0005ef   a5f3     goto    0x5f3            	GOTO	_00148_DS_
                                           ;	.line	38; "MC32F7361.c"	Nop();
0005f0   0000     nop                      	nop	
                                           ;	.line	39; "MC32F7361.c"	xus--; //  --while()
0005f1   6e12     decr    0x12             	DECR	r0x1031
0005f2   a5ec     goto    0x5ec            	GOTO	_00145_DS_
                                           _00148_DS_
                                           ;	.line	41; "MC32F7361.c"	}
0005f3   000c     return                   	RETURN	
                                           ; exit point of _delay_us
                                           
                                           ;***
                                           ;  pBlock Stats: dbName = C
                                           ;***
                                           ;entry:  _delay_ms	;Function start
                                           ; 2 exit points
                                           ;has an exit
                                           ;7 compiler assigned registers:
                                           ;   r0x1031
                                           ;   STK00
                                           ;   r0x1032
                                           ;   r0x1033
                                           ;   r0x1034
                                           ;   r0x1035
                                           ;   r0x1036
                                           ;; Starting pCode block
                                           _delay_ms	;Function start
                                           ; 2 exit points
                                           ;	.line	20; "MC32F7361.c"	void delay_ms(u16 xms)
0005f4   5612     movra   0x12             	MOVRA	r0x1031
0005f5   5806     movar   0x6              	MOVAR	STK00
0005f6   5611     movra   0x11             	MOVRA	r0x1032
                                           _00137_DS_
                                           ;	.line	22; "MC32F7361.c"	while (xms)
0005f7   5811     movar   0x11             	MOVAR	r0x1032
0005f8   5c12     orar    0x12             	ORAR	r0x1031
0005f9   f587     jbclr   0x187, 0x2       	JBCLR	PFLAG,2
0005fa   a612     goto    0x612            	GOTO	_00140_DS_
                                           ;	.line	25; "MC32F7361.c"	while (i--)
0005fb   3c3c     movai   0x3c             	MOVAI	0x3c
0005fc   5613     movra   0x13             	MOVRA	r0x1033
0005fd   3c02     movai   0x2              	MOVAI	0x02
0005fe   5614     movra   0x14             	MOVRA	r0x1034
                                           _00134_DS_
0005ff   5813     movar   0x13             	MOVAR	r0x1033
000600   5615     movra   0x15             	MOVRA	r0x1035
000601   5814     movar   0x14             	MOVAR	r0x1034
000602   5616     movra   0x16             	MOVRA	r0x1036
000603   3cff     movai   0xff             	MOVAI	0xff
000604   7e13     addra   0x13             	ADDRA	r0x1033
000605   e187     jbset   0x187, 0         	JBSET	PFLAG,0
000606   6e14     decr    0x14             	DECR	r0x1034
000607   5815     movar   0x15             	MOVAR	r0x1035
000608   5c16     orar    0x16             	ORAR	r0x1036
000609   f587     jbclr   0x187, 0x2       	JBCLR	PFLAG,2
00060a   a60d     goto    0x60d            	GOTO	_00136_DS_
                                           ;	.line	27; "MC32F7361.c"	Nop();
00060b   0000     nop                      	nop	
00060c   a5ff     goto    0x5ff            	GOTO	_00134_DS_
                                           _00136_DS_
                                           ;	.line	29; "MC32F7361.c"	xms--; //  --while()
00060d   3cff     movai   0xff             	MOVAI	0xff
00060e   7e11     addra   0x11             	ADDRA	r0x1032
00060f   e187     jbset   0x187, 0         	JBSET	PFLAG,0
000610   6e12     decr    0x12             	DECR	r0x1031
000611   a5f7     goto    0x5f7            	GOTO	_00137_DS_
                                           _00140_DS_
                                           ;	.line	31; "MC32F7361.c"	}
000612   000c     return                   	RETURN	
                                           ; exit point of _delay_ms
                                           
                                           ;***
                                           ;  pBlock Stats: dbName = C
                                           ;***
                                           ;entry:  _send_data_msb	;Function start
                                           ; 2 exit points
                                           ;has an exit
                                           ;functions called:
                                           ;   _delay_ms
                                           ;   _delay_ms
                                           ;   _delay_ms
                                           ;   _delay_ms
                                           ;   _delay_ms
                                           ;   _delay_ms
                                           ;   _delay_ms
                                           ;   _delay_ms
                                           ;   _delay_ms
                                           ;   _delay_ms
                                           ;   _delay_ms
                                           ;   _delay_ms
                                           ;   _delay_ms
                                           ;   _delay_ms
                                           ;   _delay_ms
                                           ;   _delay_ms
                                           ;13 compiler assigned registers:
                                           ;   r0x1049
                                           ;   STK00
                                           ;   r0x104A
                                           ;   STK01
                                           ;   r0x104B
                                           ;   STK02
                                           ;   r0x104C
                                           ;   r0x104D
                                           ;   r0x104E
                                           ;   r0x104F
                                           ;   r0x1050
                                           ;   r0x1051
                                           ;   r0x1052
                                           ;; Starting pCode block
                                           _send_data_msb	;Function start
                                           ; 2 exit points
                                           ;	.line	383; "user.h"	void send_data_msb(u32 send_data)
000613   560a     movra   0xa              	MOVRA	r0x1049
000614   5806     movar   0x6              	MOVAR	STK00
000615   5609     movra   0x9              	MOVRA	r0x104A
000616   5805     movar   0x5              	MOVAR	STK01
000617   5608     movra   0x8              	MOVRA	r0x104B
000618   5804     movar   0x4              	MOVAR	STK02
000619   5607     movra   0x7              	MOVRA	r0x104C
                                           ;	.line	387; "user.h"	DEBUG_PIN = 1;
00061a   c5b8     bset    0x1b8, 0x2       	BSET	_IOP2bits,2
                                           ;	.line	388; "user.h"	delay_ms(15);
00061b   3c0f     movai   0xf              	MOVAI	0x0f
00061c   5606     movra   0x6              	MOVRA	STK00
00061d   3c00     movai   0                	MOVAI	0x00
00061e   85f4     call    0x5f4            	CALL	_delay_ms
                                           ;	.line	390; "user.h"	DEBUG_PIN = 0;
00061f   d5b8     bclr    0x1b8, 0x2       	BCLR	_IOP2bits,2
                                           ;	.line	391; "user.h"	delay_ms(7); //
000620   3c07     movai   0x7              	MOVAI	0x07
000621   5606     movra   0x6              	MOVRA	STK00
000622   3c00     movai   0                	MOVAI	0x00
000623   85f4     call    0x5f4            	CALL	_delay_ms
                                           ;	.line	393; "user.h"	for (u8 i = 0; i < 32; i++)
000624   760b     clrr    0xb              	CLRR	r0x104D
                                           ;;unsigned compare: left < lit(0x20=32), size=1
                                           _00110_DS_
000625   3c20     movai   0x20             	MOVAI	0x20
000626   480b     rsubar  0xb              	RSUBAR	r0x104D
000627   f187     jbclr   0x187, 0         	JBCLR	PFLAG,0
000628   a658     goto    0x658            	GOTO	_00108_DS_
                                           ;;genSkipc:3291: created from rifx:013B5EFC
                                           ;	.line	395; "user.h"	if ((send_data >> (32 - 1 - i)) & 0x01)
000629   580b     movar   0xb              	MOVAR	r0x104D
00062a   3a1f     isubai  0x1f             	ISUBAI	0x1f
00062b   560c     movra   0xc              	MOVRA	r0x104E
00062c   580a     movar   0xa              	MOVAR	r0x1049
00062d   5610     movra   0x10             	MOVRA	r0x104F
00062e   5809     movar   0x9              	MOVAR	r0x104A
00062f   560f     movra   0xf              	MOVRA	r0x1050
000630   5808     movar   0x8              	MOVAR	r0x104B
000631   560e     movra   0xe              	MOVRA	r0x1051
000632   5807     movar   0x7              	MOVAR	r0x104C
000633   560d     movra   0xd              	MOVRA	r0x1052
000634   580c     movar   0xc              	MOVAR	r0x104E
000635   3a00     isubai  0                	ISUBAI	0x00
000636   f587     jbclr   0x187, 0x2       	JBCLR	PFLAG,2
000637   a63f     goto    0x63f            	GOTO	_00129_DS_
                                           _00128_DS_
000638   4e10     rrr     0x10             	RRR	r0x104F
000639   4e0f     rrr     0xf              	RRR	r0x1050
00063a   4e0e     rrr     0xe              	RRR	r0x1051
00063b   4e0d     rrr     0xd              	RRR	r0x1052
00063c   3f01     addai   0x1              	ADDAI	0x01
00063d   e187     jbset   0x187, 0         	JBSET	PFLAG,0
00063e   a638     goto    0x638            	GOTO	_00128_DS_
                                           _00129_DS_
00063f   e00d     jbset   0xd, 0           	JBSET	r0x1052,0
000640   a64c     goto    0x64c            	GOTO	_00106_DS_
                                           ;	.line	399; "user.h"	DEBUG_PIN = 1;
000641   c5b8     bset    0x1b8, 0x2       	BSET	_IOP2bits,2
                                           ;	.line	400; "user.h"	delay_ms(5); //
000642   3c05     movai   0x5              	MOVAI	0x05
000643   5606     movra   0x6              	MOVRA	STK00
000644   3c00     movai   0                	MOVAI	0x00
000645   85f4     call    0x5f4            	CALL	_delay_ms
                                           ;	.line	402; "user.h"	DEBUG_PIN = 0;
000646   d5b8     bclr    0x1b8, 0x2       	BCLR	_IOP2bits,2
                                           ;	.line	403; "user.h"	delay_ms(10); //
000647   3c0a     movai   0xa              	MOVAI	0x0a
000648   5606     movra   0x6              	MOVRA	STK00
000649   3c00     movai   0                	MOVAI	0x00
00064a   85f4     call    0x5f4            	CALL	_delay_ms
00064b   a656     goto    0x656            	GOTO	_00111_DS_
                                           _00106_DS_
                                           ;	.line	409; "user.h"	DEBUG_PIN = 1;
00064c   c5b8     bset    0x1b8, 0x2       	BSET	_IOP2bits,2
                                           ;	.line	410; "user.h"	delay_ms(5); //
00064d   3c05     movai   0x5              	MOVAI	0x05
00064e   5606     movra   0x6              	MOVRA	STK00
00064f   3c00     movai   0                	MOVAI	0x00
000650   85f4     call    0x5f4            	CALL	_delay_ms
                                           ;	.line	412; "user.h"	DEBUG_PIN = 0;
000651   d5b8     bclr    0x1b8, 0x2       	BCLR	_IOP2bits,2
                                           ;	.line	413; "user.h"	delay_ms(5); //
000652   3c05     movai   0x5              	MOVAI	0x05
000653   5606     movra   0x6              	MOVRA	STK00
000654   3c00     movai   0                	MOVAI	0x00
000655   85f4     call    0x5f4            	CALL	_delay_ms
                                           _00111_DS_
                                           ;	.line	393; "user.h"	for (u8 i = 0; i < 32; i++)
000656   660b     incr    0xb              	INCR	r0x104D
000657   a625     goto    0x625            	GOTO	_00110_DS_
                                           _00108_DS_
                                           ;	.line	419; "user.h"	DEBUG_PIN = 0;
000658   d5b8     bclr    0x1b8, 0x2       	BCLR	_IOP2bits,2
                                           ;	.line	420; "user.h"	delay_ms(1);
000659   3c01     movai   0x1              	MOVAI	0x01
00065a   5606     movra   0x6              	MOVRA	STK00
00065b   3c00     movai   0                	MOVAI	0x00
00065c   85f4     call    0x5f4            	CALL	_delay_ms
                                           ;	.line	421; "user.h"	DEBUG_PIN = 1;
00065d   c5b8     bset    0x1b8, 0x2       	BSET	_IOP2bits,2
                                           ;	.line	422; "user.h"	delay_ms(1);
00065e   3c01     movai   0x1              	MOVAI	0x01
00065f   5606     movra   0x6              	MOVRA	STK00
000660   3c00     movai   0                	MOVAI	0x00
000661   85f4     call    0x5f4            	CALL	_delay_ms
                                           ;	.line	423; "user.h"	DEBUG_PIN = 0;
000662   d5b8     bclr    0x1b8, 0x2       	BCLR	_IOP2bits,2
                                           ;	.line	424; "user.h"	}
000663   000c     return                   	RETURN	
                                           ; exit point of _send_data_msb
                                           
                                           
                                           ;	code size estimation:
                                           ;	 1619+    0 =  1619 instructions ( 3238 byte)
                                           
                                           	end
                                           ;--------------------------------------------------------
                                           ; File Created by SN-SDCC : SinoMCU ANSI-C Compiler
                                           ; Version 2.0.0 (Dec 11 2019) (MINGW32)
                                           ; This file was generated Wed Dec 18 18:06:07 2024
                                           ;--------------------------------------------------------
                                           ; MC32 port for the RISC core
                                           ;--------------------------------------------------------
                                           ;	.file	"MC32F7361.c"
                                           	list	p=7361
                                           	radix dec
                                           	include "7361.inc"
                                           ;--------------------------------------------------------
                                           ; external declarations
                                           ;--------------------------------------------------------
                                           	extern	_TM1650_Clear
                                           	extern	_TM1650_DisplayBit
                                           	extern	_INDF0bits
                                           	extern	_INDF1bits
                                           	extern	_INDF2bits
                                           	extern	_HIBYTEbits
                                           	extern	_FSR0bits
                                           	extern	_FSR1bits
                                           	extern	_PCLbits
                                           	extern	_PFLAGbits
                                           	extern	_MCRbits
                                           	extern	_INDF3bits
                                           	extern	_INTEbits
                                           	extern	_INTFbits
                                           	extern	_DRVCRbits
                                           	extern	_P0KBCRbits
                                           	extern	_P1KBCRbits
                                           	extern	_P2KBCRbits
                                           	extern	_IOP0bits
                                           	extern	_OEP0bits
                                           	extern	_PUP0bits
                                           	extern	_PDP0bits
                                           	extern	_IOP1bits
                                           	extern	_OEP1bits
                                           	extern	_PUP1bits
                                           	extern	_PDP1bits
                                           	extern	_T0CRbits
                                           	extern	_T0CNTbits
                                           	extern	_T0LOADbits
                                           	extern	_T0DATAbits
                                           	extern	_T1CRbits
                                           	extern	_T1CNTbits
                                           	extern	_T1LOADbits
                                           	extern	_T1DATAbits
                                           	extern	_T2CRbits
                                           	extern	_T2CNTbits
                                           	extern	_T2LOADbits
                                           	extern	_T2DATAbits
                                           	extern	_T3CRbits
                                           	extern	_T3CNTbits
                                           	extern	_T3LOADbits
                                           	extern	_PWM0DRbits
                                           	extern	_PWM1DRbits
                                           	extern	_PWM2DRbits
                                           	extern	_PWMCR0bits
                                           	extern	_PWMCR1bits
                                           	extern	_OSCMRbits
                                           	extern	_LVDCRbits
                                           	extern	_ADCR0bits
                                           	extern	_ADCR1bits
                                           	extern	_ADCR2bits
                                           	extern	_OSADJCRbits
                                           	extern	_ADRHbits
                                           	extern	_ADRLbits
                                           	extern	_P0ADCRbits
                                           	extern	_P1ADCRbits
                                           	extern	_IOP2bits
                                           	extern	_OEP2bits
                                           	extern	_PUP2bits
                                           	extern	_PDP2bits
                                           	extern	_PMODbits
                                           	extern	_PWMCR3bits
                                           	extern	_PWMCR2bits
                                           	extern	_PFRCCRbits
                                           	extern	_PFRCCALbits
                                           	extern	_EECRbits
                                           	extern	_EEPRbits
                                           	extern	_EEARbits
                                           	extern	_EEDRHbits
                                           	extern	_EEDRLbits
                                           	extern	_DBGCRbits
                                           	extern	_DBGPRbits
                                           	extern	_HIRCCALbits
                                           	extern	_INDF0
                                           	extern	_INDF1
                                           	extern	_INDF2
                                           	extern	_HIBYTE
                                           	extern	_FSR0
                                           	extern	_FSR1
                                           	extern	_PCL
                                           	extern	_PFLAG
                                           	extern	_MCR
                                           	extern	_INDF3
                                           	extern	_INTE
                                           	extern	_INTF
                                           	extern	_DRVCR
                                           	extern	_P0KBCR
                                           	extern	_P1KBCR
                                           	extern	_P2KBCR
                                           	extern	_IOP0
                                           	extern	_OEP0
                                           	extern	_PUP0
                                           	extern	_PDP0
                                           	extern	_IOP1
                                           	extern	_OEP1
                                           	extern	_PUP1
                                           	extern	_PDP1
                                           	extern	_T0CR
                                           	extern	_T0CNT
                                           	extern	_T0LOAD
                                           	extern	_T0DATA
                                           	extern	_T1CR
                                           	extern	_T1CNT
                                           	extern	_T1LOAD
                                           	extern	_T1DATA
                                           	extern	_T2CR
                                           	extern	_T2CNT
                                           	extern	_T2LOAD
                                           	extern	_T2DATA
                                           	extern	_T3CR
                                           	extern	_T3CNT
                                           	extern	_T3LOAD
                                           	extern	_PWM0DR
                                           	extern	_PWM1DR
                                           	extern	_PWM2DR
                                           	extern	_PWMCR0
                                           	extern	_PWMCR1
                                           	extern	_OSCMR
                                           	extern	_LVDCR
                                           	extern	_ADCR0
                                           	extern	_ADCR1
                                           	extern	_ADCR2
                                           	extern	_OSADJCR
                                           	extern	_ADRH
                                           	extern	_ADRL
                                           	extern	_P0ADCR
                                           	extern	_P1ADCR
                                           	extern	_IOP2
                                           	extern	_OEP2
                                           	extern	_PUP2
                                           	extern	_PDP2
                                           	extern	_PMOD
                                           	extern	_PWMCR3
                                           	extern	_PWMCR2
                                           	extern	_PFRCCR
                                           	extern	_PFRCCAL
                                           	extern	_EECR
                                           	extern	_EEPR
                                           	extern	_EEAR
                                           	extern	_EEDRH
                                           	extern	_EEDRL
                                           	extern	_DBGCR
                                           	extern	_DBGPR
                                           	extern	_HIRCCAL
                                           	extern	__gptrget1
                                           	extern	__mulchar
                                           ;--------------------------------------------------------
                                           ; global declarations
                                           ;--------------------------------------------------------
                                           	global	_TM1650_DisplayNum
                                           	global	_TM1650_Init
                                           	global	_TM1650_WriteByte
                                           	global	_bsp_i2c_stop
                                           	global	_bsp_i2c_rx_ack
                                           	global	_bsp_i2c_tx_byte
                                           	global	_bsp_i2c_start
                                           	global	_key_ad_key_event_deal
                                           	global	_ad_key_event_10ms_isr
                                           	global	_get_key_id
                                           	global	_adc_get_val
                                           	global	_adc_single_convert
                                           	global	_adc_channel_sel
                                           	global	_Sys_Init
                                           	global	_timer_100us_isr
                                           	global	_start_send
                                           	global	_pwm_led_config
                                           	global	_timer3_config
                                           	global	_timer1_config
                                           	global	_adc_config
                                           	global	_IO_Init
                                           	global	_CLR_RAM
                                           	global	_delay_us
                                           	global	_delay_ms
                                           	global	_send_data_msb
                                           	global	_main
                                           	global	_int_isr
                                           	global	_abuf
                                           	global	_statusbuf
                                           	global	_i
                                           	global	_tmp
                                           	global	_cur_w_pwm_duty
                                           	global	_cur_y_pwm_duty
                                           	global	_cur_light_status
                                           	global	_send_buf
                                           	global	_pin_state
                                           	global	_adc_val_tmp
                                           	global	_adc_val_sum
                                           	global	_get_adcmax
                                           	global	_get_adcmin
                                           	global	_adc_val
                                           	global	_ad_key_event
                                           	global	_cur_key_id
                                           	global	_set_time_hold_cnt
                                           	global	_cur_status
                                           	global	_set_time_delay_cnt
                                           	global	_set_time_done_cnt
                                           	global	_thousand
                                           	global	_hundred
                                           	global	_decade
                                           	global	_unit
                                           	global	_flag1
                                           	global	_id_table
                                           	global	_key_event_table
                                           	global	_NUM_TABLE
                                           
                                           	global STK06
                                           	global STK05
                                           	global STK04
                                           	global STK03
                                           	global STK02
                                           	global STK01
                                           	global STK00
                                           
                                           sharebank udata_ovr 0x0000
                                           STK06	res 1
                                           STK05	res 1
                                           STK04	res 1
                                           STK03	res 1
                                           STK02	res 1
                                           STK01	res 1
                                           STK00	res 1
                                           
                                           ;--------------------------------------------------------
                                           ; global definitions
                                           ;--------------------------------------------------------
                                           UD_MC32F7361_0	udata
                                           _abuf	res	1
                                           
                                           UD_MC32F7361_1	udata
                                           _statusbuf	res	1
                                           
                                           UD_MC32F7361_2	udata
                                           _i	res	2
                                           
                                           UD_MC32F7361_3	udata
                                           _tmp	res	2
                                           
                                           UD_MC32F7361_4	udata
                                           _cur_w_pwm_duty	res	1
                                           
                                           UD_MC32F7361_5	udata
                                           _cur_y_pwm_duty	res	1
                                           
                                           UD_MC32F7361_6	udata
                                           _cur_light_status	res	1
                                           
                                           UD_MC32F7361_7	udata
                                           _send_buf	res	3
                                           
                                           UD_MC32F7361_8	udata
                                           _pin_state	res	1
                                           
                                           UD_MC32F7361_9	udata
                                           _adc_val_tmp	res	2
                                           
                                           UD_MC32F7361_10	udata
                                           _adc_val_sum	res	4
                                           
                                           UD_MC32F7361_11	udata
                                           _get_adcmax	res	2
                                           
                                           UD_MC32F7361_12	udata
                                           _get_adcmin	res	2
                                           
                                           UD_MC32F7361_13	udata
                                           _adc_val	res	2
                                           
                                           UD_MC32F7361_14	udata
                                           _ad_key_event	res	1
                                           
                                           UD_MC32F7361_15	udata
                                           _cur_key_id	res	1
                                           
                                           UD_MC32F7361_16	udata
                                           _set_time_hold_cnt	res	1
                                           
                                           UD_MC32F7361_17	udata
                                           _cur_status	res	1
                                           
                                           UD_MC32F7361_18	udata
                                           _set_time_delay_cnt	res	2
                                           
                                           UD_MC32F7361_19	udata
                                           _set_time_done_cnt	res	2
                                           
                                           UD_MC32F7361_20	udata
                                           _thousand	res	1
                                           
                                           UD_MC32F7361_21	udata
                                           _hundred	res	1
                                           
                                           UD_MC32F7361_22	udata
                                           _decade	res	1
                                           
                                           UD_MC32F7361_23	udata
                                           _unit	res	1
                                           
                                           UD_MC32F7361_24	udata
                                           _flag1	res	1
                                           
                                           ;--------------------------------------------------------
                                           ; absolute symbol definitions
                                           ;--------------------------------------------------------
                                           ;--------------------------------------------------------
                                           ; compiler-defined variables
                                           ;--------------------------------------------------------
                                           UDL_MC32F7361_0	udata
                                           r0x104C	res	1
                                           r0x104B	res	1
                                           r0x104A	res	1
                                           r0x1049	res	1
                                           r0x104D	res	1
                                           r0x104E	res	1
                                           r0x1052	res	1
                                           r0x1051	res	1
                                           r0x1050	res	1
                                           r0x104F	res	1
                                           r0x1032	res	1
                                           r0x1031	res	1
                                           r0x1033	res	1
                                           r0x1034	res	1
                                           r0x1035	res	1
                                           r0x1036	res	1
                                           r0x1037	res	1
                                           r0x1038	res	1
                                           r0x1039	res	1
                                           r0x1041	res	1
                                           r0x1042	res	1
                                           r0x1043	res	1
                                           r0x1045	res	1
                                           r0x1044	res	1
                                           r0x1046	res	1
                                           r0x1047	res	1
                                           r0x1048	res	1
                                           r0x103A	res	1
                                           r0x103B	res	1
                                           r0x103C	res	1
                                           r0x103D	res	1
                                           r0x103F	res	1
                                           r0x103E	res	1
                                           r0x1053	res	1
                                           r0x1054	res	1
                                           _g_byte_count	res	1
                                           _g_bit_count	res	1
                                           _g_timer_count	res	1
                                           _g_data	res	3
                                           _g_last_pin_state	res	1
                                           _ad_key_event_10ms_isr_count_65536_105	res	1
                                           _ad_key_event_10ms_isr_last_key_id_65536_105	res	1
                                           _main_low_power_cnt_196608_169	res	1
                                           _int_isr_timer1_cnt_131072_186	res	2
                                           _int_isr_timer3_cnt_131072_188	res	1
                                           _int_isr___set_time_cnt_196608_190	res	1
                                           ;--------------------------------------------------------
                                           ; initialized data
                                           ;--------------------------------------------------------
                                           
                                           ID_MC32F7361_0	idata
                                           _g_state
                                           	db	0x00
                                           
                                           
                                           ID_MC32F7361_1	code
                                           _id_table
                                           	dw 0x24
                                           	dw 0x4e
                                           	dw 0x71
                                           	dw 0x8d
                                           	dw 0xc0
                                           	dw 0xf3
                                           
                                           
                                           ID_MC32F7361_2	code
                                           _key_event_table
                                           	dw 0x00
                                           	dw 0x01
                                           	dw 0x02
                                           	dw 0x03
                                           	dw 0x04
                                           	dw 0x05
                                           	dw 0x06
                                           	dw 0x07
                                           	dw 0x08
                                           	dw 0x09
                                           	dw 0x0a
                                           	dw 0x0b
                                           	dw 0x0c
                                           	dw 0x0d
                                           	dw 0x0e
                                           	dw 0x0f
                                           	dw 0x10
                                           	dw 0x11
                                           
                                           
                                           ID_MC32F7361_3	code
                                           _NUM_TABLE
                                           	dw 0xeb
                                           	dw 0x88
                                           	dw 0xb3
                                           	dw 0xba
                                           	dw 0xd8
                                           	dw 0x7a
                                           	dw 0x7b
                                           	dw 0xa8
                                           	dw 0xfb
                                           	dw 0xfa
                                           
                                           
                                           ;@Allocation info for local variables in function 'send_data_msb'
                                           ;@send_data_msb Sys_Init                  Allocated to registers ;size:2
                                           ;@send_data_msb CLR_RAM                   Allocated to registers ;size:2
                                           ;@send_data_msb IO_Init                   Allocated to registers ;size:2
                                           ;@send_data_msb delay_ms                  Allocated to registers ;size:2
                                           ;@send_data_msb delay_us                  Allocated to registers ;size:2
                                           ;@send_data_msb adc_config                Allocated to registers ;size:2
                                           ;@send_data_msb timer1_config             Allocated to registers ;size:2
                                           ;@send_data_msb timer3_config             Allocated to registers ;size:2
                                           ;@send_data_msb pwm_led_config            Allocated to registers ;size:2
                                           ;@send_data_msb start_send                Allocated to registers ;size:2
                                           ;@send_data_msb timer_100us_isr           Allocated to registers ;size:2
                                           ;@send_data_msb adc_channel_sel           Allocated to registers ;size:2
                                           ;@send_data_msb adc_single_convert        Allocated to registers ;size:2
                                           ;@send_data_msb adc_get_val               Allocated to registers ;size:2
                                           ;@send_data_msb get_key_id                Allocated to registers ;size:2
                                           ;@send_data_msb ad_key_event_10ms_isr     Allocated to registers ;size:2
                                           ;@send_data_msb key_ad_key_event_deal     Allocated to registers ;size:2
                                           ;@send_data_msb bsp_i2c_start             Allocated to registers ;size:2
                                           ;@send_data_msb bsp_i2c_tx_byte           Allocated to registers ;size:2
                                           ;@send_data_msb bsp_i2c_rx_ack            Allocated to registers ;size:2
                                           ;@send_data_msb bsp_i2c_stop              Allocated to registers ;size:2
                                           ;@send_data_msb TM1650_WriteByte          Allocated to registers ;size:2
                                           ;@send_data_msb TM1650_Clear              Allocated to registers ;size:2
                                           ;@send_data_msb TM1650_Init               Allocated to registers ;size:2
                                           ;@send_data_msb TM1650_DisplayBit         Allocated to registers ;size:2
                                           ;@send_data_msb TM1650_DisplayNum         Allocated to registers ;size:2
                                           ;@send_data_msb send_data_msb             Allocated to registers ;size:2
                                           ;@send_data_msb INDF0bits                 Allocated to registers ;size:1
                                           ;@send_data_msb INDF1bits                 Allocated to registers ;size:1
                                           ;@send_data_msb INDF2bits                 Allocated to registers ;size:1
                                           ;@send_data_msb HIBYTEbits                Allocated to registers ;size:1
                                           ;@send_data_msb FSR0bits                  Allocated to registers ;size:1
                                           ;@send_data_msb FSR1bits                  Allocated to registers ;size:1
                                           ;@send_data_msb PCLbits                   Allocated to registers ;size:1
                                           ;@send_data_msb PFLAGbits                 Allocated to registers ;size:1
                                           ;@send_data_msb MCRbits                   Allocated to registers ;size:1
                                           ;@send_data_msb INDF3bits                 Allocated to registers ;size:1
                                           ;@send_data_msb INTEbits                  Allocated to registers ;size:1
                                           ;@send_data_msb INTFbits                  Allocated to registers ;size:1
                                           ;@send_data_msb DRVCRbits                 Allocated to registers ;size:1
                                           ;@send_data_msb P0KBCRbits                Allocated to registers ;size:1
                                           ;@send_data_msb P1KBCRbits                Allocated to registers ;size:1
                                           ;@send_data_msb P2KBCRbits                Allocated to registers ;size:1
                                           ;@send_data_msb IOP0bits                  Allocated to registers ;size:1
                                           ;@send_data_msb OEP0bits                  Allocated to registers ;size:1
                                           ;@send_data_msb PUP0bits                  Allocated to registers ;size:1
                                           ;@send_data_msb PDP0bits                  Allocated to registers ;size:1
                                           ;@send_data_msb IOP1bits                  Allocated to registers ;size:1
                                           ;@send_data_msb OEP1bits                  Allocated to registers ;size:1
                                           ;@send_data_msb PUP1bits                  Allocated to registers ;size:1
                                           ;@send_data_msb PDP1bits                  Allocated to registers ;size:1
                                           ;@send_data_msb T0CRbits                  Allocated to registers ;size:1
                                           ;@send_data_msb T0CNTbits                 Allocated to registers ;size:1
                                           ;@send_data_msb T0LOADbits                Allocated to registers ;size:1
                                           ;@send_data_msb T0DATAbits                Allocated to registers ;size:1
                                           ;@send_data_msb T1CRbits                  Allocated to registers ;size:1
                                           ;@send_data_msb T1CNTbits                 Allocated to registers ;size:1
                                           ;@send_data_msb T1LOADbits                Allocated to registers ;size:1
                                           ;@send_data_msb T1DATAbits                Allocated to registers ;size:1
                                           ;@send_data_msb T2CRbits                  Allocated to registers ;size:1
                                           ;@send_data_msb T2CNTbits                 Allocated to registers ;size:1
                                           ;@send_data_msb T2LOADbits                Allocated to registers ;size:1
                                           ;@send_data_msb T2DATAbits                Allocated to registers ;size:1
                                           ;@send_data_msb T3CRbits                  Allocated to registers ;size:1
                                           ;@send_data_msb T3CNTbits                 Allocated to registers ;size:1
                                           ;@send_data_msb T3LOADbits                Allocated to registers ;size:1
                                           ;@send_data_msb PWM0DRbits                Allocated to registers ;size:1
                                           ;@send_data_msb PWM1DRbits                Allocated to registers ;size:1
                                           ;@send_data_msb PWM2DRbits                Allocated to registers ;size:1
                                           ;@send_data_msb PWMCR0bits                Allocated to registers ;size:1
                                           ;@send_data_msb PWMCR1bits                Allocated to registers ;size:1
                                           ;@send_data_msb OSCMRbits                 Allocated to registers ;size:1
                                           ;@send_data_msb LVDCRbits                 Allocated to registers ;size:1
                                           ;@send_data_msb ADCR0bits                 Allocated to registers ;size:1
                                           ;@send_data_msb ADCR1bits                 Allocated to registers ;size:1
                                           ;@send_data_msb ADCR2bits                 Allocated to registers ;size:1
                                           ;@send_data_msb OSADJCRbits               Allocated to registers ;size:1
                                           ;@send_data_msb ADRHbits                  Allocated to registers ;size:1
                                           ;@send_data_msb ADRLbits                  Allocated to registers ;size:1
                                           ;@send_data_msb P0ADCRbits                Allocated to registers ;size:1
                                           ;@send_data_msb P1ADCRbits                Allocated to registers ;size:1
                                           ;@send_data_msb IOP2bits                  Allocated to registers ;size:1
                                           ;@send_data_msb OEP2bits                  Allocated to registers ;size:1
                                           ;@send_data_msb PUP2bits                  Allocated to registers ;size:1
                                           ;@send_data_msb PDP2bits                  Allocated to registers ;size:1
                                           ;@send_data_msb PMODbits                  Allocated to registers ;size:1
                                           ;@send_data_msb PWMCR3bits                Allocated to registers ;size:1
                                           ;@send_data_msb PWMCR2bits                Allocated to registers ;size:1
                                           ;@send_data_msb PFRCCRbits                Allocated to registers ;size:1
                                           ;@send_data_msb PFRCCALbits               Allocated to registers ;size:1
                                           ;@send_data_msb EECRbits                  Allocated to registers ;size:1
                                           ;@send_data_msb EEPRbits                  Allocated to registers ;size:1
                                           ;@send_data_msb EEARbits                  Allocated to registers ;size:1
                                           ;@send_data_msb EEDRHbits                 Allocated to registers ;size:1
                                           ;@send_data_msb EEDRLbits                 Allocated to registers ;size:1
                                           ;@send_data_msb DBGCRbits                 Allocated to registers ;size:1
                                           ;@send_data_msb DBGPRbits                 Allocated to registers ;size:1
                                           ;@send_data_msb HIRCCALbits               Allocated to registers ;size:1
                                           ;@send_data_msb abuf                      Allocated to registers ;size:1
                                           ;@send_data_msb statusbuf                 Allocated to registers ;size:1
                                           ;@send_data_msb i                         Allocated to registers ;size:2
                                           ;@send_data_msb tmp                       Allocated to registers ;size:2
                                           ;@send_data_msb cur_w_pwm_duty            Allocated to registers ;size:1
                                           ;@send_data_msb cur_y_pwm_duty            Allocated to registers ;size:1
                                           ;@send_data_msb cur_light_status          Allocated to registers ;size:1
                                           ;@send_data_msb send_buf                  Allocated to registers ;size:3
                                           ;@send_data_msb g_data                    Allocated to registers ;size:3
                                           ;@send_data_msb g_byte_count              Allocated to registers ;size:1
                                           ;@send_data_msb g_bit_count               Allocated to registers ;size:1
                                           ;@send_data_msb g_timer_count             Allocated to registers ;size:1
                                           ;@send_data_msb g_state                   Allocated to registers ;size:1
                                           ;@send_data_msb g_last_pin_state          Allocated to registers ;size:1
                                           ;@send_data_msb pin_state                 Allocated to registers ;size:1
                                           ;@send_data_msb adc_val_tmp               Allocated to registers ;size:2
                                           ;@send_data_msb adc_val_sum               Allocated to registers ;size:4
                                           ;@send_data_msb get_adcmax                Allocated to registers ;size:2
                                           ;@send_data_msb get_adcmin                Allocated to registers ;size:2
                                           ;@send_data_msb adc_val                   Allocated to registers ;size:2
                                           ;@send_data_msb ad_key_event              Allocated to registers ;size:1
                                           ;@send_data_msb cur_key_id                Allocated to registers ;size:1
                                           ;@send_data_msb set_time_hold_cnt         Allocated to registers ;size:1
                                           ;@send_data_msb cur_status                Allocated to registers ;size:1
                                           ;@send_data_msb set_time_delay_cnt        Allocated to registers ;size:2
                                           ;@send_data_msb set_time_done_cnt         Allocated to registers ;size:2
                                           ;@send_data_msb thousand                  Allocated to registers ;size:1
                                           ;@send_data_msb hundred                   Allocated to registers ;size:1
                                           ;@send_data_msb decade                    Allocated to registers ;size:1
                                           ;@send_data_msb unit                      Allocated to registers ;size:1
                                           ;@send_data_msb flag1                     Allocated to registers ;size:1
                                           ;@send_data_msb send_data                 Allocated to registers r0x104C r0x104B r0x104A r0x1049 ;size:4
                                           ;@send_data_msb i                         Allocated to registers r0x104D ;size:1
                                           ;@send_data_msb INDF0                     Allocated to registers ;size:1
                                           ;@send_data_msb INDF1                     Allocated to registers ;size:1
                                           ;@send_data_msb INDF2                     Allocated to registers ;size:1
                                           ;@send_data_msb HIBYTE                    Allocated to registers ;size:1
                                           ;@send_data_msb FSR0                      Allocated to registers ;size:1
                                           ;@send_data_msb FSR1                      Allocated to registers ;size:1
                                           ;@send_data_msb PCL                       Allocated to registers ;size:1
                                           ;@send_data_msb PFLAG                     Allocated to registers ;size:1
                                           ;@send_data_msb MCR                       Allocated to registers ;size:1
                                           ;@send_data_msb INDF3                     Allocated to registers ;size:1
                                           ;@send_data_msb INTE                      Allocated to registers ;size:1
                                           ;@send_data_msb INTF                      Allocated to registers ;size:1
                                           ;@send_data_msb DRVCR                     Allocated to registers ;size:1
                                           ;@send_data_msb P0KBCR                    Allocated to registers ;size:1
                                           ;@send_data_msb P1KBCR                    Allocated to registers ;size:1
                                           ;@send_data_msb P2KBCR                    Allocated to registers ;size:1
                                           ;@send_data_msb IOP0                      Allocated to registers ;size:1
                                           ;@send_data_msb OEP0                      Allocated to registers ;size:1
                                           ;@send_data_msb PUP0                      Allocated to registers ;size:1
                                           ;@send_data_msb PDP0                      Allocated to registers ;size:1
                                           ;@send_data_msb IOP1                      Allocated to registers ;size:1
                                           ;@send_data_msb OEP1                      Allocated to registers ;size:1
                                           ;@send_data_msb PUP1                      Allocated to registers ;size:1
                                           ;@send_data_msb PDP1                      Allocated to registers ;size:1
                                           ;@send_data_msb T0CR                      Allocated to registers ;size:1
                                           ;@send_data_msb T0CNT                     Allocated to registers ;size:1
                                           ;@send_data_msb T0LOAD                    Allocated to registers ;size:1
                                           ;@send_data_msb T0DATA                    Allocated to registers ;size:1
                                           ;@send_data_msb T1CR                      Allocated to registers ;size:1
                                           ;@send_data_msb T1CNT                     Allocated to registers ;size:1
                                           ;@send_data_msb T1LOAD                    Allocated to registers ;size:1
                                           ;@send_data_msb T1DATA                    Allocated to registers ;size:1
                                           ;@send_data_msb T2CR                      Allocated to registers ;size:1
                                           ;@send_data_msb T2CNT                     Allocated to registers ;size:1
                                           ;@send_data_msb T2LOAD                    Allocated to registers ;size:1
                                           ;@send_data_msb T2DATA                    Allocated to registers ;size:1
                                           ;@send_data_msb T3CR                      Allocated to registers ;size:1
                                           ;@send_data_msb T3CNT                     Allocated to registers ;size:1
                                           ;@send_data_msb T3LOAD                    Allocated to registers ;size:1
                                           ;@send_data_msb PWM0DR                    Allocated to registers ;size:1
                                           ;@send_data_msb PWM1DR                    Allocated to registers ;size:1
                                           ;@send_data_msb PWM2DR                    Allocated to registers ;size:1
                                           ;@send_data_msb PWMCR0                    Allocated to registers ;size:1
                                           ;@send_data_msb PWMCR1                    Allocated to registers ;size:1
                                           ;@send_data_msb OSCMR                     Allocated to registers ;size:1
                                           ;@send_data_msb LVDCR                     Allocated to registers ;size:1
                                           ;@send_data_msb ADCR0                     Allocated to registers ;size:1
                                           ;@send_data_msb ADCR1                     Allocated to registers ;size:1
                                           ;@send_data_msb ADCR2                     Allocated to registers ;size:1
                                           ;@send_data_msb OSADJCR                   Allocated to registers ;size:1
                                           ;@send_data_msb ADRH                      Allocated to registers ;size:1
                                           ;@send_data_msb ADRL                      Allocated to registers ;size:1
                                           ;@send_data_msb P0ADCR                    Allocated to registers ;size:1
                                           ;@send_data_msb P1ADCR                    Allocated to registers ;size:1
                                           ;@send_data_msb IOP2                      Allocated to registers ;size:1
                                           ;@send_data_msb OEP2                      Allocated to registers ;size:1
                                           ;@send_data_msb PUP2                      Allocated to registers ;size:1
                                           ;@send_data_msb PDP2                      Allocated to registers ;size:1
                                           ;@send_data_msb PMOD                      Allocated to registers ;size:1
                                           ;@send_data_msb PWMCR3                    Allocated to registers ;size:1
                                           ;@send_data_msb PWMCR2                    Allocated to registers ;size:1
                                           ;@send_data_msb PFRCCR                    Allocated to registers ;size:1
                                           ;@send_data_msb PFRCCAL                   Allocated to registers ;size:1
                                           ;@send_data_msb EECR                      Allocated to registers ;size:1
                                           ;@send_data_msb EEPR                      Allocated to registers ;size:1
                                           ;@send_data_msb EEAR                      Allocated to registers ;size:1
                                           ;@send_data_msb EEDRH                     Allocated to registers ;size:1
                                           ;@send_data_msb EEDRL                     Allocated to registers ;size:1
                                           ;@send_data_msb DBGCR                     Allocated to registers ;size:1
                                           ;@send_data_msb DBGPR                     Allocated to registers ;size:1
                                           ;@send_data_msb HIRCCAL                   Allocated to registers ;size:1
                                           ;@end Allocation info for local variables in function 'send_data_msb';
                                           ;@Allocation info for local variables in function 'delay_ms'
                                           ;@delay_ms xms                       Allocated to registers ;size:2
                                           ;@delay_ms i                         Allocated to registers r0x1033 r0x1034 ;size:2
                                           ;@end Allocation info for local variables in function 'delay_ms';
                                           ;@Allocation info for local variables in function 'delay_us'
                                           ;@delay_us xus                       Allocated to registers ;size:1
                                           ;@end Allocation info for local variables in function 'delay_us';
                                           ;@Allocation info for local variables in function 'CLR_RAM'
                                           ;@end Allocation info for local variables in function 'CLR_RAM';
                                           ;@Allocation info for local variables in function 'IO_Init'
                                           ;@end Allocation info for local variables in function 'IO_Init';
                                           ;@Allocation info for local variables in function 'adc_config'
                                           ;@end Allocation info for local variables in function 'adc_config';
                                           ;@Allocation info for local variables in function 'timer1_config'
                                           ;@end Allocation info for local variables in function 'timer1_config';
                                           ;@Allocation info for local variables in function 'timer3_config'
                                           ;@end Allocation info for local variables in function 'timer3_config';
                                           ;@Allocation info for local variables in function 'pwm_led_config'
                                           ;@end Allocation info for local variables in function 'pwm_led_config';
                                           ;@Allocation info for local variables in function 'start_send'
                                           ;@start_send data                      Allocated to registers r0x1033 r0x1032 r0x1031 ;size:3
                                           ;@end Allocation info for local variables in function 'start_send';
                                           ;@Allocation info for local variables in function 'timer_100us_isr'
                                           ;@end Allocation info for local variables in function 'timer_100us_isr';
                                           ;@Allocation info for local variables in function 'Sys_Init'
                                           ;@end Allocation info for local variables in function 'Sys_Init';
                                           ;@Allocation info for local variables in function 'adc_channel_sel'
                                           ;@adc_channel_sel adc_channel               Allocated to registers r0x1037 ;size:1
                                           ;@end Allocation info for local variables in function 'adc_channel_sel';
                                           ;@Allocation info for local variables in function 'adc_single_convert'
                                           ;@end Allocation info for local variables in function 'adc_single_convert';
                                           ;@Allocation info for local variables in function 'adc_get_val'
                                           ;@end Allocation info for local variables in function 'adc_get_val';
                                           ;@Allocation info for local variables in function 'get_key_id'
                                           ;@end Allocation info for local variables in function 'get_key_id';
                                           ;@Allocation info for local variables in function 'ad_key_event_10ms_isr'
                                           ;@ad_key_event_10ms_isr last_key_id               Allocated to registers ;size:1
                                           ;@ad_key_event_10ms_isr count                     Allocated to registers ;size:1
                                           ;@end Allocation info for local variables in function 'ad_key_event_10ms_isr';
                                           ;@Allocation info for local variables in function 'ad_key_event_10ms_isr'
                                           ;@ad_key_event_10ms_isr last_key_id               Allocated to registers ;size:1
                                           ;@ad_key_event_10ms_isr count                     Allocated to registers ;size:1
                                           ;@end Allocation info for local variables in function 'ad_key_event_10ms_isr';
                                           ;@Allocation info for local variables in function 'key_ad_key_event_deal'
                                           ;@end Allocation info for local variables in function 'key_ad_key_event_deal';
                                           ;@Allocation info for local variables in function 'bsp_i2c_start'
                                           ;@end Allocation info for local variables in function 'bsp_i2c_start';
                                           ;@Allocation info for local variables in function 'bsp_i2c_tx_byte'
                                           ;@bsp_i2c_tx_byte dat                       Allocated to registers r0x1032 ;size:1
                                           ;@bsp_i2c_tx_byte i                         Allocated to registers r0x1033 ;size:1
                                           ;@end Allocation info for local variables in function 'bsp_i2c_tx_byte';
                                           ;@Allocation info for local variables in function 'bsp_i2c_rx_ack'
                                           ;@bsp_i2c_rx_ack ret                       Allocated to registers r0x1032 ;size:1
                                           ;@end Allocation info for local variables in function 'bsp_i2c_rx_ack';
                                           ;@Allocation info for local variables in function 'bsp_i2c_stop'
                                           ;@end Allocation info for local variables in function 'bsp_i2c_stop';
                                           ;@Allocation info for local variables in function 'TM1650_WriteByte'
                                           ;@TM1650_WriteByte data                      Allocated to registers r0x1036 ;size:1
                                           ;@TM1650_WriteByte addr                      Allocated to registers r0x1035 ;size:1
                                           ;@end Allocation info for local variables in function 'TM1650_WriteByte';
                                           ;@Allocation info for local variables in function 'TM1650_Init'
                                           ;@end Allocation info for local variables in function 'TM1650_Init';
                                           ;@Allocation info for local variables in function 'TM1650_DisplayNum'
                                           ;@end Allocation info for local variables in function 'TM1650_DisplayNum';
                                           ;@Allocation info for local variables in function 'main'
                                           ;@main low_power_cnt             Allocated to registers ;size:1
                                           ;@end Allocation info for local variables in function 'main';
                                           ;@Allocation info for local variables in function 'main'
                                           ;@main low_power_cnt             Allocated to registers ;size:1
                                           ;@end Allocation info for local variables in function 'main';
                                           ;@Allocation info for local variables in function 'int_isr'
                                           ;@int_isr timer1_cnt                Allocated to registers ;size:2
                                           ;@int_isr timer3_cnt                Allocated to registers ;size:1
                                           ;@int_isr __set_time_cnt            Allocated to registers ;size:1
                                           ;@end Allocation info for local variables in function 'int_isr';
                                           ;@Allocation info for local variables in function 'int_isr'
                                           ;@int_isr timer1_cnt                Allocated to registers ;size:2
                                           ;@int_isr timer3_cnt                Allocated to registers ;size:1
                                           ;@int_isr __set_time_cnt            Allocated to registers ;size:1
                                           ;@end Allocation info for local variables in function 'int_isr';
                                           
                                           ;--------------------------------------------------------
                                           ; overlayable items in internal ram 
                                           ;--------------------------------------------------------
                                           ;	udata_ovr
                                           ;--------------------------------------------------------
                                           ; reset vector 
                                           ;--------------------------------------------------------
                                           STARTUP	code 0x0000
                                           	goto	_main
                                           ;--------------------------------------------------------
                                           ; interrupt and initialization code
                                           ;--------------------------------------------------------
                                           c_interrupt	code	0x8
                                           __sdcc_interrupt
                                           ;***
                                           ;  pBlock Stats: dbName = I
                                           ;***
                                           ;entry:  _int_isr	;Function start
                                           ; 0 exit points
                                           ;functions called:
                                           ;   _timer_100us_isr
                                           ;   _timer_100us_isr
                                           ;2 compiler assigned registers:
                                           ;   r0x1053
                                           ;   r0x1054
                                           ;; Starting pCode block
                                           _int_isr	;Function start
                                           ; 0 exit points
                                           ;	.line	1106; "MC32F7361.c"	__endasm;
                                           	;
                                           	movra	_abuf;
                                           	swapar	_PFLAG;
                                           	movra	_statusbuf;
                                           	
                                           ;	.line	1109; "MC32F7361.c"	if (T1IF & T1IE)
                                           	CLRR	r0x1053
                                           	JBCLR	_INTFbits,1
                                           	INCR	r0x1053
                                           	CLRR	r0x1054
                                           	JBCLR	_INTEbits,1
                                           	INCR	r0x1054
                                           	MOVAR	r0x1054
                                           	ANDRA	r0x1053
                                           	MOVAI	0x00
                                           	ORAR	r0x1053
                                           	JBCLR	PFLAG,2
                                           	GOTO	_00962_DS_
                                           ;	.line	1112; "MC32F7361.c"	timer1_cnt++;
                                           	INCR	_int_isr_timer1_cnt_131072_186
                                           	JBCLR	PFLAG,2
                                           	INCR	(_int_isr_timer1_cnt_131072_186 + 1)
                                           ;;unsigned compare: left < lit(0x400=1024), size=2
                                           ;	.line	1113; "MC32F7361.c"	if (timer1_cnt >= 1024)
                                           	MOVAI	0x04
                                           	RSUBAR	(_int_isr_timer1_cnt_131072_186 + 1)
                                           	JBSET	PFLAG,2
                                           	GOTO	_00999_DS_
                                           	MOVAI	0x00
                                           	RSUBAR	_int_isr_timer1_cnt_131072_186
                                           _00999_DS_
                                           	JBSET	PFLAG,0
                                           	GOTO	_00960_DS_
                                           ;;genSkipc:3291: created from rifx:013B5EFC
                                           ;	.line	1116; "MC32F7361.c"	timer1_cnt = 0;
                                           	CLRR	_int_isr_timer1_cnt_131072_186
                                           	CLRR	(_int_isr_timer1_cnt_131072_186 + 1)
                                           _00960_DS_
                                           ;	.line	1130; "MC32F7361.c"	T1IF = 0;
                                           	BCLR	_INTFbits,1
                                           _00962_DS_
                                           ;	.line	1133; "MC32F7361.c"	if (T3IF & T3IE)
                                           	CLRR	r0x1053
                                           	JBCLR	_INTFbits,7
                                           	INCR	r0x1053
                                           	CLRR	r0x1054
                                           	JBCLR	_INTEbits,7
                                           	INCR	r0x1054
                                           	MOVAR	r0x1054
                                           	ANDRA	r0x1053
                                           	MOVAI	0x00
                                           	ORAR	r0x1053
                                           	JBCLR	PFLAG,2
                                           	GOTO	_00972_DS_
                                           ;	.line	1138; "MC32F7361.c"	timer3_cnt++;
                                           	INCR	_int_isr_timer3_cnt_131072_188
                                           ;;unsigned compare: left < lit(0x64=100), size=1
                                           ;	.line	1140; "MC32F7361.c"	if (timer3_cnt >= 100) // 100us * 100 == 10ms
                                           	MOVAI	0x64
                                           	RSUBAR	_int_isr_timer3_cnt_131072_188
                                           	JBSET	PFLAG,0
                                           	GOTO	_00964_DS_
                                           ;;genSkipc:3291: created from rifx:013B5EFC
                                           ;	.line	1142; "MC32F7361.c"	flag_10ms = 1; // ad
                                           	BSET	_flag1,0
                                           ;	.line	1143; "MC32F7361.c"	timer3_cnt = 0;
                                           	CLRR	_int_isr_timer3_cnt_131072_188
                                           _00964_DS_
                                           ;	.line	1148; "MC32F7361.c"	__set_time_cnt++;
                                           	INCR	_int_isr___set_time_cnt_196608_190
                                           ;;unsigned compare: left < lit(0xA=10), size=1
                                           ;	.line	1150; "MC32F7361.c"	if (__set_time_cnt >= 10) // 1ms
                                           	MOVAI	0x0a
                                           	RSUBAR	_int_isr___set_time_cnt_196608_190
                                           	JBSET	PFLAG,0
                                           	GOTO	_00970_DS_
                                           ;;genSkipc:3291: created from rifx:013B5EFC
                                           ;	.line	1152; "MC32F7361.c"	__set_time_cnt = 0;
                                           	CLRR	_int_isr___set_time_cnt_196608_190
                                           ;	.line	1153; "MC32F7361.c"	if (STATUS_SET_TIME_HOUR == cur_status ||
                                           	MOVAR	_cur_status
                                           	XORAI	0x01
                                           	JBSET	PFLAG,2
                                           	GOTO	_01002_DS_
                                           	GOTO	_00965_DS_
                                           _01002_DS_
                                           ;	.line	1154; "MC32F7361.c"	STATUS_SET_TIME_MIN == cur_status)
                                           	MOVAR	_cur_status
                                           	XORAI	0x02
                                           	JBSET	PFLAG,2
                                           	GOTO	_00966_DS_
                                           _00965_DS_
                                           ;	.line	1156; "MC32F7361.c"	set_time_delay_cnt++;
                                           	INCR	_set_time_delay_cnt
                                           	JBCLR	PFLAG,2
                                           	INCR	(_set_time_delay_cnt + 1)
                                           ;	.line	1157; "MC32F7361.c"	set_time_done_cnt++;
                                           	INCR	_set_time_done_cnt
                                           	JBCLR	PFLAG,2
                                           	INCR	(_set_time_done_cnt + 1)
                                           	GOTO	_00970_DS_
                                           _00966_DS_
                                           ;	.line	1161; "MC32F7361.c"	set_time_delay_cnt = 0;
                                           	CLRR	_set_time_delay_cnt
                                           	CLRR	(_set_time_delay_cnt + 1)
                                           ;	.line	1162; "MC32F7361.c"	set_time_done_cnt = 0;
                                           	CLRR	_set_time_done_cnt
                                           	CLRR	(_set_time_done_cnt + 1)
                                           _00970_DS_
                                           ;	.line	1167; "MC32F7361.c"	timer_100us_isr();
                                           	CALL	_timer_100us_isr
                                           ;	.line	1169; "MC32F7361.c"	T3IF = 0;
                                           	BCLR	_INTFbits,7
                                           _00972_DS_
                                           ;	.line	1177; "MC32F7361.c"	__endasm;
                                           	;
                                           	swapar	_statusbuf;
                                           	movra	_PFLAG;
                                           	swapr	_abuf;
                                           	swapar	_abuf;
                                           	
                                           END_OF_INTERRUPT
                                           ;	.line	1178; "MC32F7361.c"	}
                                           	RETIE	
                                           
                                           ;--------------------------------------------------------
                                           ; code
                                           ;--------------------------------------------------------
                                           code_MC32F7361	code
                                           ;***
                                           ;  pBlock Stats: dbName = M
                                           ;***
                                           ;entry:  _main	;Function start
                                           ; 2 exit points
                                           ;has an exit
                                           ;functions called:
                                           ;   _Sys_Init
                                           ;   _adc_channel_sel
                                           ;   _key_ad_key_event_deal
                                           ;   _adc_channel_sel
                                           ;   _adc_get_val
                                           ;   _TM1650_DisplayNum
                                           ;   _TM1650_WriteByte
                                           ;   _TM1650_WriteByte
                                           ;   _TM1650_DisplayNum
                                           ;   _TM1650_WriteByte
                                           ;   _TM1650_WriteByte
                                           ;   _TM1650_DisplayNum
                                           ;   _start_send
                                           ;   _delay_ms
                                           ;   _Sys_Init
                                           ;   _adc_channel_sel
                                           ;   _key_ad_key_event_deal
                                           ;   _adc_channel_sel
                                           ;   _adc_get_val
                                           ;   _TM1650_DisplayNum
                                           ;   _TM1650_WriteByte
                                           ;   _TM1650_WriteByte
                                           ;   _TM1650_DisplayNum
                                           ;   _TM1650_WriteByte
                                           ;   _TM1650_WriteByte
                                           ;   _TM1650_DisplayNum
                                           ;   _start_send
                                           ;   _delay_ms
                                           ;5 compiler assigned registers:
                                           ;   STK00
                                           ;   r0x103E
                                           ;   r0x103F
                                           ;   r0x1040
                                           ;   STK01
                                           ;; Starting pCode block
                                           _main	;Function start
                                           ; 2 exit points
                                           ;	.line	1005; "MC32F7361.c"	Sys_Init();
                                           	CALL	_Sys_Init
                                           _00899_DS_
                                           ;	.line	1009; "MC32F7361.c"	adc_channel_sel(ADC_CHANNEL_KEY);
                                           	MOVAI	0x01
                                           	CALL	_adc_channel_sel
                                           ;	.line	1010; "MC32F7361.c"	key_ad_key_event_deal();
                                           	CALL	_key_ad_key_event_deal
                                           ;	.line	1014; "MC32F7361.c"	adc_channel_sel(ADC_CHANNEL_VDD);
                                           	MOVAI	0x00
                                           	CALL	_adc_channel_sel
                                           ;	.line	1015; "MC32F7361.c"	adc_val = adc_get_val();
                                           	CALL	_adc_get_val
                                           	MOVRA	(_adc_val + 1)
                                           	MOVAR	STK00
                                           	MOVRA	_adc_val
                                           ;;swapping arguments (AOP_TYPEs 1/3)
                                           ;;unsigned compare: left >= lit(0x801=2049), size=2
                                           ;	.line	1016; "MC32F7361.c"	if (adc_val <= 2048)
                                           	MOVAI	0x08
                                           	RSUBAR	(_adc_val + 1)
                                           	JBSET	PFLAG,2
                                           	GOTO	_00947_DS_
                                           	MOVAI	0x01
                                           	RSUBAR	_adc_val
                                           _00947_DS_
                                           	JBCLR	PFLAG,0
                                           	GOTO	_00874_DS_
                                           ;;genSkipc:3291: created from rifx:013B5EFC
                                           ;	.line	1018; "MC32F7361.c"	low_power_cnt++;
                                           	INCR	_main_low_power_cnt_196608_169
                                           	GOTO	_00875_DS_
                                           _00874_DS_
                                           ;	.line	1022; "MC32F7361.c"	low_power_cnt = 0;
                                           	CLRR	_main_low_power_cnt_196608_169
                                           ;;unsigned compare: left < lit(0xA=10), size=1
                                           _00875_DS_
                                           ;	.line	1025; "MC32F7361.c"	if (low_power_cnt >= 10)
                                           	MOVAI	0x0a
                                           	RSUBAR	_main_low_power_cnt_196608_169
                                           	JBSET	PFLAG,0
                                           	GOTO	_00877_DS_
                                           ;;genSkipc:3291: created from rifx:013B5EFC
                                           ;	.line	1027; "MC32F7361.c"	low_power_cnt = 0;
                                           	CLRR	_main_low_power_cnt_196608_169
                                           _00877_DS_
                                           ;	.line	1034; "MC32F7361.c"	if (STATUS_SET_TIME_HOUR == cur_status)
                                           	MOVAR	_cur_status
                                           	XORAI	0x01
                                           	JBSET	PFLAG,2
                                           	GOTO	_00896_DS_
                                           ;;unsigned compare: left < lit(0x1F4=500), size=2
                                           ;	.line	1036; "MC32F7361.c"	if (set_time_delay_cnt < 500)
                                           	MOVAI	0x01
                                           	RSUBAR	(_set_time_delay_cnt + 1)
                                           	JBSET	PFLAG,2
                                           	GOTO	_00949_DS_
                                           	MOVAI	0xf4
                                           	RSUBAR	_set_time_delay_cnt
                                           _00949_DS_
                                           	JBCLR	PFLAG,0
                                           	GOTO	_00881_DS_
                                           ;;genSkipc:3291: created from rifx:013B5EFC
                                           ;	.line	1038; "MC32F7361.c"	TM1650_DisplayNum();
                                           	CALL	_TM1650_DisplayNum
                                           	GOTO	_00882_DS_
                                           _00881_DS_
                                           ;	.line	1042; "MC32F7361.c"	TM1650_WriteByte(0x6E, 0x00);        // 4
                                           	MOVAI	0x00
                                           	MOVRA	STK00
                                           	MOVAI	0x6e
                                           	CALL	_TM1650_WriteByte
                                           ;	.line	1043; "MC32F7361.c"	TM1650_WriteByte(0x6C, 0x00 | 0x04); // 3
                                           	MOVAI	0x04
                                           	MOVRA	STK00
                                           	MOVAI	0x6c
                                           	CALL	_TM1650_WriteByte
                                           ;;unsigned compare: left < lit(0x3E7=999), size=2
                                           ;	.line	1045; "MC32F7361.c"	if (set_time_delay_cnt >= 1000 - 1)
                                           	MOVAI	0x03
                                           	RSUBAR	(_set_time_delay_cnt + 1)
                                           	JBSET	PFLAG,2
                                           	GOTO	_00950_DS_
                                           	MOVAI	0xe7
                                           	RSUBAR	_set_time_delay_cnt
                                           _00950_DS_
                                           	JBSET	PFLAG,0
                                           	GOTO	_00882_DS_
                                           ;;genSkipc:3291: created from rifx:013B5EFC
                                           ;	.line	1047; "MC32F7361.c"	set_time_delay_cnt = 0;
                                           	CLRR	_set_time_delay_cnt
                                           	CLRR	(_set_time_delay_cnt + 1)
                                           ;;unsigned compare: left < lit(0x1388=5000), size=2
                                           _00882_DS_
                                           ;	.line	1051; "MC32F7361.c"	if (set_time_done_cnt >= 5000)
                                           	MOVAI	0x13
                                           	RSUBAR	(_set_time_done_cnt + 1)
                                           	JBSET	PFLAG,2
                                           	GOTO	_00951_DS_
                                           	MOVAI	0x88
                                           	RSUBAR	_set_time_done_cnt
                                           _00951_DS_
                                           	JBSET	PFLAG,0
                                           	GOTO	_00897_DS_
                                           ;;genSkipc:3291: created from rifx:013B5EFC
                                           ;	.line	1053; "MC32F7361.c"	cur_status = STATUS_SET_TIME_MIN;
                                           	MOVAI	0x02
                                           	MOVRA	_cur_status
                                           ;	.line	1054; "MC32F7361.c"	set_time_done_cnt = 0;
                                           	CLRR	_set_time_done_cnt
                                           	CLRR	(_set_time_done_cnt + 1)
                                           	GOTO	_00897_DS_
                                           _00896_DS_
                                           ;	.line	1057; "MC32F7361.c"	else if (STATUS_SET_TIME_MIN == cur_status)
                                           	MOVAR	_cur_status
                                           	XORAI	0x02
                                           	JBSET	PFLAG,2
                                           	GOTO	_00893_DS_
                                           ;;unsigned compare: left < lit(0x1F4=500), size=2
                                           ;	.line	1059; "MC32F7361.c"	if (set_time_delay_cnt < 500)
                                           	MOVAI	0x01
                                           	RSUBAR	(_set_time_delay_cnt + 1)
                                           	JBSET	PFLAG,2
                                           	GOTO	_00952_DS_
                                           	MOVAI	0xf4
                                           	RSUBAR	_set_time_delay_cnt
                                           _00952_DS_
                                           	JBCLR	PFLAG,0
                                           	GOTO	_00888_DS_
                                           ;;genSkipc:3291: created from rifx:013B5EFC
                                           ;	.line	1061; "MC32F7361.c"	TM1650_DisplayNum();
                                           	CALL	_TM1650_DisplayNum
                                           	GOTO	_00889_DS_
                                           _00888_DS_
                                           ;	.line	1065; "MC32F7361.c"	TM1650_WriteByte(0x6A, 0x00); // 2
                                           	MOVAI	0x00
                                           	MOVRA	STK00
                                           	MOVAI	0x6a
                                           	CALL	_TM1650_WriteByte
                                           ;	.line	1066; "MC32F7361.c"	TM1650_WriteByte(0x68, 0x00); // 1
                                           	MOVAI	0x00
                                           	MOVRA	STK00
                                           	MOVAI	0x68
                                           	CALL	_TM1650_WriteByte
                                           ;;unsigned compare: left < lit(0x3E7=999), size=2
                                           ;	.line	1068; "MC32F7361.c"	if (set_time_delay_cnt >= 1000 - 1)
                                           	MOVAI	0x03
                                           	RSUBAR	(_set_time_delay_cnt + 1)
                                           	JBSET	PFLAG,2
                                           	GOTO	_00953_DS_
                                           	MOVAI	0xe7
                                           	RSUBAR	_set_time_delay_cnt
                                           _00953_DS_
                                           	JBSET	PFLAG,0
                                           	GOTO	_00889_DS_
                                           ;;genSkipc:3291: created from rifx:013B5EFC
                                           ;	.line	1070; "MC32F7361.c"	set_time_delay_cnt = 0;
                                           	CLRR	_set_time_delay_cnt
                                           	CLRR	(_set_time_delay_cnt + 1)
                                           ;;unsigned compare: left < lit(0x1388=5000), size=2
                                           _00889_DS_
                                           ;	.line	1074; "MC32F7361.c"	if (set_time_done_cnt >= 5000)
                                           	MOVAI	0x13
                                           	RSUBAR	(_set_time_done_cnt + 1)
                                           	JBSET	PFLAG,2
                                           	GOTO	_00954_DS_
                                           	MOVAI	0x88
                                           	RSUBAR	_set_time_done_cnt
                                           _00954_DS_
                                           	JBSET	PFLAG,0
                                           	GOTO	_00897_DS_
                                           ;;genSkipc:3291: created from rifx:013B5EFC
                                           ;	.line	1076; "MC32F7361.c"	cur_status = STATUS_NONE;
                                           	CLRR	_cur_status
                                           ;	.line	1077; "MC32F7361.c"	set_time_done_cnt = 0;
                                           	CLRR	_set_time_done_cnt
                                           	CLRR	(_set_time_done_cnt + 1)
                                           	GOTO	_00897_DS_
                                           _00893_DS_
                                           ;	.line	1082; "MC32F7361.c"	TM1650_DisplayNum(); // 
                                           	CALL	_TM1650_DisplayNum
                                           ;;gen.c:6570: size=0, offset=0, AOP_TYPE(res)=8
                                           _00897_DS_
                                           ;	.line	1086; "MC32F7361.c"	send_buf[0] = 0xA5;
                                           	MOVAI	0xa5
                                           	MOVRA	(_send_buf + 0)
                                           ;;gen.c:6570: size=0, offset=0, AOP_TYPE(res)=8
                                           ;	.line	1087; "MC32F7361.c"	send_buf[1] = 0x81;
                                           	MOVAI	0x81
                                           	MOVRA	(_send_buf + 1)
                                           ;;gen.c:6570: size=0, offset=0, AOP_TYPE(res)=8
                                           ;	.line	1088; "MC32F7361.c"	send_buf[2] = 0x7E;
                                           	MOVAI	0x7e
                                           	MOVRA	(_send_buf + 2)
                                           ;	.line	1089; "MC32F7361.c"	start_send(send_buf);
                                           	MOVAI	high (_send_buf + 0)
                                           	MOVRA	r0x103E
                                           	MOVAI	(_send_buf + 0)
                                           	MOVRA	r0x103F
                                           ;;1	CLRR	r0x1040
                                           	MOVAR	r0x103F
                                           	MOVRA	STK01
                                           	MOVAR	r0x103E
                                           	MOVRA	STK00
                                           	MOVAI	0x00
                                           	CALL	_start_send
                                           ;	.line	1090; "MC32F7361.c"	delay_ms(100);
                                           	MOVAI	0x64
                                           	MOVRA	STK00
                                           	MOVAI	0x00
                                           	CALL	_delay_ms
                                           	GOTO	_00899_DS_
                                           ;	.line	1093; "MC32F7361.c"	}
                                           	RETURN	
                                           ; exit point of _main
                                           
                                           ;***
                                           ;  pBlock Stats: dbName = C
                                           ;***
                                           ;entry:  _TM1650_DisplayNum	;Function start
                                           ; 2 exit points
                                           ;has an exit
                                           ;functions called:
                                           ;   __gptrget1
                                           ;   _TM1650_WriteByte
                                           ;   __gptrget1
                                           ;   _TM1650_WriteByte
                                           ;   __gptrget1
                                           ;   _TM1650_WriteByte
                                           ;   __gptrget1
                                           ;   _TM1650_WriteByte
                                           ;   __gptrget1
                                           ;   _TM1650_WriteByte
                                           ;   __gptrget1
                                           ;   _TM1650_WriteByte
                                           ;   __gptrget1
                                           ;   _TM1650_WriteByte
                                           ;   __gptrget1
                                           ;   _TM1650_WriteByte
                                           ;6 compiler assigned registers:
                                           ;   r0x1037
                                           ;   r0x1038
                                           ;   STK01
                                           ;   STK00
                                           ;   r0x1039
                                           ;   r0x103A
                                           ;; Starting pCode block
                                           _TM1650_DisplayNum	;Function start
                                           ; 2 exit points
                                           ;	.line	991; "MC32F7361.c"	TM1650_WriteByte(0x68, NUM_TABLE[unit]);           // 1
                                           	MOVAR	_unit
                                           	ADDAI	(_NUM_TABLE + 0)
                                           	MOVRA	r0x1037
                                           	MOVAI	high (_NUM_TABLE + 0)
                                           	JBCLR	PFLAG,0
                                           	ADDAI	0x01
                                           	MOVRA	r0x1038
                                           	MOVAR	r0x1037
                                           	MOVRA	STK01
                                           	MOVAR	r0x1038
                                           	MOVRA	STK00
                                           	MOVAI	0x80
                                           	CALL	__gptrget1
                                           	MOVRA	r0x1039
                                           	MOVAR	r0x1039
                                           	MOVRA	STK00
                                           	MOVAI	0x68
                                           	CALL	_TM1650_WriteByte
                                           ;	.line	992; "MC32F7361.c"	TM1650_WriteByte(0x6A, NUM_TABLE[decade]);         // 2
                                           	MOVAR	_decade
                                           	ADDAI	(_NUM_TABLE + 0)
                                           	MOVRA	r0x1037
                                           	MOVAI	high (_NUM_TABLE + 0)
                                           	JBCLR	PFLAG,0
                                           	ADDAI	0x01
                                           	MOVRA	r0x1038
                                           	MOVAR	r0x1037
                                           	MOVRA	STK01
                                           	MOVAR	r0x1038
                                           	MOVRA	STK00
                                           	MOVAI	0x80
                                           	CALL	__gptrget1
                                           	MOVRA	r0x1039
                                           	MOVAR	r0x1039
                                           	MOVRA	STK00
                                           	MOVAI	0x6a
                                           	CALL	_TM1650_WriteByte
                                           ;	.line	993; "MC32F7361.c"	TM1650_WriteByte(0x6C, NUM_TABLE[hundred] | 0x04); // 3
                                           	MOVAR	_hundred
                                           	ADDAI	(_NUM_TABLE + 0)
                                           	MOVRA	r0x1037
                                           	MOVAI	high (_NUM_TABLE + 0)
                                           	JBCLR	PFLAG,0
                                           	ADDAI	0x01
                                           	MOVRA	r0x1038
                                           	MOVAR	r0x1037
                                           	MOVRA	STK01
                                           	MOVAR	r0x1038
                                           	MOVRA	STK00
                                           	MOVAI	0x80
                                           	CALL	__gptrget1
                                           	MOVRA	r0x1039
                                           	MOVAI	0x04
                                           	ORAR	r0x1039
                                           	MOVRA	r0x1037
                                           	MOVAR	r0x1037
                                           	MOVRA	STK00
                                           	MOVAI	0x6c
                                           	CALL	_TM1650_WriteByte
                                           ;	.line	994; "MC32F7361.c"	TM1650_WriteByte(0x6E, NUM_TABLE[thousand]);       // 4
                                           	MOVAR	_thousand
                                           	ADDAI	(_NUM_TABLE + 0)
                                           	MOVRA	r0x1037
                                           	MOVAI	high (_NUM_TABLE + 0)
                                           	JBCLR	PFLAG,0
                                           	ADDAI	0x01
                                           	MOVRA	r0x1039
                                           	MOVAR	r0x1037
                                           	MOVRA	STK01
                                           	MOVAR	r0x1039
                                           	MOVRA	STK00
                                           	MOVAI	0x80
                                           	CALL	__gptrget1
                                           	MOVRA	r0x103A
                                           	MOVAR	r0x103A
                                           	MOVRA	STK00
                                           	MOVAI	0x6e
                                           	CALL	_TM1650_WriteByte
                                           ;	.line	995; "MC32F7361.c"	}
                                           	RETURN	
                                           ; exit point of _TM1650_DisplayNum
                                           
                                           ;***
                                           ;  pBlock Stats: dbName = C
                                           ;***
                                           ;entry:  _TM1650_Init	;Function start
                                           ; 2 exit points
                                           ;has an exit
                                           ;functions called:
                                           ;   _delay_ms
                                           ;   _TM1650_WriteByte
                                           ;   _delay_ms
                                           ;   _TM1650_WriteByte
                                           ;1 compiler assigned register :
                                           ;   STK00
                                           ;; Starting pCode block
                                           _TM1650_Init	;Function start
                                           ; 2 exit points
                                           ;	.line	932; "MC32F7361.c"	I2C_SDA_OUT();
                                           	BSET	_OEP0bits,4
                                           ;	.line	933; "MC32F7361.c"	I2C_SCL_OUT();
                                           	BSET	_OEP1bits,1
                                           ;	.line	934; "MC32F7361.c"	I2C_SDA_H();
                                           	BSET	_IOP0bits,4
                                           ;	.line	935; "MC32F7361.c"	delay_ms(5);
                                           	MOVAI	0x05
                                           	MOVRA	STK00
                                           	MOVAI	0x00
                                           	CALL	_delay_ms
                                           ;	.line	941; "MC32F7361.c"	TM1650_WriteByte(0x48, TM1650_DISPLAY_ON | TM1650_BRIGHT_MAX);
                                           	MOVAI	0x71
                                           	MOVRA	STK00
                                           	MOVAI	0x48
                                           	CALL	_TM1650_WriteByte
                                           ;	.line	945; "MC32F7361.c"	}
                                           	RETURN	
                                           ; exit point of _TM1650_Init
                                           
                                           ;***
                                           ;  pBlock Stats: dbName = C
                                           ;***
                                           ;entry:  _TM1650_WriteByte	;Function start
                                           ; 2 exit points
                                           ;has an exit
                                           ;functions called:
                                           ;   _bsp_i2c_start
                                           ;   _bsp_i2c_tx_byte
                                           ;   _bsp_i2c_rx_ack
                                           ;   _bsp_i2c_tx_byte
                                           ;   _bsp_i2c_rx_ack
                                           ;   _bsp_i2c_stop
                                           ;   _bsp_i2c_start
                                           ;   _bsp_i2c_tx_byte
                                           ;   _bsp_i2c_rx_ack
                                           ;   _bsp_i2c_tx_byte
                                           ;   _bsp_i2c_rx_ack
                                           ;   _bsp_i2c_stop
                                           ;3 compiler assigned registers:
                                           ;   r0x1035
                                           ;   STK00
                                           ;   r0x1036
                                           ;; Starting pCode block
                                           _TM1650_WriteByte	;Function start
                                           ; 2 exit points
                                           ;	.line	902; "MC32F7361.c"	void TM1650_WriteByte(uint8_t addr, uint8_t data)
                                           	MOVRA	r0x1035
                                           	MOVAR	STK00
                                           	MOVRA	r0x1036
                                           ;	.line	904; "MC32F7361.c"	bsp_i2c_start();
                                           	CALL	_bsp_i2c_start
                                           ;	.line	905; "MC32F7361.c"	bsp_i2c_tx_byte(addr);
                                           	MOVAR	r0x1035
                                           	CALL	_bsp_i2c_tx_byte
                                           ;	.line	906; "MC32F7361.c"	bsp_i2c_rx_ack();
                                           	CALL	_bsp_i2c_rx_ack
                                           ;	.line	907; "MC32F7361.c"	bsp_i2c_tx_byte(data);
                                           	MOVAR	r0x1036
                                           	CALL	_bsp_i2c_tx_byte
                                           ;	.line	908; "MC32F7361.c"	bsp_i2c_rx_ack();
                                           	CALL	_bsp_i2c_rx_ack
                                           ;	.line	909; "MC32F7361.c"	bsp_i2c_stop();
                                           	CALL	_bsp_i2c_stop
                                           ;	.line	910; "MC32F7361.c"	}
                                           	RETURN	
                                           ; exit point of _TM1650_WriteByte
                                           
                                           ;***
                                           ;  pBlock Stats: dbName = C
                                           ;***
                                           ;entry:  _bsp_i2c_stop	;Function start
                                           ; 2 exit points
                                           ;has an exit
                                           ;functions called:
                                           ;   _delay_us
                                           ;   _delay_us
                                           ;   _delay_us
                                           ;   _delay_us
                                           ;; Starting pCode block
                                           _bsp_i2c_stop	;Function start
                                           ; 2 exit points
                                           ;	.line	893; "MC32F7361.c"	I2C_SDA_OUT();
                                           	BSET	_OEP0bits,4
                                           ;	.line	894; "MC32F7361.c"	I2C_SDA_L();
                                           	BCLR	_IOP0bits,4
                                           ;	.line	895; "MC32F7361.c"	delay_us(5);
                                           	MOVAI	0x05
                                           	CALL	_delay_us
                                           ;	.line	896; "MC32F7361.c"	I2C_SCL_H();
                                           	BSET	_IOP1bits,1
                                           ;	.line	897; "MC32F7361.c"	delay_us(5);
                                           	MOVAI	0x05
                                           	CALL	_delay_us
                                           ;	.line	898; "MC32F7361.c"	I2C_SDA_H();
                                           	BSET	_IOP0bits,4
                                           ;	.line	899; "MC32F7361.c"	}
                                           	RETURN	
                                           ; exit point of _bsp_i2c_stop
                                           
                                           ;***
                                           ;  pBlock Stats: dbName = C
                                           ;***
                                           ;entry:  _bsp_i2c_rx_ack	;Function start
                                           ; 2 exit points
                                           ;has an exit
                                           ;functions called:
                                           ;   _delay_us
                                           ;   _delay_us
                                           ;   _delay_us
                                           ;   _delay_us
                                           ;1 compiler assigned register :
                                           ;   r0x1032
                                           ;; Starting pCode block
                                           _bsp_i2c_rx_ack	;Function start
                                           ; 2 exit points
                                           ;	.line	878; "MC32F7361.c"	u8 ret = 0;
                                           	CLRR	r0x1032
                                           ;	.line	879; "MC32F7361.c"	I2C_SDA_IN();
                                           	BCLR	_OEP0bits,4
                                           ;	.line	880; "MC32F7361.c"	delay_us(5);
                                           	MOVAI	0x05
                                           	CALL	_delay_us
                                           ;	.line	881; "MC32F7361.c"	I2C_SCL_H();
                                           	BSET	_IOP1bits,1
                                           ;	.line	882; "MC32F7361.c"	delay_us(5);
                                           	MOVAI	0x05
                                           	CALL	_delay_us
                                           ;	.line	883; "MC32F7361.c"	if (!I2C_SDA_IS_H())
                                           	JBCLR	_IOP0bits,4
                                           	GOTO	_00852_DS_
                                           ;	.line	886; "MC32F7361.c"	ret = 1;
                                           	MOVAI	0x01
                                           	MOVRA	r0x1032
                                           _00852_DS_
                                           ;	.line	888; "MC32F7361.c"	I2C_SCL_L();
                                           	BCLR	_IOP1bits,1
                                           ;	.line	889; "MC32F7361.c"	return ret;
                                           	MOVAR	r0x1032
                                           ;	.line	890; "MC32F7361.c"	}
                                           	RETURN	
                                           ; exit point of _bsp_i2c_rx_ack
                                           
                                           ;***
                                           ;  pBlock Stats: dbName = C
                                           ;***
                                           ;entry:  _bsp_i2c_tx_byte	;Function start
                                           ; 2 exit points
                                           ;has an exit
                                           ;functions called:
                                           ;   _delay_us
                                           ;   _delay_us
                                           ;   _delay_us
                                           ;   _delay_us
                                           ;3 compiler assigned registers:
                                           ;   r0x1032
                                           ;   r0x1033
                                           ;   r0x1034
                                           ;; Starting pCode block
                                           _bsp_i2c_tx_byte	;Function start
                                           ; 2 exit points
                                           ;	.line	854; "MC32F7361.c"	void bsp_i2c_tx_byte(uint8_t dat)
                                           	MOVRA	r0x1032
                                           ;	.line	857; "MC32F7361.c"	I2C_SDA_OUT();
                                           	BSET	_OEP0bits,4
                                           ;	.line	858; "MC32F7361.c"	for (i = 0; i < 8; i++)
                                           	CLRR	r0x1033
                                           _00846_DS_
                                           ;	.line	860; "MC32F7361.c"	if (dat & 0x80)
                                           	JBSET	r0x1032,7
                                           	GOTO	_00843_DS_
                                           ;	.line	862; "MC32F7361.c"	I2C_SDA_H();
                                           	BSET	_IOP0bits,4
                                           	GOTO	_00844_DS_
                                           _00843_DS_
                                           ;	.line	866; "MC32F7361.c"	I2C_SDA_L();
                                           	BCLR	_IOP0bits,4
                                           _00844_DS_
                                           ;	.line	868; "MC32F7361.c"	delay_us(5);
                                           	MOVAI	0x05
                                           	CALL	_delay_us
                                           ;	.line	869; "MC32F7361.c"	I2C_SCL_H();
                                           	BSET	_IOP1bits,1
                                           ;	.line	870; "MC32F7361.c"	delay_us(5);
                                           	MOVAI	0x05
                                           	CALL	_delay_us
                                           ;	.line	871; "MC32F7361.c"	I2C_SCL_L();
                                           	BCLR	_IOP1bits,1
                                           ;	.line	872; "MC32F7361.c"	dat <<= 1;
                                           	MOVAR	r0x1032
                                           	MOVRA	r0x1034
                                           	BCLR	PFLAG,0
                                           	RLAR	r0x1034
                                           	MOVRA	r0x1032
                                           ;	.line	858; "MC32F7361.c"	for (i = 0; i < 8; i++)
                                           	INCR	r0x1033
                                           ;;unsigned compare: left < lit(0x8=8), size=1
                                           	MOVAI	0x08
                                           	RSUBAR	r0x1033
                                           	JBSET	PFLAG,0
                                           	GOTO	_00846_DS_
                                           ;;genSkipc:3291: created from rifx:013B5EFC
                                           ;	.line	874; "MC32F7361.c"	}
                                           	RETURN	
                                           ; exit point of _bsp_i2c_tx_byte
                                           
                                           ;***
                                           ;  pBlock Stats: dbName = C
                                           ;***
                                           ;entry:  _bsp_i2c_start	;Function start
                                           ; 2 exit points
                                           ;has an exit
                                           ;functions called:
                                           ;   _delay_us
                                           ;   _delay_us
                                           ;   _delay_us
                                           ;   _delay_us
                                           ;; Starting pCode block
                                           _bsp_i2c_start	;Function start
                                           ; 2 exit points
                                           ;	.line	845; "MC32F7361.c"	I2C_SDA_OUT();
                                           	BSET	_OEP0bits,4
                                           ;	.line	846; "MC32F7361.c"	I2C_SCL_OUT();
                                           	BSET	_OEP1bits,1
                                           ;	.line	847; "MC32F7361.c"	I2C_SDA_H();
                                           	BSET	_IOP0bits,4
                                           ;	.line	848; "MC32F7361.c"	I2C_SCL_H();
                                           	BSET	_IOP1bits,1
                                           ;	.line	849; "MC32F7361.c"	delay_us(5);
                                           	MOVAI	0x05
                                           	CALL	_delay_us
                                           ;	.line	850; "MC32F7361.c"	I2C_SDA_L();
                                           	BCLR	_IOP0bits,4
                                           ;	.line	851; "MC32F7361.c"	delay_us(5);
                                           	MOVAI	0x05
                                           	CALL	_delay_us
                                           ;	.line	852; "MC32F7361.c"	I2C_SCL_L();
                                           	BCLR	_IOP1bits,1
                                           ;	.line	853; "MC32F7361.c"	}
                                           	RETURN	
                                           ; exit point of _bsp_i2c_start
                                           
                                           ;***
                                           ;  pBlock Stats: dbName = C
                                           ;***
                                           ;entry:  _key_ad_key_event_deal	;Function start
                                           ; 2 exit points
                                           ;has an exit
                                           ;functions called:
                                           ;   _ad_key_event_10ms_isr
                                           ;   __mulchar
                                           ;   __gptrget1
                                           ;   _TM1650_DisplayNum
                                           ;   _TM1650_DisplayNum
                                           ;   _TM1650_DisplayNum
                                           ;   _TM1650_DisplayNum
                                           ;   _ad_key_event_10ms_isr
                                           ;   __mulchar
                                           ;   __gptrget1
                                           ;   _TM1650_DisplayNum
                                           ;   _TM1650_DisplayNum
                                           ;   _TM1650_DisplayNum
                                           ;   _TM1650_DisplayNum
                                           ;5 compiler assigned registers:
                                           ;   r0x103B
                                           ;   STK00
                                           ;   r0x103C
                                           ;   STK01
                                           ;   r0x103D
                                           ;; Starting pCode block
                                           _key_ad_key_event_deal	;Function start
                                           ; 2 exit points
                                           ;	.line	547; "MC32F7361.c"	if (!flag_10ms)
                                           	JBCLR	_flag1,0
                                           	GOTO	_00600_DS_
                                           ;	.line	548; "MC32F7361.c"	return;
                                           	GOTO	_00677_DS_
                                           _00600_DS_
                                           ;	.line	550; "MC32F7361.c"	flag_10ms = 0;
                                           	BCLR	_flag1,0
                                           ;	.line	552; "MC32F7361.c"	ad_key_event_10ms_isr();
                                           	CALL	_ad_key_event_10ms_isr
                                           ;	.line	555; "MC32F7361.c"	switch (cur_key_id)
                                           	MOVAR	_cur_key_id
                                           	MOVRA	r0x103B
                                           ;;swapping arguments (AOP_TYPEs 1/2)
                                           ;;unsigned compare: left >= lit(0x6=6), size=1
                                           	MOVAI	0x06
                                           	RSUBAR	r0x103B
                                           	JBCLR	PFLAG,0
                                           	GOTO	_00608_DS_
                                           ;;genSkipc:3291: created from rifx:013B5EFC
                                           	MOVAR	r0x103B
                                           	ADDRA	PCL
                                           	GOTO	_00608_DS_
                                           	GOTO	_00608_DS_
                                           	GOTO	_00608_DS_
                                           	GOTO	_00608_DS_
                                           	GOTO	_00608_DS_
                                           	GOTO	_00608_DS_
                                           ;;unsigned compare: left < lit(0x6=6), size=1
                                           _00608_DS_
                                           ;	.line	580; "MC32F7361.c"	if (cur_key_id < AD_KEY_ID_NONE && ad_key_event != KEY_EVENT_NONE)
                                           	MOVAI	0x06
                                           	RSUBAR	_cur_key_id
                                           	JBCLR	PFLAG,0
                                           	GOTO	_00677_DS_
                                           ;;genSkipc:3291: created from rifx:013B5EFC
                                           	MOVAR	_ad_key_event
                                           	XORAI	0x03
                                           	JBSET	PFLAG,2
                                           	GOTO	_00814_DS_
                                           	GOTO	_00677_DS_
                                           _00814_DS_
                                           ;	.line	585; "MC32F7361.c"	switch (key_event_table[cur_key_id][ad_key_event])
                                           	MOVAI	0x03
                                           	MOVRA	STK00
                                           	MOVAR	_cur_key_id
                                           	CALL	__mulchar
                                           	MOVRA	r0x103B
                                           	MOVAR	r0x103B
                                           	ADDAI	(_key_event_table + 0)
                                           	MOVRA	r0x103B
                                           	MOVAI	high (_key_event_table + 0)
                                           	JBCLR	PFLAG,0
                                           	ADDAI	0x01
                                           	MOVRA	r0x103C
                                           	MOVAR	_ad_key_event
                                           	ADDRA	r0x103B
                                           	MOVAR	r0x103C
                                           	JBCLR	PFLAG,0
                                           	ADDAI	0x01
                                           	MOVRA	r0x103C
                                           	MOVAR	r0x103B
                                           	MOVRA	STK01
                                           	MOVAR	r0x103C
                                           	MOVRA	STK00
                                           	MOVAI	0x80
                                           	CALL	__gptrget1
                                           	MOVRA	r0x103D
                                           	MOVAR	r0x103D
                                           	XORAI	0x01
                                           	JBSET	PFLAG,2
                                           	GOTO	_00815_DS_
                                           	GOTO	_00609_DS_
                                           _00815_DS_
                                           	MOVAR	r0x103D
                                           	XORAI	0x02
                                           	JBSET	PFLAG,2
                                           	GOTO	_00816_DS_
                                           	GOTO	_00673_DS_
                                           _00816_DS_
                                           	MOVAR	r0x103D
                                           	XORAI	0x03
                                           	JBSET	PFLAG,2
                                           	GOTO	_00817_DS_
                                           	GOTO	_00614_DS_
                                           _00817_DS_
                                           	MOVAR	r0x103D
                                           	XORAI	0x05
                                           	JBSET	PFLAG,2
                                           	GOTO	_00818_DS_
                                           	GOTO	_00620_DS_
                                           _00818_DS_
                                           	MOVAR	r0x103D
                                           	XORAI	0x08
                                           	JBSET	PFLAG,2
                                           	GOTO	_00819_DS_
                                           	GOTO	_00648_DS_
                                           _00819_DS_
                                           	MOVAR	r0x103D
                                           	XORAI	0x09
                                           	JBSET	PFLAG,2
                                           	GOTO	_00820_DS_
                                           	GOTO	_00651_DS_
                                           _00820_DS_
                                           	MOVAR	r0x103D
                                           	XORAI	0x0b
                                           	JBSET	PFLAG,2
                                           	GOTO	_00821_DS_
                                           	GOTO	_00673_DS_
                                           _00821_DS_
                                           	MOVAR	r0x103D
                                           	XORAI	0x0c
                                           	JBSET	PFLAG,2
                                           	GOTO	_00822_DS_
                                           	GOTO	_00673_DS_
                                           _00822_DS_
                                           	MOVAR	r0x103D
                                           	XORAI	0x0e
                                           	JBSET	PFLAG,2
                                           	GOTO	_00823_DS_
                                           	GOTO	_00673_DS_
                                           _00823_DS_
                                           	MOVAR	r0x103D
                                           	XORAI	0x0f
                                           	JBSET	PFLAG,2
                                           	GOTO	_00824_DS_
                                           	GOTO	_00660_DS_
                                           _00824_DS_
                                           	GOTO	_00673_DS_
                                           _00609_DS_
                                           ;	.line	591; "MC32F7361.c"	if (flag_is_ble_open)
                                           	JBSET	_flag1,1
                                           	GOTO	_00611_DS_
                                           ;	.line	593; "MC32F7361.c"	BLE_CTL_PIN_IN();
                                           	BCLR	_OEP1bits,7
                                           ;	.line	594; "MC32F7361.c"	flag_is_ble_open = 0;
                                           	BCLR	_flag1,1
                                           	GOTO	_00673_DS_
                                           _00611_DS_
                                           ;	.line	598; "MC32F7361.c"	BLE_CTL_PIN_OUT();
                                           	BSET	_OEP1bits,7
                                           ;	.line	599; "MC32F7361.c"	BLE_CTL_PIN_LOW(); // 
                                           	BCLR	_IOP1bits,7
                                           ;	.line	600; "MC32F7361.c"	flag_is_ble_open = 1;
                                           	BSET	_flag1,1
                                           ;	.line	603; "MC32F7361.c"	break;
                                           	GOTO	_00673_DS_
                                           _00614_DS_
                                           ;	.line	612; "MC32F7361.c"	switch (cur_light_status)
                                           	MOVAR	_cur_light_status
                                           	MOVRA	r0x103B
                                           ;;swapping arguments (AOP_TYPEs 1/2)
                                           ;;unsigned compare: left >= lit(0x3=3), size=1
                                           	MOVAI	0x03
                                           	RSUBAR	r0x103B
                                           	JBCLR	PFLAG,0
                                           	GOTO	_00618_DS_
                                           ;;genSkipc:3291: created from rifx:013B5EFC
                                           	MOVAR	r0x103B
                                           	ADDRA	PCL
                                           	GOTO	_00615_DS_
                                           	GOTO	_00616_DS_
                                           	GOTO	_00617_DS_
                                           _00615_DS_
                                           ;	.line	616; "MC32F7361.c"	WHITE_PWM_DUTY_REG = cur_w_pwm_duty;
                                           	MOVAR	_cur_w_pwm_duty
                                           	MOVRA	_T2DATA
                                           ;	.line	617; "MC32F7361.c"	cur_light_status = CUR_LIGHT_STATUS_WHITE;
                                           	MOVAI	0x01
                                           	MOVRA	_cur_light_status
                                           ;	.line	618; "MC32F7361.c"	break;
                                           	GOTO	_00673_DS_
                                           _00616_DS_
                                           ;	.line	620; "MC32F7361.c"	WHITE_PWM_DUTY_REG = 0;
                                           	CLRR	_T2DATA
                                           ;	.line	621; "MC32F7361.c"	YELLOW_PWM_DUTY_REG = cur_y_pwm_duty;
                                           	MOVAR	_cur_y_pwm_duty
                                           	MOVRA	_T0DATA
                                           ;	.line	622; "MC32F7361.c"	cur_light_status = CUR_LIGHT_STATUS_YELLOW;
                                           	MOVAI	0x02
                                           	MOVRA	_cur_light_status
                                           ;	.line	623; "MC32F7361.c"	break;
                                           	GOTO	_00673_DS_
                                           _00617_DS_
                                           ;	.line	625; "MC32F7361.c"	WHITE_PWM_DUTY_REG = cur_w_pwm_duty;
                                           	MOVAR	_cur_w_pwm_duty
                                           	MOVRA	_T2DATA
                                           ;	.line	626; "MC32F7361.c"	YELLOW_PWM_DUTY_REG = cur_y_pwm_duty;
                                           	MOVAR	_cur_y_pwm_duty
                                           	MOVRA	_T0DATA
                                           ;	.line	627; "MC32F7361.c"	cur_light_status = CUR_LIGHT_STATUS_WHITE_YELLOW;
                                           	MOVAI	0x03
                                           	MOVRA	_cur_light_status
                                           ;	.line	628; "MC32F7361.c"	break;
                                           	GOTO	_00673_DS_
                                           _00618_DS_
                                           ;	.line	630; "MC32F7361.c"	WHITE_PWM_DUTY_REG = 0;
                                           	CLRR	_T2DATA
                                           ;	.line	631; "MC32F7361.c"	YELLOW_PWM_DUTY_REG = 0;
                                           	CLRR	_T0DATA
                                           ;	.line	632; "MC32F7361.c"	cur_light_status = CUR_LIGHT_STATUS_OFF;
                                           	CLRR	_cur_light_status
                                           ;	.line	636; "MC32F7361.c"	break;
                                           	GOTO	_00673_DS_
                                           _00620_DS_
                                           ;	.line	648; "MC32F7361.c"	if (adjust_pwm_dir)
                                           	JBSET	_flag1,2
                                           	GOTO	_00646_DS_
                                           ;	.line	650; "MC32F7361.c"	if (CUR_LIGHT_STATUS_WHITE == cur_light_status ||
                                           	MOVAR	_cur_light_status
                                           	XORAI	0x01
                                           	JBSET	PFLAG,2
                                           	GOTO	_00827_DS_
                                           	GOTO	_00624_DS_
                                           _00827_DS_
                                           ;	.line	651; "MC32F7361.c"	CUR_LIGHT_STATUS_WHITE_YELLOW == cur_light_status)
                                           	MOVAR	_cur_light_status
                                           	XORAI	0x03
                                           	JBSET	PFLAG,2
                                           	GOTO	_00625_DS_
                                           ;;unsigned compare: left < lit(0xEC=236), size=1
                                           _00624_DS_
                                           ;	.line	654; "MC32F7361.c"	if (cur_w_pwm_duty < 255 - 19)
                                           	MOVAI	0xec
                                           	RSUBAR	_cur_w_pwm_duty
                                           	JBCLR	PFLAG,0
                                           	GOTO	_00622_DS_
                                           ;;genSkipc:3291: created from rifx:013B5EFC
                                           ;	.line	656; "MC32F7361.c"	cur_w_pwm_duty += 18;
                                           	MOVAR	_cur_w_pwm_duty
                                           	MOVRA	r0x103B
                                           	MOVAI	0x12
                                           	ADDAR	r0x103B
                                           	MOVRA	_cur_w_pwm_duty
                                           	GOTO	_00623_DS_
                                           _00622_DS_
                                           ;	.line	660; "MC32F7361.c"	cur_w_pwm_duty = 255;
                                           	MOVAI	0xff
                                           	MOVRA	_cur_w_pwm_duty
                                           _00623_DS_
                                           ;	.line	663; "MC32F7361.c"	WHITE_PWM_DUTY_REG = cur_w_pwm_duty;
                                           	MOVAR	_cur_w_pwm_duty
                                           	MOVRA	_T2DATA
                                           _00625_DS_
                                           ;	.line	666; "MC32F7361.c"	if (CUR_LIGHT_STATUS_YELLOW == cur_light_status ||
                                           	MOVAR	_cur_light_status
                                           	XORAI	0x02
                                           	JBSET	PFLAG,2
                                           	GOTO	_00829_DS_
                                           	GOTO	_00630_DS_
                                           _00829_DS_
                                           ;	.line	667; "MC32F7361.c"	CUR_LIGHT_STATUS_WHITE_YELLOW == cur_light_status)
                                           	MOVAR	_cur_light_status
                                           	XORAI	0x03
                                           	JBSET	PFLAG,2
                                           	GOTO	_00673_DS_
                                           ;;unsigned compare: left < lit(0xEC=236), size=1
                                           _00630_DS_
                                           ;	.line	669; "MC32F7361.c"	if (cur_y_pwm_duty < 255 - 19)
                                           	MOVAI	0xec
                                           	RSUBAR	_cur_y_pwm_duty
                                           	JBCLR	PFLAG,0
                                           	GOTO	_00628_DS_
                                           ;;genSkipc:3291: created from rifx:013B5EFC
                                           ;	.line	671; "MC32F7361.c"	cur_y_pwm_duty += 18;
                                           	MOVAR	_cur_y_pwm_duty
                                           	MOVRA	r0x103B
                                           	MOVAI	0x12
                                           	ADDAR	r0x103B
                                           	MOVRA	_cur_y_pwm_duty
                                           	GOTO	_00629_DS_
                                           _00628_DS_
                                           ;	.line	675; "MC32F7361.c"	cur_y_pwm_duty = 255;
                                           	MOVAI	0xff
                                           	MOVRA	_cur_y_pwm_duty
                                           _00629_DS_
                                           ;	.line	678; "MC32F7361.c"	YELLOW_PWM_DUTY_REG = cur_y_pwm_duty;
                                           	MOVAR	_cur_y_pwm_duty
                                           	MOVRA	_T0DATA
                                           	GOTO	_00673_DS_
                                           _00646_DS_
                                           ;	.line	683; "MC32F7361.c"	if (CUR_LIGHT_STATUS_WHITE == cur_light_status ||
                                           	MOVAR	_cur_light_status
                                           	XORAI	0x01
                                           	JBSET	PFLAG,2
                                           	GOTO	_00831_DS_
                                           	GOTO	_00636_DS_
                                           _00831_DS_
                                           ;	.line	684; "MC32F7361.c"	CUR_LIGHT_STATUS_WHITE_YELLOW == cur_light_status)
                                           	MOVAR	_cur_light_status
                                           	XORAI	0x03
                                           	JBSET	PFLAG,2
                                           	GOTO	_00637_DS_
                                           ;;swapping arguments (AOP_TYPEs 1/3)
                                           ;;unsigned compare: left >= lit(0x2D=45), size=1
                                           _00636_DS_
                                           ;	.line	687; "MC32F7361.c"	if (cur_w_pwm_duty > 25 + 19)
                                           	MOVAI	0x2d
                                           	RSUBAR	_cur_w_pwm_duty
                                           	JBSET	PFLAG,0
                                           	GOTO	_00634_DS_
                                           ;;genSkipc:3291: created from rifx:013B5EFC
                                           ;	.line	689; "MC32F7361.c"	cur_w_pwm_duty -= 18;
                                           	MOVAR	_cur_w_pwm_duty
                                           	MOVRA	r0x103B
                                           	MOVAI	0xee
                                           	ADDAR	r0x103B
                                           	MOVRA	_cur_w_pwm_duty
                                           	GOTO	_00635_DS_
                                           _00634_DS_
                                           ;	.line	693; "MC32F7361.c"	cur_w_pwm_duty = 25;
                                           	MOVAI	0x19
                                           	MOVRA	_cur_w_pwm_duty
                                           _00635_DS_
                                           ;	.line	696; "MC32F7361.c"	WHITE_PWM_DUTY_REG = cur_w_pwm_duty;
                                           	MOVAR	_cur_w_pwm_duty
                                           	MOVRA	_T2DATA
                                           _00637_DS_
                                           ;	.line	699; "MC32F7361.c"	if (CUR_LIGHT_STATUS_YELLOW == cur_light_status ||
                                           	MOVAR	_cur_light_status
                                           	XORAI	0x02
                                           	JBSET	PFLAG,2
                                           	GOTO	_00833_DS_
                                           	GOTO	_00642_DS_
                                           _00833_DS_
                                           ;	.line	700; "MC32F7361.c"	CUR_LIGHT_STATUS_WHITE_YELLOW == cur_light_status)
                                           	MOVAR	_cur_light_status
                                           	XORAI	0x03
                                           	JBSET	PFLAG,2
                                           	GOTO	_00673_DS_
                                           ;;swapping arguments (AOP_TYPEs 1/3)
                                           ;;unsigned compare: left >= lit(0x2D=45), size=1
                                           _00642_DS_
                                           ;	.line	702; "MC32F7361.c"	if (cur_y_pwm_duty > 25 + 19)
                                           	MOVAI	0x2d
                                           	RSUBAR	_cur_y_pwm_duty
                                           	JBSET	PFLAG,0
                                           	GOTO	_00640_DS_
                                           ;;genSkipc:3291: created from rifx:013B5EFC
                                           ;	.line	704; "MC32F7361.c"	cur_y_pwm_duty -= 18;
                                           	MOVAR	_cur_y_pwm_duty
                                           	MOVRA	r0x103B
                                           	MOVAI	0xee
                                           	ADDAR	r0x103B
                                           	MOVRA	_cur_y_pwm_duty
                                           	GOTO	_00641_DS_
                                           _00640_DS_
                                           ;	.line	708; "MC32F7361.c"	cur_y_pwm_duty = 25;
                                           	MOVAI	0x19
                                           	MOVRA	_cur_y_pwm_duty
                                           _00641_DS_
                                           ;	.line	711; "MC32F7361.c"	YELLOW_PWM_DUTY_REG = cur_y_pwm_duty;
                                           	MOVAR	_cur_y_pwm_duty
                                           	MOVRA	_T0DATA
                                           ;	.line	715; "MC32F7361.c"	break;
                                           	GOTO	_00673_DS_
                                           _00648_DS_
                                           ;	.line	720; "MC32F7361.c"	set_time_hold_cnt++;
                                           	INCR	_set_time_hold_cnt
                                           ;;unsigned compare: left < lit(0xE=14), size=1
                                           ;	.line	721; "MC32F7361.c"	if (set_time_hold_cnt >= 14) // 14 * 150ms == 2100ms
                                           	MOVAI	0x0e
                                           	RSUBAR	_set_time_hold_cnt
                                           	JBSET	PFLAG,0
                                           	GOTO	_00673_DS_
                                           ;;genSkipc:3291: created from rifx:013B5EFC
                                           ;	.line	723; "MC32F7361.c"	set_time_hold_cnt = 0;
                                           	CLRR	_set_time_hold_cnt
                                           ;	.line	724; "MC32F7361.c"	cur_status = STATUS_SET_TIME_HOUR;
                                           	MOVAI	0x01
                                           	MOVRA	_cur_status
                                           ;	.line	727; "MC32F7361.c"	break;
                                           	GOTO	_00673_DS_
                                           _00651_DS_
                                           ;	.line	731; "MC32F7361.c"	set_time_done_cnt = 0;
                                           	CLRR	_set_time_done_cnt
                                           	CLRR	(_set_time_done_cnt + 1)
                                           ;	.line	732; "MC32F7361.c"	set_time_delay_cnt = 0;
                                           	CLRR	_set_time_delay_cnt
                                           	CLRR	(_set_time_delay_cnt + 1)
                                           ;	.line	733; "MC32F7361.c"	if (STATUS_SET_TIME_HOUR == cur_status)
                                           	MOVAR	_cur_status
                                           	XORAI	0x01
                                           	JBSET	PFLAG,2
                                           	GOTO	_00655_DS_
                                           ;	.line	746; "MC32F7361.c"	TM1650_DisplayNum();
                                           	CALL	_TM1650_DisplayNum
                                           	GOTO	_00673_DS_
                                           _00655_DS_
                                           ;	.line	748; "MC32F7361.c"	else if (STATUS_SET_TIME_MIN == cur_status)
                                           	MOVAR	_cur_status
                                           	XORAI	0x02
                                           	JBSET	PFLAG,2
                                           	GOTO	_00673_DS_
                                           ;	.line	760; "MC32F7361.c"	TM1650_DisplayNum();
                                           	CALL	_TM1650_DisplayNum
                                           ;	.line	763; "MC32F7361.c"	break;
                                           	GOTO	_00673_DS_
                                           _00660_DS_
                                           ;	.line	779; "MC32F7361.c"	set_time_done_cnt = 0;
                                           	CLRR	_set_time_done_cnt
                                           	CLRR	(_set_time_done_cnt + 1)
                                           ;	.line	780; "MC32F7361.c"	set_time_delay_cnt = 0;
                                           	CLRR	_set_time_delay_cnt
                                           	CLRR	(_set_time_delay_cnt + 1)
                                           ;	.line	781; "MC32F7361.c"	if (STATUS_SET_TIME_HOUR == cur_status)
                                           	MOVAR	_cur_status
                                           	XORAI	0x01
                                           	JBSET	PFLAG,2
                                           	GOTO	_00669_DS_
                                           ;;unsigned compare: left < lit(0x2=2), size=1
                                           ;	.line	793; "MC32F7361.c"	if (thousand < 2 && hundred < 3)
                                           	MOVAI	0x02
                                           	RSUBAR	_thousand
                                           	JBCLR	PFLAG,0
                                           	GOTO	_00664_DS_
                                           ;;genSkipc:3291: created from rifx:013B5EFC
                                           ;;unsigned compare: left < lit(0x3=3), size=1
                                           	MOVAI	0x03
                                           	RSUBAR	_hundred
                                           	JBCLR	PFLAG,0
                                           	GOTO	_00664_DS_
                                           ;;genSkipc:3291: created from rifx:013B5EFC
                                           ;	.line	795; "MC32F7361.c"	hundred++;
                                           	INCR	_hundred
                                           ;;swapping arguments (AOP_TYPEs 1/3)
                                           ;;unsigned compare: left >= lit(0x3=3), size=1
                                           ;	.line	796; "MC32F7361.c"	if (hundred > 2)
                                           	MOVAI	0x03
                                           	RSUBAR	_hundred
                                           	JBSET	PFLAG,0
                                           	GOTO	_00664_DS_
                                           ;;genSkipc:3291: created from rifx:013B5EFC
                                           ;	.line	798; "MC32F7361.c"	hundred = 0;
                                           	CLRR	_hundred
                                           ;	.line	799; "MC32F7361.c"	thousand++;
                                           	INCR	_thousand
                                           _00664_DS_
                                           ;	.line	803; "MC32F7361.c"	TM1650_DisplayNum();
                                           	CALL	_TM1650_DisplayNum
                                           	GOTO	_00673_DS_
                                           _00669_DS_
                                           ;	.line	805; "MC32F7361.c"	else if (STATUS_SET_TIME_MIN == cur_status)
                                           	MOVAR	_cur_status
                                           	XORAI	0x02
                                           	JBSET	PFLAG,2
                                           	GOTO	_00673_DS_
                                           ;	.line	817; "MC32F7361.c"	TM1650_DisplayNum();
                                           	CALL	_TM1650_DisplayNum
                                           _00673_DS_
                                           ;	.line	830; "MC32F7361.c"	ad_key_event = KEY_EVENT_NONE; // 
                                           	MOVAI	0x03
                                           	MOVRA	_ad_key_event
                                           _00677_DS_
                                           ;	.line	832; "MC32F7361.c"	}
                                           	RETURN	
                                           ; exit point of _key_ad_key_event_deal
                                           
                                           ;***
                                           ;  pBlock Stats: dbName = C
                                           ;***
                                           ;entry:  _ad_key_event_10ms_isr	;Function start
                                           ; 2 exit points
                                           ;has an exit
                                           ;functions called:
                                           ;   _get_key_id
                                           ;   _get_key_id
                                           ;; Starting pCode block
                                           _ad_key_event_10ms_isr	;Function start
                                           ; 2 exit points
                                           ;	.line	459; "MC32F7361.c"	cur_key_id = get_key_id();
                                           	CALL	_get_key_id
                                           	MOVRA	_cur_key_id
                                           ;	.line	490; "MC32F7361.c"	if (last_key_id != cur_key_id) //  / 
                                           	MOVAR	_cur_key_id
                                           	XORAR	_ad_key_event_10ms_isr_last_key_id_65536_105
                                           	JBSET	PFLAG,2
                                           	GOTO	_00592_DS_
                                           	GOTO	_00552_DS_
                                           _00592_DS_
                                           ;	.line	492; "MC32F7361.c"	if (last_key_id == AD_KEY_ID_NONE)
                                           	MOVAR	_ad_key_event_10ms_isr_last_key_id_65536_105
                                           	XORAI	0x06
                                           	JBSET	PFLAG,2
                                           	GOTO	_00542_DS_
                                           ;	.line	494; "MC32F7361.c"	count = 0;
                                           	CLRR	_ad_key_event_10ms_isr_count_65536_105
                                           	GOTO	_00553_DS_
                                           _00542_DS_
                                           ;	.line	496; "MC32F7361.c"	else if (cur_key_id == AD_KEY_ID_NONE)
                                           	MOVAR	_cur_key_id
                                           	XORAI	0x06
                                           	JBSET	PFLAG,2
                                           	GOTO	_00553_DS_
                                           ;;unsigned compare: left < lit(0x4B=75), size=1
                                           ;	.line	498; "MC32F7361.c"	if (count < 75)
                                           	MOVAI	0x4b
                                           	RSUBAR	_ad_key_event_10ms_isr_count_65536_105
                                           	JBCLR	PFLAG,0
                                           	GOTO	_00537_DS_
                                           ;;genSkipc:3291: created from rifx:013B5EFC
                                           ;	.line	501; "MC32F7361.c"	ad_key_event = KEY_EVENT_CLICK;
                                           	CLRR	_ad_key_event
                                           	GOTO	_00553_DS_
                                           _00537_DS_
                                           ;	.line	507; "MC32F7361.c"	if (AD_KEY_ID_MID == last_key_id)
                                           	MOVAR	_ad_key_event_10ms_isr_last_key_id_65536_105
                                           	XORAI	0x01
                                           	JBSET	PFLAG,2
                                           	GOTO	_00553_DS_
                                           ;	.line	512; "MC32F7361.c"	if (adjust_pwm_dir)
                                           	JBSET	_flag1,2
                                           	GOTO	_00532_DS_
                                           ;	.line	514; "MC32F7361.c"	adjust_pwm_dir = 0;
                                           	BCLR	_flag1,2
                                           	GOTO	_00553_DS_
                                           _00532_DS_
                                           ;	.line	518; "MC32F7361.c"	adjust_pwm_dir = 1;
                                           	BSET	_flag1,2
                                           	GOTO	_00553_DS_
                                           _00552_DS_
                                           ;	.line	528; "MC32F7361.c"	else if (cur_key_id != AD_KEY_ID_NONE)
                                           	MOVAR	_cur_key_id
                                           	XORAI	0x06
                                           	JBSET	PFLAG,2
                                           	GOTO	_00594_DS_
                                           	GOTO	_00553_DS_
                                           _00594_DS_
                                           ;	.line	530; "MC32F7361.c"	count++;
                                           	INCR	_ad_key_event_10ms_isr_count_65536_105
                                           ;	.line	531; "MC32F7361.c"	if (count == 75)
                                           	MOVAR	_ad_key_event_10ms_isr_count_65536_105
                                           	XORAI	0x4b
                                           	JBSET	PFLAG,2
                                           	GOTO	_00547_DS_
                                           ;	.line	533; "MC32F7361.c"	ad_key_event = KEY_EVENT_LONG;
                                           	MOVAI	0x01
                                           	MOVRA	_ad_key_event
                                           	GOTO	_00553_DS_
                                           ;;unsigned compare: left < lit(0x5A=90), size=1
                                           _00547_DS_
                                           ;	.line	535; "MC32F7361.c"	else if (count >= 75 + 15)
                                           	MOVAI	0x5a
                                           	RSUBAR	_ad_key_event_10ms_isr_count_65536_105
                                           	JBSET	PFLAG,0
                                           	GOTO	_00553_DS_
                                           ;;genSkipc:3291: created from rifx:013B5EFC
                                           ;	.line	537; "MC32F7361.c"	ad_key_event = KEY_EVENT_HOLD;
                                           	MOVAI	0x02
                                           	MOVRA	_ad_key_event
                                           ;	.line	538; "MC32F7361.c"	count = 75;
                                           	MOVAI	0x4b
                                           	MOVRA	_ad_key_event_10ms_isr_count_65536_105
                                           _00553_DS_
                                           ;	.line	542; "MC32F7361.c"	last_key_id = cur_key_id;
                                           	MOVAR	_cur_key_id
                                           	MOVRA	_ad_key_event_10ms_isr_last_key_id_65536_105
                                           ;	.line	543; "MC32F7361.c"	}
                                           	RETURN	
                                           ; exit point of _ad_key_event_10ms_isr
                                           
                                           ;***
                                           ;  pBlock Stats: dbName = C
                                           ;***
                                           ;entry:  _get_key_id	;Function start
                                           ; 2 exit points
                                           ;has an exit
                                           ;functions called:
                                           ;   _adc_single_convert
                                           ;   __gptrget1
                                           ;   _adc_single_convert
                                           ;   __gptrget1
                                           ;5 compiler assigned registers:
                                           ;   r0x1037
                                           ;   STK00
                                           ;   r0x1038
                                           ;   STK01
                                           ;   r0x1039
                                           ;; Starting pCode block
                                           _get_key_id	;Function start
                                           ; 2 exit points
                                           ;	.line	442; "MC32F7361.c"	adc_val = adc_single_convert() >> 4;
                                           	CALL	_adc_single_convert
                                           	MOVRA	r0x1037
                                           	MOVAR	STK00
                                           	MOVRA	r0x1038
                                           	SWAPAR	r0x1038
                                           	ANDAI	0x0f
                                           	MOVRA	_adc_val
                                           	SWAPAR	r0x1037
                                           	MOVRA	(_adc_val + 1)
                                           	ANDAI	0xf0
                                           	ORRA	_adc_val
                                           	XORRA	(_adc_val + 1)
                                           ;	.line	443; "MC32F7361.c"	for (i = 0; i < AD_KEY_ID_NONE; i++)
                                           	CLRR	_i
                                           	CLRR	(_i + 1)
                                           _00509_DS_
                                           ;	.line	445; "MC32F7361.c"	if (adc_val <= id_table[i])
                                           	MOVAR	_i
                                           	ADDAI	(_id_table + 0)
                                           	MOVRA	r0x1038
                                           	MOVAI	high (_id_table + 0)
                                           	MOVRA	r0x1037
                                           	MOVAR	(_i + 1)
                                           	JBCLR	PFLAG,0
                                           	JZAR	(_i + 1)
                                           	ADDRA	r0x1037
                                           	MOVAR	r0x1038
                                           	MOVRA	STK01
                                           	MOVAR	r0x1037
                                           	MOVRA	STK00
                                           	MOVAI	0x80
                                           	CALL	__gptrget1
                                           	MOVRA	r0x1038
                                           ;;1	MOVRA	r0x1039
                                           ;;105	MOVAR	r0x1039
                                           	CLRR	r0x1037
                                           	MOVAR	(_adc_val + 1)
                                           	RSUBAR	r0x1037
                                           	JBSET	PFLAG,2
                                           	GOTO	_00525_DS_
                                           	MOVAR	_adc_val
                                           	RSUBAR	r0x1038
                                           _00525_DS_
                                           	JBSET	PFLAG,0
                                           	GOTO	_00510_DS_
                                           ;;genSkipc:3291: created from rifx:013B5EFC
                                           ;	.line	446; "MC32F7361.c"	return i;
                                           	MOVAR	_i
                                           	MOVRA	r0x1038
                                           	MOVAR	r0x1038
                                           	GOTO	_00511_DS_
                                           _00510_DS_
                                           ;	.line	443; "MC32F7361.c"	for (i = 0; i < AD_KEY_ID_NONE; i++)
                                           	INCR	_i
                                           	JBCLR	PFLAG,2
                                           	INCR	(_i + 1)
                                           ;;unsigned compare: left < lit(0x6=6), size=2
                                           	MOVAI	0x00
                                           	RSUBAR	(_i + 1)
                                           	JBSET	PFLAG,2
                                           	GOTO	_00526_DS_
                                           	MOVAI	0x06
                                           	RSUBAR	_i
                                           _00526_DS_
                                           	JBSET	PFLAG,0
                                           	GOTO	_00509_DS_
                                           ;;genSkipc:3291: created from rifx:013B5EFC
                                           ;	.line	448; "MC32F7361.c"	return AD_KEY_ID_NONE;
                                           	MOVAI	0x06
                                           _00511_DS_
                                           ;	.line	449; "MC32F7361.c"	}
                                           	RETURN	
                                           ; exit point of _get_key_id
                                           
                                           ;***
                                           ;  pBlock Stats: dbName = C
                                           ;***
                                           ;entry:  _adc_get_val	;Function start
                                           ; 2 exit points
                                           ;has an exit
                                           ;functions called:
                                           ;   _adc_single_convert
                                           ;   _adc_single_convert
                                           ;5 compiler assigned registers:
                                           ;   STK00
                                           ;   r0x1037
                                           ;   r0x1038
                                           ;   r0x1039
                                           ;   r0x103A
                                           ;; Starting pCode block
                                           _adc_get_val	;Function start
                                           ; 2 exit points
                                           ;	.line	417; "MC32F7361.c"	adc_val_sum = 0;
                                           	CLRR	_adc_val_sum
                                           	CLRR	(_adc_val_sum + 1)
                                           	CLRR	(_adc_val_sum + 2)
                                           	CLRR	(_adc_val_sum + 3)
                                           ;	.line	418; "MC32F7361.c"	get_adcmax = 0;
                                           	CLRR	_get_adcmax
                                           	CLRR	(_get_adcmax + 1)
                                           ;	.line	419; "MC32F7361.c"	get_adcmin = 0xFFFF;
                                           	MOVAI	0xff
                                           	MOVRA	_get_adcmin
                                           	MOVRA	(_get_adcmin + 1)
                                           ;	.line	421; "MC32F7361.c"	for (i = 0; i < 20; i++)
                                           	CLRR	_i
                                           	CLRR	(_i + 1)
                                           _00475_DS_
                                           ;	.line	423; "MC32F7361.c"	adc_val_tmp = adc_single_convert(); // adc
                                           	CALL	_adc_single_convert
                                           	MOVRA	(_adc_val_tmp + 1)
                                           	MOVAR	STK00
                                           	MOVRA	_adc_val_tmp
                                           ;;unsigned compare: left < lit(0x2=2), size=2
                                           ;	.line	424; "MC32F7361.c"	if (i < 2)
                                           	MOVAI	0x00
                                           	RSUBAR	(_i + 1)
                                           	JBSET	PFLAG,2
                                           	GOTO	_00498_DS_
                                           	MOVAI	0x02
                                           	RSUBAR	_i
                                           _00498_DS_
                                           	JBSET	PFLAG,0
                                           	GOTO	_00473_DS_
                                           ;;genSkipc:3291: created from rifx:013B5EFC
                                           ;	.line	426; "MC32F7361.c"	if (adc_val_tmp > get_adcmax)
                                           	MOVAR	(_adc_val_tmp + 1)
                                           	RSUBAR	(_get_adcmax + 1)
                                           	JBSET	PFLAG,2
                                           	GOTO	_00499_DS_
                                           	MOVAR	_adc_val_tmp
                                           	RSUBAR	_get_adcmax
                                           _00499_DS_
                                           	JBCLR	PFLAG,0
                                           	GOTO	_00470_DS_
                                           ;;genSkipc:3291: created from rifx:013B5EFC
                                           ;	.line	427; "MC32F7361.c"	get_adcmax = adc_val_tmp; // 
                                           	MOVAR	_adc_val_tmp
                                           	MOVRA	_get_adcmax
                                           	MOVAR	(_adc_val_tmp + 1)
                                           	MOVRA	(_get_adcmax + 1)
                                           _00470_DS_
                                           ;	.line	428; "MC32F7361.c"	if (adc_val_tmp < get_adcmin)
                                           	MOVAR	(_get_adcmin + 1)
                                           	RSUBAR	(_adc_val_tmp + 1)
                                           	JBSET	PFLAG,2
                                           	GOTO	_00500_DS_
                                           	MOVAR	_get_adcmin
                                           	RSUBAR	_adc_val_tmp
                                           _00500_DS_
                                           	JBCLR	PFLAG,0
                                           	GOTO	_00472_DS_
                                           ;;genSkipc:3291: created from rifx:013B5EFC
                                           ;	.line	429; "MC32F7361.c"	get_adcmin = adc_val_tmp; // 
                                           	MOVAR	_adc_val_tmp
                                           	MOVRA	_get_adcmin
                                           	MOVAR	(_adc_val_tmp + 1)
                                           	MOVRA	(_get_adcmin + 1)
                                           _00472_DS_
                                           ;	.line	430; "MC32F7361.c"	adc_val_sum += adc_val_tmp;
                                           	MOVAR	_adc_val_tmp
                                           	MOVRA	r0x1037
                                           	MOVAR	(_adc_val_tmp + 1)
                                           	MOVRA	r0x1038
                                           	CLRR	r0x1039
                                           	CLRR	r0x103A
                                           	MOVAR	r0x1037
                                           	ADDRA	_adc_val_sum
                                           	MOVAR	r0x1038
                                           	JBCLR	PFLAG,0
                                           	JZAR	r0x1038
                                           	ADDRA	(_adc_val_sum + 1)
                                           	MOVAR	r0x1039
                                           	JBCLR	PFLAG,0
                                           	JZAR	r0x1039
                                           	ADDRA	(_adc_val_sum + 2)
                                           	MOVAR	r0x103A
                                           	JBCLR	PFLAG,0
                                           	JZAR	r0x103A
                                           	ADDRA	(_adc_val_sum + 3)
                                           _00473_DS_
                                           ;	.line	421; "MC32F7361.c"	for (i = 0; i < 20; i++)
                                           	INCR	_i
                                           	JBCLR	PFLAG,2
                                           	INCR	(_i + 1)
                                           ;;unsigned compare: left < lit(0x14=20), size=2
                                           	MOVAI	0x00
                                           	RSUBAR	(_i + 1)
                                           	JBSET	PFLAG,2
                                           	GOTO	_00501_DS_
                                           	MOVAI	0x14
                                           	RSUBAR	_i
                                           _00501_DS_
                                           	JBSET	PFLAG,0
                                           	GOTO	_00475_DS_
                                           ;;genSkipc:3291: created from rifx:013B5EFC
                                           ;	.line	433; "MC32F7361.c"	adc_val_sum -= get_adcmax;        // 
                                           	MOVAR	_get_adcmax
                                           	MOVRA	r0x1037
                                           	MOVAR	(_get_adcmax + 1)
                                           	MOVRA	r0x1038
                                           	CLRR	r0x1039
                                           	CLRR	r0x103A
                                           	MOVAR	r0x1037
                                           	RSUBRA	_adc_val_sum
                                           	MOVAR	r0x1038
                                           	JBSET	PFLAG,0
                                           	JZAR	r0x1038
                                           	RSUBRA	(_adc_val_sum + 1)
                                           	MOVAR	r0x1039
                                           	JBSET	PFLAG,0
                                           	JZAR	r0x1039
                                           	RSUBRA	(_adc_val_sum + 2)
                                           	MOVAR	r0x103A
                                           	JBSET	PFLAG,0
                                           	JZAR	r0x103A
                                           	RSUBRA	(_adc_val_sum + 3)
                                           ;	.line	434; "MC32F7361.c"	adc_val_sum -= get_adcmin;        // 
                                           	MOVAR	_get_adcmin
                                           	MOVRA	r0x1037
                                           	MOVAR	(_get_adcmin + 1)
                                           	MOVRA	r0x1038
                                           	CLRR	r0x1039
                                           	CLRR	r0x103A
                                           	MOVAR	r0x1037
                                           	RSUBRA	_adc_val_sum
                                           	MOVAR	r0x1038
                                           	JBSET	PFLAG,0
                                           	JZAR	r0x1038
                                           	RSUBRA	(_adc_val_sum + 1)
                                           	MOVAR	r0x1039
                                           	JBSET	PFLAG,0
                                           	JZAR	r0x1039
                                           	RSUBRA	(_adc_val_sum + 2)
                                           	MOVAR	r0x103A
                                           	JBSET	PFLAG,0
                                           	JZAR	r0x103A
                                           	RSUBRA	(_adc_val_sum + 3)
                                           ;	.line	435; "MC32F7361.c"	adc_val_tmp = (adc_val_sum >> 4); // 16
                                           	SWAPAR	_adc_val_sum
                                           	ANDAI	0x0f
                                           	MOVRA	r0x1037
                                           	SWAPAR	(_adc_val_sum + 1)
                                           	MOVRA	r0x1038
                                           	ANDAI	0xf0
                                           	ORRA	r0x1037
                                           	XORRA	r0x1038
                                           	SWAPAR	(_adc_val_sum + 2)
                                           	MOVRA	r0x1039
                                           	ANDAI	0xf0
                                           	ORRA	r0x1038
                                           	XORRA	r0x1039
                                           	SWAPAR	(_adc_val_sum + 3)
                                           	MOVRA	r0x103A
                                           	ANDAI	0xf0
                                           	ORRA	r0x1039
                                           	XORRA	r0x103A
                                           	MOVAR	r0x1037
                                           	MOVRA	_adc_val_tmp
                                           	MOVAR	r0x1038
                                           	MOVRA	(_adc_val_tmp + 1)
                                           ;	.line	437; "MC32F7361.c"	return adc_val_tmp;
                                           	MOVAR	_adc_val_tmp
                                           	MOVRA	STK00
                                           	MOVAR	(_adc_val_tmp + 1)
                                           ;	.line	438; "MC32F7361.c"	}
                                           	RETURN	
                                           ; exit point of _adc_get_val
                                           
                                           ;***
                                           ;  pBlock Stats: dbName = C
                                           ;***
                                           ;entry:  _adc_single_convert	;Function start
                                           ; 2 exit points
                                           ;has an exit
                                           ;7 compiler assigned registers:
                                           ;   r0x1031
                                           ;   r0x1032
                                           ;   r0x1033
                                           ;   r0x1034
                                           ;   r0x1035
                                           ;   r0x1036
                                           ;   STK00
                                           ;; Starting pCode block
                                           _adc_single_convert	;Function start
                                           ; 2 exit points
                                           ;	.line	407; "MC32F7361.c"	ADEOC = 0;
                                           	BCLR	_ADCR0bits,1
                                           _00462_DS_
                                           ;	.line	408; "MC32F7361.c"	while (!ADEOC)
                                           	JBSET	_ADCR0bits,1
                                           	GOTO	_00462_DS_
                                           ;	.line	410; "MC32F7361.c"	adc_val_tmp = ADRH;
                                           	MOVAR	_ADRH
                                           	MOVRA	_adc_val_tmp
                                           	CLRR	(_adc_val_tmp + 1)
                                           ;	.line	411; "MC32F7361.c"	adc_val_tmp = adc_val_tmp << 4 | (ADRL & 0x0F);
                                           	SWAPAR	(_adc_val_tmp + 1)
                                           	ANDAI	0xf0
                                           	MOVRA	r0x1031
                                           	SWAPAR	_adc_val_tmp
                                           	MOVRA	r0x1032
                                           	ANDAI	0x0f
                                           	ORRA	r0x1031
                                           	XORRA	r0x1032
                                           	MOVAR	_ADRL
                                           	MOVRA	r0x1033
                                           	CLRR	r0x1034
                                           	MOVAI	0x0f
                                           	ANDRA	r0x1033
                                           	CLRR	r0x1034
                                           ;;101	MOVAR	r0x1033
                                           ;;99	MOVRA	r0x1035
                                           ;;104	MOVAR	r0x1034
                                           ;;102	MOVRA	r0x1036
                                           ;;100	MOVAR	r0x1035
                                           	MOVAR	r0x1033
                                           	ORAR	r0x1032
                                           	MOVRA	_adc_val_tmp
                                           ;;103	MOVAR	r0x1036
                                           	MOVAI	0x00
                                           	ORAR	r0x1031
                                           	MOVRA	(_adc_val_tmp + 1)
                                           ;	.line	412; "MC32F7361.c"	return adc_val_tmp;
                                           	MOVAR	_adc_val_tmp
                                           	MOVRA	STK00
                                           	MOVAR	(_adc_val_tmp + 1)
                                           ;	.line	413; "MC32F7361.c"	}
                                           	RETURN	
                                           ; exit point of _adc_single_convert
                                           
                                           ;***
                                           ;  pBlock Stats: dbName = C
                                           ;***
                                           ;entry:  _adc_channel_sel	;Function start
                                           ; 2 exit points
                                           ;has an exit
                                           ;functions called:
                                           ;   _delay_ms
                                           ;   _delay_ms
                                           ;2 compiler assigned registers:
                                           ;   r0x1037
                                           ;   STK00
                                           ;; Starting pCode block
                                           _adc_channel_sel	;Function start
                                           ; 2 exit points
                                           ;	.line	385; "MC32F7361.c"	void adc_channel_sel(u8 adc_channel)
                                           	MOVRA	r0x1037
                                           ;	.line	387; "MC32F7361.c"	switch (adc_channel)
                                           	MOVAR	r0x1037
                                           	JBSET	PFLAG,2
                                           	GOTO	_00457_DS_
                                           	GOTO	_00444_DS_
                                           _00457_DS_
                                           	MOVAR	r0x1037
                                           	XORAI	0x01
                                           	JBSET	PFLAG,2
                                           	GOTO	_00446_DS_
                                           ;	.line	390; "MC32F7361.c"	ADCR0 = 0x7F; // AN7ADC
                                           	MOVAI	0x7f
                                           	MOVRA	_ADCR0
                                           ;	.line	391; "MC32F7361.c"	ADCR1 = 0x82; // adc == FHIRC/324V
                                           	MOVAI	0x82
                                           	MOVRA	_ADCR1
                                           ;	.line	392; "MC32F7361.c"	break;
                                           	GOTO	_00446_DS_
                                           _00444_DS_
                                           ;	.line	395; "MC32F7361.c"	ADCR0 = 0xAF; // 1/VDDADC
                                           	MOVAI	0xaf
                                           	MOVRA	_ADCR0
                                           ;	.line	396; "MC32F7361.c"	ADCR1 = 0x80; // adc == FHIRC/322V
                                           	MOVAI	0x80
                                           	MOVRA	_ADCR1
                                           _00446_DS_
                                           ;	.line	402; "MC32F7361.c"	delay_ms(1);
                                           	MOVAI	0x01
                                           	MOVRA	STK00
                                           	MOVAI	0x00
                                           	CALL	_delay_ms
                                           ;	.line	403; "MC32F7361.c"	}
                                           	RETURN	
                                           ; exit point of _adc_channel_sel
                                           
                                           ;***
                                           ;  pBlock Stats: dbName = C
                                           ;***
                                           ;entry:  _Sys_Init	;Function start
                                           ; 2 exit points
                                           ;has an exit
                                           ;functions called:
                                           ;   _CLR_RAM
                                           ;   _IO_Init
                                           ;   _adc_config
                                           ;   _timer1_config
                                           ;   _TM1650_Init
                                           ;   _pwm_led_config
                                           ;   _timer3_config
                                           ;   _CLR_RAM
                                           ;   _IO_Init
                                           ;   _adc_config
                                           ;   _timer1_config
                                           ;   _TM1650_Init
                                           ;   _pwm_led_config
                                           ;   _timer3_config
                                           ;; Starting pCode block
                                           _Sys_Init	;Function start
                                           ; 2 exit points
                                           ;	.line	354; "MC32F7361.c"	GIE = 0;
                                           	BCLR	_MCRbits,7
                                           ;	.line	355; "MC32F7361.c"	CLR_RAM();
                                           	CALL	_CLR_RAM
                                           ;	.line	356; "MC32F7361.c"	IO_Init();
                                           	CALL	_IO_Init
                                           ;	.line	358; "MC32F7361.c"	adc_config();
                                           	CALL	_adc_config
                                           ;	.line	359; "MC32F7361.c"	timer1_config();
                                           	CALL	_timer1_config
                                           ;	.line	360; "MC32F7361.c"	TM1650_Init();
                                           	CALL	_TM1650_Init
                                           ;	.line	361; "MC32F7361.c"	pwm_led_config();
                                           	CALL	_pwm_led_config
                                           ;	.line	362; "MC32F7361.c"	timer3_config();
                                           	CALL	_timer3_config
                                           ;	.line	365; "MC32F7361.c"	P03PD = 1; // 
                                           	BSET	_PDP0bits,3
                                           ;	.line	366; "MC32F7361.c"	P03OE = 1; // 
                                           	BSET	_OEP0bits,3
                                           ;	.line	369; "MC32F7361.c"	BLE_CTL_PIN_IN();
                                           	BCLR	_OEP1bits,7
                                           ;	.line	372; "MC32F7361.c"	P16PU = 1; // 
                                           	BSET	_PUP1bits,6
                                           ;	.line	373; "MC32F7361.c"	P16OE = 0; // 
                                           	BCLR	_OEP1bits,6
                                           ;	.line	375; "MC32F7361.c"	ad_key_event = KEY_EVENT_NONE;
                                           	MOVAI	0x03
                                           	MOVRA	_ad_key_event
                                           ;	.line	376; "MC32F7361.c"	cur_key_id = AD_KEY_ID_NONE;
                                           	MOVAI	0x06
                                           	MOVRA	_cur_key_id
                                           ;	.line	377; "MC32F7361.c"	cur_w_pwm_duty = 255;
                                           	MOVAI	0xff
                                           	MOVRA	_cur_w_pwm_duty
                                           ;	.line	378; "MC32F7361.c"	cur_y_pwm_duty = 255;
                                           	MOVAI	0xff
                                           	MOVRA	_cur_y_pwm_duty
                                           ;	.line	380; "MC32F7361.c"	GIE = 1;
                                           	BSET	_MCRbits,7
                                           ;	.line	381; "MC32F7361.c"	}
                                           	RETURN	
                                           ; exit point of _Sys_Init
                                           
                                           ;***
                                           ;  pBlock Stats: dbName = C
                                           ;***
                                           ;entry:  _timer_100us_isr	;Function start
                                           ; 2 exit points
                                           ;has an exit
                                           ;8 compiler assigned registers:
                                           ;   r0x1041
                                           ;   r0x1042
                                           ;   r0x1043
                                           ;   r0x1044
                                           ;   r0x1045
                                           ;   r0x1046
                                           ;   r0x1047
                                           ;   r0x1048
                                           ;; Starting pCode block
                                           _timer_100us_isr	;Function start
                                           ; 2 exit points
                                           ;	.line	172; "MC32F7361.c"	if (g_state == TX_START || g_state == TX_SENDING_BIT || g_state == TX_SENDING_LOW)
                                           	MOVAR	_g_state
                                           	XORAI	0x01
                                           	JBSET	PFLAG,2
                                           	GOTO	_00403_DS_
                                           	GOTO	_00237_DS_
                                           _00403_DS_
                                           	MOVAR	_g_state
                                           	XORAI	0x02
                                           	JBSET	PFLAG,2
                                           	GOTO	_00404_DS_
                                           	GOTO	_00237_DS_
                                           _00404_DS_
                                           	MOVAR	_g_state
                                           	XORAI	0x03
                                           	JBSET	PFLAG,2
                                           	GOTO	_00238_DS_
                                           ;;unsigned compare: left < lit(0x1=1), size=1
                                           _00237_DS_
                                           ;	.line	174; "MC32F7361.c"	switch (g_state)
                                           	MOVAI	0x01
                                           	RSUBAR	_g_state
                                           	JBSET	PFLAG,0
                                           	GOTO	_00236_DS_
                                           ;;genSkipc:3291: created from rifx:013B5EFC
                                           ;;swapping arguments (AOP_TYPEs 1/3)
                                           ;;unsigned compare: left >= lit(0x4=4), size=1
                                           	MOVAI	0x04
                                           	RSUBAR	_g_state
                                           	JBCLR	PFLAG,0
                                           	GOTO	_00236_DS_
                                           ;;genSkipc:3291: created from rifx:013B5EFC
                                           	DECAR	_g_state
                                           	MOVRA	r0x1041
                                           	MOVAR	r0x1041
                                           	ADDRA	PCL
                                           	GOTO	_00204_DS_
                                           	GOTO	_00207_DS_
                                           	GOTO	_00215_DS_
                                           _00204_DS_
                                           ;	.line	177; "MC32F7361.c"	if (++g_timer_count >= START_SIGNAL_TIME)
                                           	INCR	_g_timer_count
                                           ;;unsigned compare: left < lit(0x64=100), size=1
                                           	MOVAI	0x64
                                           	RSUBAR	_g_timer_count
                                           	JBSET	PFLAG,0
                                           	GOTO	_00236_DS_
                                           ;;genSkipc:3291: created from rifx:013B5EFC
                                           ;	.line	179; "MC32F7361.c"	g_timer_count = 0;
                                           	CLRR	_g_timer_count
                                           ;	.line	180; "MC32F7361.c"	g_state = TX_SENDING_BIT;
                                           	MOVAI	0x02
                                           	MOVRA	_g_state
                                           ;	.line	181; "MC32F7361.c"	set_pin_high();
                                           	BSET	_IOP1bits,3
                                           ;	.line	183; "MC32F7361.c"	break;
                                           	GOTO	_00236_DS_
                                           _00207_DS_
                                           ;	.line	186; "MC32F7361.c"	if (g_data[g_byte_count] & BIT(g_bit_count))
                                           	MOVAR	_g_byte_count
                                           	ADDAI	(_g_data + 0)
                                           	MOVRA	r0x1041
                                           	MOVAI	high (_g_data + 0)
                                           	JBCLR	PFLAG,0
                                           	ADDAI	0x01
                                           	MOVRA	r0x1042
                                           	MOVAR	r0x1041
                                           	MOVRA	FSR0
                                           	MOVAR	r0x1042
                                           	MOVRA	FSR1
                                           	MOVAR	INDF2
                                           	MOVRA	r0x1043
                                           ;;111	MOVAR	_g_bit_count
                                           	MOVAI	0x00
                                           	MOVRA	r0x1044
                                           	MOVAI	0x01
                                           	MOVRA	r0x1045
                                           ;;110	MOVAR	r0x1041
                                           	MOVAR	_g_bit_count
                                           	MOVRA	r0x1041
                                           	ISUBAI	0x00
                                           	JBCLR	PFLAG,2
                                           	GOTO	_00410_DS_
                                           _00409_DS_
                                           	RLR	r0x1045
                                           	RLR	r0x1044
                                           	ADDAI	0x01
                                           	JBSET	PFLAG,0
                                           	GOTO	_00409_DS_
                                           _00410_DS_
                                           	MOVAR	r0x1043
                                           	MOVRA	r0x1041
                                           	CLRR	r0x1046
                                           	MOVAR	r0x1045
                                           	ANDAR	r0x1041
                                           	MOVRA	r0x1043
                                           	MOVAR	r0x1044
                                           	ANDAR	r0x1046
                                           	MOVRA	r0x1047
                                           	MOVAR	r0x1043
                                           	ORAR	r0x1047
                                           	JBCLR	PFLAG,2
                                           	GOTO	_00213_DS_
                                           ;	.line	189; "MC32F7361.c"	if (++g_timer_count >= BIT1_HIGH_TIME)
                                           	INCR	_g_timer_count
                                           ;;unsigned compare: left < lit(0xA=10), size=1
                                           	MOVAI	0x0a
                                           	RSUBAR	_g_timer_count
                                           	JBSET	PFLAG,0
                                           	GOTO	_00236_DS_
                                           ;;genSkipc:3291: created from rifx:013B5EFC
                                           ;	.line	191; "MC32F7361.c"	g_timer_count = 0;
                                           	CLRR	_g_timer_count
                                           ;	.line	192; "MC32F7361.c"	g_state = TX_SENDING_LOW;
                                           	MOVAI	0x03
                                           	MOVRA	_g_state
                                           ;	.line	193; "MC32F7361.c"	set_pin_low();
                                           	BCLR	_IOP1bits,3
                                           	GOTO	_00236_DS_
                                           _00213_DS_
                                           ;	.line	199; "MC32F7361.c"	if (++g_timer_count >= BIT0_HIGH_TIME)
                                           	INCR	_g_timer_count
                                           ;;unsigned compare: left < lit(0x5=5), size=1
                                           	MOVAI	0x05
                                           	RSUBAR	_g_timer_count
                                           	JBSET	PFLAG,0
                                           	GOTO	_00236_DS_
                                           ;;genSkipc:3291: created from rifx:013B5EFC
                                           ;	.line	201; "MC32F7361.c"	g_timer_count = 0;
                                           	CLRR	_g_timer_count
                                           ;	.line	202; "MC32F7361.c"	g_state = TX_SENDING_LOW;
                                           	MOVAI	0x03
                                           	MOVRA	_g_state
                                           ;	.line	203; "MC32F7361.c"	set_pin_low();
                                           	BCLR	_IOP1bits,3
                                           ;	.line	206; "MC32F7361.c"	break;
                                           	GOTO	_00236_DS_
                                           _00215_DS_
                                           ;	.line	209; "MC32F7361.c"	if (g_data[g_byte_count] & BIT(g_bit_count))
                                           	MOVAR	_g_byte_count
                                           	ADDAI	(_g_data + 0)
                                           	MOVRA	r0x1041
                                           	MOVAI	high (_g_data + 0)
                                           	JBCLR	PFLAG,0
                                           	ADDAI	0x01
                                           	MOVRA	r0x1043
                                           	MOVAR	r0x1041
                                           	MOVRA	FSR0
                                           	MOVAR	r0x1043
                                           	MOVRA	FSR1
                                           	MOVAR	INDF2
                                           	MOVRA	r0x1045
                                           ;;107	MOVAR	_g_bit_count
                                           	MOVAI	0x00
                                           	MOVRA	r0x1046
                                           	MOVAI	0x01
                                           	MOVRA	r0x1044
                                           ;;106	MOVAR	r0x1041
                                           	MOVAR	_g_bit_count
                                           	MOVRA	r0x1041
                                           	ISUBAI	0x00
                                           	JBCLR	PFLAG,2
                                           	GOTO	_00414_DS_
                                           _00413_DS_
                                           	RLR	r0x1044
                                           	RLR	r0x1046
                                           	ADDAI	0x01
                                           	JBSET	PFLAG,0
                                           	GOTO	_00413_DS_
                                           _00414_DS_
                                           	MOVAR	r0x1045
                                           	MOVRA	r0x1041
                                           	CLRR	r0x1047
                                           	MOVAR	r0x1044
                                           	ANDAR	r0x1041
                                           	MOVRA	r0x1045
                                           	MOVAR	r0x1046
                                           	ANDAR	r0x1047
                                           	MOVRA	r0x1048
                                           	MOVAR	r0x1045
                                           	ORAR	r0x1048
                                           	JBCLR	PFLAG,2
                                           	GOTO	_00233_DS_
                                           ;	.line	212; "MC32F7361.c"	if (++g_timer_count >= BIT1_LOW_TIME)
                                           	INCR	_g_timer_count
                                           ;;unsigned compare: left < lit(0x5=5), size=1
                                           	MOVAI	0x05
                                           	RSUBAR	_g_timer_count
                                           	JBSET	PFLAG,0
                                           	GOTO	_00236_DS_
                                           ;;genSkipc:3291: created from rifx:013B5EFC
                                           ;	.line	214; "MC32F7361.c"	g_timer_count = 0;
                                           	CLRR	_g_timer_count
                                           ;	.line	215; "MC32F7361.c"	if (++g_bit_count >= 8)
                                           	INCR	_g_bit_count
                                           ;;unsigned compare: left < lit(0x8=8), size=1
                                           	MOVAI	0x08
                                           	RSUBAR	_g_bit_count
                                           	JBSET	PFLAG,0
                                           	GOTO	_00219_DS_
                                           ;;genSkipc:3291: created from rifx:013B5EFC
                                           ;	.line	217; "MC32F7361.c"	g_bit_count = 0;
                                           	CLRR	_g_bit_count
                                           ;	.line	218; "MC32F7361.c"	if (++g_byte_count >= SEND_DATA_LEN)
                                           	INCR	_g_byte_count
                                           ;;unsigned compare: left < lit(0x3=3), size=1
                                           	MOVAI	0x03
                                           	RSUBAR	_g_byte_count
                                           	JBSET	PFLAG,0
                                           	GOTO	_00219_DS_
                                           ;;genSkipc:3291: created from rifx:013B5EFC
                                           ;	.line	220; "MC32F7361.c"	g_state = IDLE;
                                           	CLRR	_g_state
                                           _00219_DS_
                                           ;	.line	223; "MC32F7361.c"	if (g_state != IDLE)
                                           	MOVAI	0x00
                                           	ORAR	_g_state
                                           	JBCLR	PFLAG,2
                                           	GOTO	_00236_DS_
                                           ;	.line	225; "MC32F7361.c"	g_state = TX_SENDING_BIT;
                                           	MOVAI	0x02
                                           	MOVRA	_g_state
                                           ;	.line	226; "MC32F7361.c"	set_pin_high();
                                           	BSET	_IOP1bits,3
                                           	GOTO	_00236_DS_
                                           _00233_DS_
                                           ;	.line	233; "MC32F7361.c"	if (++g_timer_count >= BIT0_LOW_TIME)
                                           	INCR	_g_timer_count
                                           ;;unsigned compare: left < lit(0xA=10), size=1
                                           	MOVAI	0x0a
                                           	RSUBAR	_g_timer_count
                                           	JBSET	PFLAG,0
                                           	GOTO	_00236_DS_
                                           ;;genSkipc:3291: created from rifx:013B5EFC
                                           ;	.line	235; "MC32F7361.c"	g_timer_count = 0;
                                           	CLRR	_g_timer_count
                                           ;	.line	236; "MC32F7361.c"	if (++g_bit_count >= 8)
                                           	INCR	_g_bit_count
                                           ;;unsigned compare: left < lit(0x8=8), size=1
                                           	MOVAI	0x08
                                           	RSUBAR	_g_bit_count
                                           	JBSET	PFLAG,0
                                           	GOTO	_00227_DS_
                                           ;;genSkipc:3291: created from rifx:013B5EFC
                                           ;	.line	238; "MC32F7361.c"	g_bit_count = 0;
                                           	CLRR	_g_bit_count
                                           ;	.line	239; "MC32F7361.c"	if (++g_byte_count >= SEND_DATA_LEN)
                                           	INCR	_g_byte_count
                                           ;;unsigned compare: left < lit(0x3=3), size=1
                                           	MOVAI	0x03
                                           	RSUBAR	_g_byte_count
                                           	JBSET	PFLAG,0
                                           	GOTO	_00227_DS_
                                           ;;genSkipc:3291: created from rifx:013B5EFC
                                           ;	.line	241; "MC32F7361.c"	g_state = IDLE;
                                           	CLRR	_g_state
                                           _00227_DS_
                                           ;	.line	244; "MC32F7361.c"	if (g_state != IDLE)
                                           	MOVAI	0x00
                                           	ORAR	_g_state
                                           	JBCLR	PFLAG,2
                                           	GOTO	_00236_DS_
                                           ;	.line	246; "MC32F7361.c"	g_state = TX_SENDING_BIT;
                                           	MOVAI	0x02
                                           	MOVRA	_g_state
                                           ;	.line	247; "MC32F7361.c"	set_pin_high();
                                           	BSET	_IOP1bits,3
                                           _00236_DS_
                                           ;	.line	257; "MC32F7361.c"	return;
                                           	GOTO	_00269_DS_
                                           _00238_DS_
                                           ;	.line	263; "MC32F7361.c"	set_pin_high();
                                           	BSET	_IOP1bits,3
                                           ;	.line	267; "MC32F7361.c"	pin_state = get_pin_state();
                                           	CLRR	r0x1041
                                           	JBCLR	_IOP1bits,6
                                           	INCR	r0x1041
                                           	MOVAR	r0x1041
                                           	MOVRA	_pin_state
                                           ;	.line	269; "MC32F7361.c"	switch (g_state)
                                           	MOVAR	_g_state
                                           	JBSET	PFLAG,2
                                           	GOTO	_00421_DS_
                                           	GOTO	_00242_DS_
                                           _00421_DS_
                                           	MOVAR	_g_state
                                           	XORAI	0x04
                                           	JBSET	PFLAG,2
                                           	GOTO	_00422_DS_
                                           	GOTO	_00246_DS_
                                           _00422_DS_
                                           	MOVAR	_g_state
                                           	XORAI	0x05
                                           	JBSET	PFLAG,2
                                           	GOTO	_00423_DS_
                                           	GOTO	_00253_DS_
                                           _00423_DS_
                                           	MOVAR	_g_state
                                           	XORAI	0x06
                                           	JBSET	PFLAG,2
                                           	GOTO	_00424_DS_
                                           	GOTO	_00265_DS_
                                           _00424_DS_
                                           	GOTO	_00266_DS_
                                           _00242_DS_
                                           ;	.line	272; "MC32F7361.c"	if (pin_state == 0)
                                           	MOVAI	0x00
                                           	ORAR	_pin_state
                                           	JBSET	PFLAG,2
                                           	GOTO	_00266_DS_
                                           ;	.line	274; "MC32F7361.c"	g_timer_count = 0;
                                           	CLRR	_g_timer_count
                                           ;	.line	275; "MC32F7361.c"	g_state = RX_START;
                                           	MOVAI	0x04
                                           	MOVRA	_g_state
                                           ;	.line	276; "MC32F7361.c"	g_byte_count = 0;
                                           	CLRR	_g_byte_count
                                           ;	.line	277; "MC32F7361.c"	g_bit_count = 0;
                                           	CLRR	_g_bit_count
                                           ;	.line	279; "MC32F7361.c"	for (i = 0; i < 9; i++)
                                           	CLRR	_i
                                           	CLRR	(_i + 1)
                                           _00267_DS_
                                           ;	.line	281; "MC32F7361.c"	g_data[i] = 0;
                                           	MOVAR	_i
                                           	ADDAI	(_g_data + 0)
                                           	MOVRA	r0x1041
                                           	MOVAI	high (_g_data + 0)
                                           	MOVRA	r0x1045
                                           	MOVAR	(_i + 1)
                                           	JBCLR	PFLAG,0
                                           	JZAR	(_i + 1)
                                           	ADDRA	r0x1045
                                           	MOVAR	r0x1041
                                           	MOVRA	FSR0
                                           	MOVAR	r0x1045
                                           	MOVRA	FSR1
                                           	MOVAI	0x00
                                           	MOVRA	INDF2
                                           ;	.line	279; "MC32F7361.c"	for (i = 0; i < 9; i++)
                                           	INCR	_i
                                           	JBCLR	PFLAG,2
                                           	INCR	(_i + 1)
                                           ;;unsigned compare: left < lit(0x9=9), size=2
                                           	MOVAI	0x00
                                           	RSUBAR	(_i + 1)
                                           	JBSET	PFLAG,2
                                           	GOTO	_00425_DS_
                                           	MOVAI	0x09
                                           	RSUBAR	_i
                                           _00425_DS_
                                           	JBSET	PFLAG,0
                                           	GOTO	_00267_DS_
                                           ;;genSkipc:3291: created from rifx:013B5EFC
                                           ;	.line	284; "MC32F7361.c"	break;
                                           	GOTO	_00266_DS_
                                           _00246_DS_
                                           ;	.line	287; "MC32F7361.c"	g_timer_count++;
                                           	INCR	_g_timer_count
                                           ;	.line	288; "MC32F7361.c"	if (pin_state == 1)
                                           	MOVAR	_pin_state
                                           	XORAI	0x01
                                           	JBSET	PFLAG,2
                                           	GOTO	_00266_DS_
                                           ;;unsigned compare: left < lit(0x50=80), size=1
                                           ;	.line	291; "MC32F7361.c"	if (g_timer_count >= RX_START_MIN_TIME && g_timer_count <= RX_START_MAX_TIME)
                                           	MOVAI	0x50
                                           	RSUBAR	_g_timer_count
                                           	JBSET	PFLAG,0
                                           	GOTO	_00248_DS_
                                           ;;genSkipc:3291: created from rifx:013B5EFC
                                           ;;swapping arguments (AOP_TYPEs 1/3)
                                           ;;unsigned compare: left >= lit(0x97=151), size=1
                                           	MOVAI	0x97
                                           	RSUBAR	_g_timer_count
                                           	JBCLR	PFLAG,0
                                           	GOTO	_00248_DS_
                                           ;;genSkipc:3291: created from rifx:013B5EFC
                                           ;	.line	293; "MC32F7361.c"	g_timer_count = 0;
                                           	CLRR	_g_timer_count
                                           ;	.line	294; "MC32F7361.c"	g_state = RX_DATA;
                                           	MOVAI	0x05
                                           	MOVRA	_g_state
                                           	GOTO	_00266_DS_
                                           _00248_DS_
                                           ;	.line	298; "MC32F7361.c"	g_state = IDLE;
                                           	CLRR	_g_state
                                           ;	.line	301; "MC32F7361.c"	break;
                                           	GOTO	_00266_DS_
                                           _00253_DS_
                                           ;	.line	304; "MC32F7361.c"	g_timer_count++;
                                           	INCR	_g_timer_count
                                           ;	.line	305; "MC32F7361.c"	if (pin_state != g_last_pin_state)
                                           	MOVAR	_g_last_pin_state
                                           	XORAR	_pin_state
                                           	JBSET	PFLAG,2
                                           	GOTO	_00428_DS_
                                           	GOTO	_00266_DS_
                                           _00428_DS_
                                           ;	.line	307; "MC32F7361.c"	if (g_last_pin_state == 1)
                                           	MOVAR	_g_last_pin_state
                                           	XORAI	0x01
                                           	JBSET	PFLAG,2
                                           	GOTO	_00262_DS_
                                           ;;unsigned compare: left < lit(0x8=8), size=1
                                           ;	.line	311; "MC32F7361.c"	if (g_timer_count >= RX_BIT1_MIN_TIME && g_timer_count <= RX_BIT1_MAX_TIME)
                                           	MOVAI	0x08
                                           	RSUBAR	_g_timer_count
                                           	JBSET	PFLAG,0
                                           	GOTO	_00255_DS_
                                           ;;genSkipc:3291: created from rifx:013B5EFC
                                           ;;swapping arguments (AOP_TYPEs 1/3)
                                           ;;unsigned compare: left >= lit(0xD=13), size=1
                                           	MOVAI	0x0d
                                           	RSUBAR	_g_timer_count
                                           	JBCLR	PFLAG,0
                                           	GOTO	_00255_DS_
                                           ;;genSkipc:3291: created from rifx:013B5EFC
                                           ;	.line	313; "MC32F7361.c"	g_data[g_byte_count] |= BIT(g_bit_count);
                                           	MOVAR	_g_byte_count
                                           	ADDAI	(_g_data + 0)
                                           	MOVRA	r0x1041
                                           	MOVAI	high (_g_data + 0)
                                           	JBCLR	PFLAG,0
                                           	ADDAI	0x01
                                           	MOVRA	r0x1045
                                           	MOVAR	r0x1041
                                           	MOVRA	FSR0
                                           	MOVAR	r0x1045
                                           	MOVRA	FSR1
                                           	MOVAR	INDF2
                                           	MOVRA	r0x1044
                                           ;;109	MOVAR	_g_bit_count
                                           	MOVAI	0x01
                                           	MOVRA	r0x1047
                                           ;;108	MOVAR	r0x1046
                                           	MOVAR	_g_bit_count
                                           	MOVRA	r0x1046
                                           	JBCLR	r0x1046,7
                                           	GOTO	_00434_DS_
                                           	ISUBAI	0x00
                                           	JBCLR	PFLAG,2
                                           	GOTO	_00432_DS_
                                           _00431_DS_
                                           	RLR	r0x1047
                                           	ADDAI	0x01
                                           	JBSET	PFLAG,0
                                           	GOTO	_00431_DS_
                                           	GOTO	_00432_DS_
                                           _00434_DS_
                                           	BCLR	PFLAG,0
                                           	JBCLR	r0x1047,7
                                           	BSET	PFLAG,0
                                           	RRR	r0x1047
                                           	ADDAI	0x01
                                           	JBSET	PFLAG,0
                                           	GOTO	_00434_DS_
                                           _00432_DS_
                                           	MOVAR	r0x1044
                                           	MOVRA	r0x1046
                                           	MOVAR	r0x1047
                                           	ORAR	r0x1046
                                           	MOVRA	r0x1044
                                           	MOVAR	r0x1041
                                           	MOVRA	FSR0
                                           	MOVAR	r0x1045
                                           	MOVRA	FSR1
                                           	MOVAR	r0x1044
                                           	MOVRA	INDF2
                                           _00255_DS_
                                           ;	.line	316; "MC32F7361.c"	g_bit_count++;
                                           	INCR	_g_bit_count
                                           ;;unsigned compare: left < lit(0x8=8), size=1
                                           ;	.line	317; "MC32F7361.c"	if (g_bit_count >= 8)
                                           	MOVAI	0x08
                                           	RSUBAR	_g_bit_count
                                           	JBSET	PFLAG,0
                                           	GOTO	_00262_DS_
                                           ;;genSkipc:3291: created from rifx:013B5EFC
                                           ;	.line	319; "MC32F7361.c"	g_bit_count = 0;
                                           	CLRR	_g_bit_count
                                           ;	.line	320; "MC32F7361.c"	g_byte_count++;
                                           	INCR	_g_byte_count
                                           ;;unsigned compare: left < lit(0x3=3), size=1
                                           ;	.line	321; "MC32F7361.c"	if (g_byte_count >= RX_DATA_LEN)
                                           	MOVAI	0x03
                                           	RSUBAR	_g_byte_count
                                           	JBSET	PFLAG,0
                                           	GOTO	_00262_DS_
                                           ;;genSkipc:3291: created from rifx:013B5EFC
                                           ;	.line	323; "MC32F7361.c"	g_state = RX_END; // 
                                           	MOVAI	0x06
                                           	MOVRA	_g_state
                                           _00262_DS_
                                           ;	.line	327; "MC32F7361.c"	g_timer_count = 0;
                                           	CLRR	_g_timer_count
                                           ;	.line	329; "MC32F7361.c"	break;
                                           	GOTO	_00266_DS_
                                           _00265_DS_
                                           ;	.line	336; "MC32F7361.c"	g_state = IDLE;
                                           	CLRR	_g_state
                                           _00266_DS_
                                           ;	.line	339; "MC32F7361.c"	g_last_pin_state = pin_state;
                                           	MOVAR	_pin_state
                                           	MOVRA	_g_last_pin_state
                                           _00269_DS_
                                           ;	.line	340; "MC32F7361.c"	}
                                           	RETURN	
                                           ; exit point of _timer_100us_isr
                                           
                                           ;***
                                           ;  pBlock Stats: dbName = C
                                           ;***
                                           ;entry:  _start_send	;Function start
                                           ; 2 exit points
                                           ;has an exit
                                           ;functions called:
                                           ;   __gptrget1
                                           ;   __gptrget1
                                           ;11 compiler assigned registers:
                                           ;   r0x1031
                                           ;   STK00
                                           ;   r0x1032
                                           ;   STK01
                                           ;   r0x1033
                                           ;   r0x1034
                                           ;   r0x1035
                                           ;   r0x1036
                                           ;   r0x1037
                                           ;   r0x1038
                                           ;   r0x1039
                                           ;; Starting pCode block
                                           _start_send	;Function start
                                           ; 2 exit points
                                           ;	.line	150; "MC32F7361.c"	void start_send(uint8_t *data)
                                           	MOVRA	r0x1031
                                           	MOVAR	STK00
                                           	MOVRA	r0x1032
                                           	MOVAR	STK01
                                           	MOVRA	r0x1033
                                           ;	.line	152; "MC32F7361.c"	if (g_state != IDLE)
                                           	MOVAI	0x00
                                           	ORAR	_g_state
                                           	JBCLR	PFLAG,2
                                           	GOTO	_00181_DS_
                                           ;	.line	153; "MC32F7361.c"	return; // 
                                           	GOTO	_00185_DS_
                                           _00181_DS_
                                           ;	.line	156; "MC32F7361.c"	for (i = 0; i < SEND_DATA_LEN; i++)
                                           	CLRR	_i
                                           	CLRR	(_i + 1)
                                           _00183_DS_
                                           ;	.line	158; "MC32F7361.c"	g_data[i] = data[i];
                                           	MOVAR	_i
                                           	ADDAI	(_g_data + 0)
                                           	MOVRA	r0x1034
                                           	MOVAI	high (_g_data + 0)
                                           	MOVRA	r0x1035
                                           	MOVAR	(_i + 1)
                                           	JBCLR	PFLAG,0
                                           	JZAR	(_i + 1)
                                           	ADDRA	r0x1035
                                           	MOVAR	_i
                                           	ADDAR	r0x1033
                                           	MOVRA	r0x1036
                                           	MOVAR	r0x1032
                                           	MOVRA	r0x1037
                                           	MOVAR	(_i + 1)
                                           	JBCLR	PFLAG,0
                                           	JZAR	(_i + 1)
                                           	ADDRA	r0x1037
                                           	MOVAR	r0x1031
                                           	JBCLR	PFLAG,0
                                           	ADDAI	0x01
                                           	MOVRA	r0x1038
                                           	MOVAR	r0x1036
                                           	MOVRA	STK01
                                           	MOVAR	r0x1037
                                           	MOVRA	STK00
                                           	MOVAR	r0x1038
                                           	CALL	__gptrget1
                                           	MOVRA	r0x1039
                                           	MOVAR	r0x1034
                                           	MOVRA	FSR0
                                           	MOVAR	r0x1035
                                           	MOVRA	FSR1
                                           	MOVAR	r0x1039
                                           	MOVRA	INDF2
                                           ;	.line	156; "MC32F7361.c"	for (i = 0; i < SEND_DATA_LEN; i++)
                                           	INCR	_i
                                           	JBCLR	PFLAG,2
                                           	INCR	(_i + 1)
                                           ;;unsigned compare: left < lit(0x3=3), size=2
                                           	MOVAI	0x00
                                           	RSUBAR	(_i + 1)
                                           	JBSET	PFLAG,2
                                           	GOTO	_00199_DS_
                                           	MOVAI	0x03
                                           	RSUBAR	_i
                                           _00199_DS_
                                           	JBSET	PFLAG,0
                                           	GOTO	_00183_DS_
                                           ;;genSkipc:3291: created from rifx:013B5EFC
                                           ;	.line	160; "MC32F7361.c"	g_byte_count = 0;
                                           	CLRR	_g_byte_count
                                           ;	.line	161; "MC32F7361.c"	g_bit_count = 0;
                                           	CLRR	_g_bit_count
                                           ;	.line	162; "MC32F7361.c"	g_timer_count = 0;
                                           	CLRR	_g_timer_count
                                           ;	.line	163; "MC32F7361.c"	g_state = TX_START;
                                           	MOVAI	0x01
                                           	MOVRA	_g_state
                                           ;	.line	165; "MC32F7361.c"	set_pin_low(); // 
                                           	BCLR	_IOP1bits,3
                                           _00185_DS_
                                           ;	.line	166; "MC32F7361.c"	}
                                           	RETURN	
                                           ; exit point of _start_send
                                           
                                           ;***
                                           ;  pBlock Stats: dbName = C
                                           ;***
                                           ;entry:  _pwm_led_config	;Function start
                                           ; 2 exit points
                                           ;has an exit
                                           ;; Starting pCode block
                                           _pwm_led_config	;Function start
                                           ; 2 exit points
                                           ;	.line	133; "MC32F7361.c"	T0CR = DEF_SET_BIT6 | DEF_SET_BIT0 | DEF_SET_BIT1; // PWM,CPU,8
                                           	MOVAI	0x43
                                           	MOVRA	_T0CR
                                           ;	.line	134; "MC32F7361.c"	T0CNT = 255 - 1;
                                           	MOVAI	0xfe
                                           	MOVRA	_T0CNT
                                           ;	.line	135; "MC32F7361.c"	T0LOAD = 255 - 1; //
                                           	MOVAI	0xfe
                                           	MOVRA	_T0LOAD
                                           ;	.line	138; "MC32F7361.c"	T2CR = DEF_SET_BIT6 | DEF_SET_BIT0 | DEF_SET_BIT1; // PWM,CPU,8
                                           	MOVAI	0x43
                                           	MOVRA	_T2CR
                                           ;	.line	139; "MC32F7361.c"	T2CNT = 255 - 1;
                                           	MOVAI	0xfe
                                           	MOVRA	_T2CNT
                                           ;	.line	140; "MC32F7361.c"	T2LOAD = 255 - 1; //
                                           	MOVAI	0xfe
                                           	MOVRA	_T2LOAD
                                           ;	.line	143; "MC32F7361.c"	PWMCR1 = 0x00; // pwm
                                           	CLRR	_PWMCR1
                                           ;	.line	144; "MC32F7361.c"	PWMCR3 = 0x04; // PWM0P02
                                           	MOVAI	0x04
                                           	MOVRA	_PWMCR3
                                           ;	.line	145; "MC32F7361.c"	T0EN = 1;
                                           	BSET	_T0CRbits,7
                                           ;	.line	146; "MC32F7361.c"	T2EN = 1;
                                           	BSET	_T2CRbits,7
                                           ;	.line	147; "MC32F7361.c"	}
                                           	RETURN	
                                           ; exit point of _pwm_led_config
                                           
                                           ;***
                                           ;  pBlock Stats: dbName = C
                                           ;***
                                           ;entry:  _timer3_config	;Function start
                                           ; 2 exit points
                                           ;has an exit
                                           ;; Starting pCode block
                                           _timer3_config	;Function start
                                           ; 2 exit points
                                           ;	.line	122; "MC32F7361.c"	T3CR = 0x03; // ,CPU,8
                                           	MOVAI	0x03
                                           	MOVRA	_T3CR
                                           ;	.line	124; "MC32F7361.c"	T3LOAD = 100 - 1; // 8100us
                                           	MOVAI	0x63
                                           	MOVRA	_T3LOAD
                                           ;	.line	125; "MC32F7361.c"	T3EN = 1;
                                           	BSET	_T3CRbits,7
                                           ;	.line	126; "MC32F7361.c"	T3IE = 1;
                                           	BSET	_INTEbits,7
                                           ;	.line	127; "MC32F7361.c"	}
                                           	RETURN	
                                           ; exit point of _timer3_config
                                           
                                           ;***
                                           ;  pBlock Stats: dbName = C
                                           ;***
                                           ;entry:  _timer1_config	;Function start
                                           ; 2 exit points
                                           ;has an exit
                                           ;; Starting pCode block
                                           _timer1_config	;Function start
                                           ; 2 exit points
                                           ;	.line	112; "MC32F7361.c"	T1CR = 0x15; // FLOSC3232Khz(32768) / 32  1Khz0.9765625ms
                                           	MOVAI	0x15
                                           	MOVRA	_T1CR
                                           ;	.line	114; "MC32F7361.c"	T1LOAD = 10 - 1; //
                                           	MOVAI	0x09
                                           	MOVRA	_T1LOAD
                                           ;	.line	115; "MC32F7361.c"	T1EN = 1;
                                           	BSET	_T1CRbits,7
                                           ;	.line	116; "MC32F7361.c"	T1IE = 1;
                                           	BSET	_INTEbits,1
                                           ;	.line	117; "MC32F7361.c"	}
                                           	RETURN	
                                           ; exit point of _timer1_config
                                           
                                           ;***
                                           ;  pBlock Stats: dbName = C
                                           ;***
                                           ;entry:  _adc_config	;Function start
                                           ; 2 exit points
                                           ;has an exit
                                           ;; Starting pCode block
                                           _adc_config	;Function start
                                           ; 2 exit points
                                           ;	.line	90; "MC32F7361.c"	P12OE = 0;    // 
                                           	BCLR	_OEP1bits,2
                                           ;	.line	91; "MC32F7361.c"	P12DC = 1;    // 
                                           	BSET	_P1ADCRbits,2
                                           ;	.line	92; "MC32F7361.c"	ADCR0 = 0xFB; // ADC12H8L4
                                           	MOVAI	0xfb
                                           	MOVRA	_ADCR0
                                           ;	.line	93; "MC32F7361.c"	ADCR1 = 0x80; // adc322V
                                           	MOVAI	0x80
                                           	MOVRA	_ADCR1
                                           ;	.line	94; "MC32F7361.c"	ADCR2 = 0xFF; // 15ADCLK
                                           	MOVAI	0xff
                                           	MOVRA	_ADCR2
                                           ;	.line	96; "MC32F7361.c"	ADEN = 1;
                                           	BSET	_ADCR0bits,0
                                           ;	.line	97; "MC32F7361.c"	}
                                           	RETURN	
                                           ; exit point of _adc_config
                                           
                                           ;***
                                           ;  pBlock Stats: dbName = C
                                           ;***
                                           ;entry:  _IO_Init	;Function start
                                           ; 2 exit points
                                           ;has an exit
                                           ;; Starting pCode block
                                           _IO_Init	;Function start
                                           ; 2 exit points
                                           ;	.line	66; "MC32F7361.c"	IOP0 = 0x00;   // io
                                           	CLRR	_IOP0
                                           ;	.line	67; "MC32F7361.c"	OEP0 = 0x3F;   // io 1:out  0:in
                                           	MOVAI	0x3f
                                           	MOVRA	_OEP0
                                           ;	.line	68; "MC32F7361.c"	PUP0 = 0x00;   // io   1:enable  0:disable
                                           	CLRR	_PUP0
                                           ;	.line	69; "MC32F7361.c"	PDP0 = 0x00;   // io   1:enable  0:disable
                                           	CLRR	_PDP0
                                           ;	.line	70; "MC32F7361.c"	P0ADCR = 0x00; // io  1:  0:io
                                           	CLRR	_P0ADCR
                                           ;	.line	72; "MC32F7361.c"	IOP1 = 0x00;   // io
                                           	CLRR	_IOP1
                                           ;	.line	73; "MC32F7361.c"	OEP1 = 0xFF;   // io 1:out  0:in
                                           	MOVAI	0xff
                                           	MOVRA	_OEP1
                                           ;	.line	74; "MC32F7361.c"	PUP1 = 0x00;   // io   1:enable  0:disable
                                           	CLRR	_PUP1
                                           ;	.line	75; "MC32F7361.c"	PDP1 = 0x00;   // io   1:enable  0:disable
                                           	CLRR	_PDP1
                                           ;	.line	76; "MC32F7361.c"	P1ADCR = 0x00; // io  1:  0:io
                                           	CLRR	_P1ADCR
                                           ;	.line	78; "MC32F7361.c"	IOP2 = 0x00; // io
                                           	CLRR	_IOP2
                                           ;	.line	79; "MC32F7361.c"	OEP2 = 0x0F; // io 1:out  0:in
                                           	MOVAI	0x0f
                                           	MOVRA	_OEP2
                                           ;	.line	80; "MC32F7361.c"	PUP2 = 0x00; // io   1:enable  0:disable
                                           	CLRR	_PUP2
                                           ;	.line	81; "MC32F7361.c"	PDP2 = 0x00; // io   1:enable  0:disablea
                                           	CLRR	_PDP2
                                           ;	.line	83; "MC32F7361.c"	PMOD = 0x00;  // P00P01P13 io
                                           	CLRR	_PMOD
                                           ;	.line	84; "MC32F7361.c"	DRVCR = 0x80; // 
                                           	MOVAI	0x80
                                           	MOVRA	_DRVCR
                                           ;	.line	85; "MC32F7361.c"	}
                                           	RETURN	
                                           ; exit point of _IO_Init
                                           
                                           ;***
                                           ;  pBlock Stats: dbName = C
                                           ;***
                                           ;entry:  _CLR_RAM	;Function start
                                           ; 2 exit points
                                           ;has an exit
                                           ;; Starting pCode block
                                           _CLR_RAM	;Function start
                                           ; 2 exit points
                                           ;	.line	51; "MC32F7361.c"	for (FSR0 = 0; FSR0 < 0xff; FSR0++)
                                           	CLRR	_FSR0
                                           ;;unsigned compare: left < lit(0xFF=255), size=1
                                           _00155_DS_
                                           	MOVAI	0xff
                                           	RSUBAR	_FSR0
                                           	JBCLR	PFLAG,0
                                           	GOTO	_00153_DS_
                                           ;;genSkipc:3291: created from rifx:013B5EFC
                                           ;	.line	53; "MC32F7361.c"	INDF0 = 0x00;
                                           	CLRR	_INDF0
                                           ;	.line	51; "MC32F7361.c"	for (FSR0 = 0; FSR0 < 0xff; FSR0++)
                                           	INCR	_FSR0
                                           	GOTO	_00155_DS_
                                           _00153_DS_
                                           ;	.line	55; "MC32F7361.c"	FSR0 = 0xFF;
                                           	MOVAI	0xff
                                           	MOVRA	_FSR0
                                           ;	.line	56; "MC32F7361.c"	INDF0 = 0x00;
                                           	CLRR	_INDF0
                                           ;	.line	57; "MC32F7361.c"	}
                                           	RETURN	
                                           ; exit point of _CLR_RAM
                                           
                                           ;***
                                           ;  pBlock Stats: dbName = C
                                           ;***
                                           ;entry:  _delay_us	;Function start
                                           ; 2 exit points
                                           ;has an exit
                                           ;1 compiler assigned register :
                                           ;   r0x1031
                                           ;; Starting pCode block
                                           _delay_us	;Function start
                                           ; 2 exit points
                                           ;	.line	34; "MC32F7361.c"	void delay_us(u8 xus)
                                           	MOVRA	r0x1031
                                           _00145_DS_
                                           ;	.line	36; "MC32F7361.c"	while (xus)
                                           	MOVAI	0x00
                                           	ORAR	r0x1031
                                           	JBCLR	PFLAG,2
                                           	GOTO	_00148_DS_
                                           ;	.line	38; "MC32F7361.c"	Nop();
                                           	nop	
                                           ;	.line	39; "MC32F7361.c"	xus--; //  --while()
                                           	DECR	r0x1031
                                           	GOTO	_00145_DS_
                                           _00148_DS_
                                           ;	.line	41; "MC32F7361.c"	}
                                           	RETURN	
                                           ; exit point of _delay_us
                                           
                                           ;***
                                           ;  pBlock Stats: dbName = C
                                           ;***
                                           ;entry:  _delay_ms	;Function start
                                           ; 2 exit points
                                           ;has an exit
                                           ;7 compiler assigned registers:
                                           ;   r0x1031
                                           ;   STK00
                                           ;   r0x1032
                                           ;   r0x1033
                                           ;   r0x1034
                                           ;   r0x1035
                                           ;   r0x1036
                                           ;; Starting pCode block
                                           _delay_ms	;Function start
                                           ; 2 exit points
                                           ;	.line	20; "MC32F7361.c"	void delay_ms(u16 xms)
                                           	MOVRA	r0x1031
                                           	MOVAR	STK00
                                           	MOVRA	r0x1032
                                           _00137_DS_
                                           ;	.line	22; "MC32F7361.c"	while (xms)
                                           	MOVAR	r0x1032
                                           	ORAR	r0x1031
                                           	JBCLR	PFLAG,2
                                           	GOTO	_00140_DS_
                                           ;	.line	25; "MC32F7361.c"	while (i--)
                                           	MOVAI	0x3c
                                           	MOVRA	r0x1033
                                           	MOVAI	0x02
                                           	MOVRA	r0x1034
                                           _00134_DS_
                                           	MOVAR	r0x1033
                                           	MOVRA	r0x1035
                                           	MOVAR	r0x1034
                                           	MOVRA	r0x1036
                                           	MOVAI	0xff
                                           	ADDRA	r0x1033
                                           	JBSET	PFLAG,0
                                           	DECR	r0x1034
                                           	MOVAR	r0x1035
                                           	ORAR	r0x1036
                                           	JBCLR	PFLAG,2
                                           	GOTO	_00136_DS_
                                           ;	.line	27; "MC32F7361.c"	Nop();
                                           	nop	
                                           	GOTO	_00134_DS_
                                           _00136_DS_
                                           ;	.line	29; "MC32F7361.c"	xms--; //  --while()
                                           	MOVAI	0xff
                                           	ADDRA	r0x1032
                                           	JBSET	PFLAG,0
                                           	DECR	r0x1031
                                           	GOTO	_00137_DS_
                                           _00140_DS_
                                           ;	.line	31; "MC32F7361.c"	}
                                           	RETURN	
                                           ; exit point of _delay_ms
                                           
                                           ;***
                                           ;  pBlock Stats: dbName = C
                                           ;***
                                           ;entry:  _send_data_msb	;Function start
                                           ; 2 exit points
                                           ;has an exit
                                           ;functions called:
                                           ;   _delay_ms
                                           ;   _delay_ms
                                           ;   _delay_ms
                                           ;   _delay_ms
                                           ;   _delay_ms
                                           ;   _delay_ms
                                           ;   _delay_ms
                                           ;   _delay_ms
                                           ;   _delay_ms
                                           ;   _delay_ms
                                           ;   _delay_ms
                                           ;   _delay_ms
                                           ;   _delay_ms
                                           ;   _delay_ms
                                           ;   _delay_ms
                                           ;   _delay_ms
                                           ;13 compiler assigned registers:
                                           ;   r0x1049
                                           ;   STK00
                                           ;   r0x104A
                                           ;   STK01
                                           ;   r0x104B
                                           ;   STK02
                                           ;   r0x104C
                                           ;   r0x104D
                                           ;   r0x104E
                                           ;   r0x104F
                                           ;   r0x1050
                                           ;   r0x1051
                                           ;   r0x1052
                                           ;; Starting pCode block
                                           _send_data_msb	;Function start
                                           ; 2 exit points
                                           ;	.line	383; "user.h"	void send_data_msb(u32 send_data)
                                           	MOVRA	r0x1049
                                           	MOVAR	STK00
                                           	MOVRA	r0x104A
                                           	MOVAR	STK01
                                           	MOVRA	r0x104B
                                           	MOVAR	STK02
                                           	MOVRA	r0x104C
                                           ;	.line	387; "user.h"	DEBUG_PIN = 1;
                                           	BSET	_IOP2bits,2
                                           ;	.line	388; "user.h"	delay_ms(15);
                                           	MOVAI	0x0f
                                           	MOVRA	STK00
                                           	MOVAI	0x00
                                           	CALL	_delay_ms
                                           ;	.line	390; "user.h"	DEBUG_PIN = 0;
                                           	BCLR	_IOP2bits,2
                                           ;	.line	391; "user.h"	delay_ms(7); //
                                           	MOVAI	0x07
                                           	MOVRA	STK00
                                           	MOVAI	0x00
                                           	CALL	_delay_ms
                                           ;	.line	393; "user.h"	for (u8 i = 0; i < 32; i++)
                                           	CLRR	r0x104D
                                           ;;unsigned compare: left < lit(0x20=32), size=1
                                           _00110_DS_
                                           	MOVAI	0x20
                                           	RSUBAR	r0x104D
                                           	JBCLR	PFLAG,0
                                           	GOTO	_00108_DS_
                                           ;;genSkipc:3291: created from rifx:013B5EFC
                                           ;	.line	395; "user.h"	if ((send_data >> (32 - 1 - i)) & 0x01)
                                           	MOVAR	r0x104D
                                           	ISUBAI	0x1f
                                           	MOVRA	r0x104E
                                           	MOVAR	r0x1049
                                           	MOVRA	r0x104F
                                           	MOVAR	r0x104A
                                           	MOVRA	r0x1050
                                           	MOVAR	r0x104B
                                           	MOVRA	r0x1051
                                           	MOVAR	r0x104C
                                           	MOVRA	r0x1052
                                           	MOVAR	r0x104E
                                           	ISUBAI	0x00
                                           	JBCLR	PFLAG,2
                                           	GOTO	_00129_DS_
                                           _00128_DS_
                                           	RRR	r0x104F
                                           	RRR	r0x1050
                                           	RRR	r0x1051
                                           	RRR	r0x1052
                                           	ADDAI	0x01
                                           	JBSET	PFLAG,0
                                           	GOTO	_00128_DS_
                                           _00129_DS_
                                           	JBSET	r0x1052,0
                                           	GOTO	_00106_DS_
                                           ;	.line	399; "user.h"	DEBUG_PIN = 1;
                                           	BSET	_IOP2bits,2
                                           ;	.line	400; "user.h"	delay_ms(5); //
                                           	MOVAI	0x05
                                           	MOVRA	STK00
                                           	MOVAI	0x00
                                           	CALL	_delay_ms
                                           ;	.line	402; "user.h"	DEBUG_PIN = 0;
                                           	BCLR	_IOP2bits,2
                                           ;	.line	403; "user.h"	delay_ms(10); //
                                           	MOVAI	0x0a
                                           	MOVRA	STK00
                                           	MOVAI	0x00
                                           	CALL	_delay_ms
                                           	GOTO	_00111_DS_
                                           _00106_DS_
                                           ;	.line	409; "user.h"	DEBUG_PIN = 1;
                                           	BSET	_IOP2bits,2
                                           ;	.line	410; "user.h"	delay_ms(5); //
                                           	MOVAI	0x05
                                           	MOVRA	STK00
                                           	MOVAI	0x00
                                           	CALL	_delay_ms
                                           ;	.line	412; "user.h"	DEBUG_PIN = 0;
                                           	BCLR	_IOP2bits,2
                                           ;	.line	413; "user.h"	delay_ms(5); //
                                           	MOVAI	0x05
                                           	MOVRA	STK00
                                           	MOVAI	0x00
                                           	CALL	_delay_ms
                                           _00111_DS_
                                           ;	.line	393; "user.h"	for (u8 i = 0; i < 32; i++)
                                           	INCR	r0x104D
                                           	GOTO	_00110_DS_
                                           _00108_DS_
                                           ;	.line	419; "user.h"	DEBUG_PIN = 0;
                                           	BCLR	_IOP2bits,2
                                           ;	.line	420; "user.h"	delay_ms(1);
                                           	MOVAI	0x01
                                           	MOVRA	STK00
                                           	MOVAI	0x00
                                           	CALL	_delay_ms
                                           ;	.line	421; "user.h"	DEBUG_PIN = 1;
                                           	BSET	_IOP2bits,2
                                           ;	.line	422; "user.h"	delay_ms(1);
                                           	MOVAI	0x01
                                           	MOVRA	STK00
                                           	MOVAI	0x00
                                           	CALL	_delay_ms
                                           ;	.line	423; "user.h"	DEBUG_PIN = 0;
                                           	BCLR	_IOP2bits,2
                                           ;	.line	424; "user.h"	}
                                           	RETURN	
                                           ; exit point of _send_data_msb
                                           
                                           
                                           ;	code size estimation:
                                           ;	 1619+    0 =  1619 instructions ( 3238 byte)
                                           
                                           	end


MEMORY USAGE MAP ('X' = Used,  '-' = Unused)

0000 : XXXXXXXXXXXXXXXX XXXXXXXXXXXXXXXX XXXXXXXXXXXXXXXX XXXXXXXXXXXXXXXX
0040 : XXXXXXXXXXXXXXXX XXXXXXXXXXXXXXXX XXXXXXXXXXXXXXXX XXXXXXXXXXXXXXXX
0080 : XXXXXXXXXXXXXXXX XXXXXXXXXXXXXXXX XXXXXXXXXXXXXXXX XXXXXXXXXXXXXXXX
00C0 : XXXXXXXXXXXXXXXX XXXXXXXXXXXXXXXX XXXXXXXXXXXXXXXX XXXXXXXXXXXXXXXX
0100 : XXXXXXXXXXXXXXXX XXXXXXXXXXXXXXXX XXXXXXXXXXXXXXXX XXXXXXXXXXXXXXXX
0140 : XXXXXXXXXXXXXXXX XXXXXXXXXXXXXXXX XXXXXXXXXXXXXXXX XXXXXXXXXXXXXXXX
0180 : XXXXXXXXXXXXXXXX XXXXXXXXXXXXXXXX XXXXXXXXXXXXXXXX XXXXXXXXXXXXXXXX
01C0 : XXXXXXXXXXXXXXXX XXXXXXXXXXXXXXXX XXXXXXXXXXXXXXXX XXXXXXXXXXXXXXXX
0200 : XXXXXXXXXXXXXXXX XXXXXXXXXXXXXXXX XXXXXXXXXXXXXXXX XXXXXXXXXXXXXXXX
0240 : XXXXXXXXXXXXXXXX XXXXXXXXXXXXXXXX XXXXXXXXXXXXXXXX XXXXXXXXXXXXXXXX
0280 : XXXXXXXXXXXXXXXX XXXXXXXXXXXXXXXX XXXXXXXXXXXXXXXX XXXXXXXXXXXXXXXX
02C0 : XXXXXXXXXXXXXXXX XXXXXXXXXXXXXXXX XXXXXXXXXXXXXXXX XXXXXXXXXXXXXXXX
0300 : XXXXXXXXXXXXXXXX XXXXXXXXXXXXXXXX XXXXXXXXXXXXXXXX XXXXXXXXXXXXXXXX
0340 : XXXXXXXXXXXXXXXX XXXXXXXXXXXXXXXX XXXXXXXXXXXXXXXX XXXXXXXXXXXXXXXX
0380 : XXXXXXXXXXXXXXXX XXXXXXXXXXXXXXXX XXXXXXXXXXXXXXXX XXXXXXXXXXXXXXXX
03C0 : XXXXXXXXXXXXXXXX XXXXXXXXXXXXXXXX XXXXXXXXXXXXXXXX XXXXXXXXXXXXXXXX
0400 : XXXXXXXXXXXXXXXX XXXXXXXXXXXXXXXX XXXXXXXXXXXXXXXX XXXXXXXXXXXXXXXX
0440 : XXXXXXXXXXXXXXXX XXXXXXXXXXXXXXXX XXXXXXXXXXXXXXXX XXXXXXXXXXXXXXXX
0480 : XXXXXXXXXXXXXXXX XXXXXXXXXXXXXXXX XXXXXXXXXXXXXXXX XXXXXXXXXXXXXXXX
04C0 : XXXXXXXXXXXXXXXX XXXXXXXXXXXXXXXX XXXXXXXXXXXXXXXX XXXXXXXXXXXXXXXX
0500 : XXXXXXXXXXXXXXXX XXXXXXXXXXXXXXXX XXXXXXXXXXXXXXXX XXXXXXXXXXXXXXXX
0540 : XXXXXXXXXXXXXXXX XXXXXXXXXXXXXXXX XXXXXXXXXXXXXXXX XXXXXXXXXXXXXXXX
0580 : XXXXXXXXXXXXXXXX XXXXXXXXXXXXXXXX XXXXXXXXXXXXXXXX XXXXXXXXXXXXXXXX
05C0 : XXXXXXXXXXXXXXXX XXXXXXXXXXXXXXXX XXXXXXXXXXXXXXXX XXXXXXXXXXXXXXXX
0600 : XXXXXXXXXXXXXXXX XXXXXXXXXXXXXXXX XXXXXXXXXXXXXXXX XXXXXXXXXXXXXXXX
0640 : XXXXXXXXXXXXXXXX XXXXXXXXXXXXXXXX XXXXXXXXXXXXXXXX XXXXXXXXXXXXXXXX
0680 : XXXXXXXXXXXXXXXX XXXXXXXXXXXXXXXX XXXXXXXXXXXXXXXX XXXXXXXXXXXXXXXX
06C0 : XXXXXXXXXXXXXXXX XXXXXXXXXXXXXXXX XXXXXXXXXXXXXXXX XXXXXXXXXXXXXXXX
0700 : XXXXXXXXXXXXXXXX XXXXXXXXXXXXXXXX XXXXXXXXXXXXXXXX XXXXXXXXXXXXXXXX
0740 : XXXXXXXXXXXXXXXX XXXXXXXXXXXXXXXX XXXXXXXXXXXXXXXX XXXXXXXXXXXXXXXX
0780 : XXXXXXXXXXXXXXXX XXXXXXXXXXXXXXXX XXXXXXXXXXXXXXXX XXXXXXXXXXXXXXXX
07C0 : XXXXXXXXXXXXXXXX XXXXXXXXXXXXXXXX XXXXXXXXXXXXXXXX XXXXXXXXXXXXXXXX
0800 : XXXXXXXXXXXXXXXX XXXXXXXXXXXXXXXX XXXXXXXXXXXXXXXX XXXXXXXXXXXXXXXX
0840 : XXXXXXXXXXXXXXXX XXXXXXXXXXXXXXXX XXXXXXXXXXXXXXXX XXXXXXXXXXXXXXXX
0880 : XXXXXXXXXXXXXXXX XXXXXXXXXXXXXXXX XXXXXXXXXXXXXXXX XXXXXXXXXXXXXXXX
08C0 : XXXXXXXXXXXXXXXX XXXXXXXXXXXXXXXX XXXXXXXXXXXXXXXX XXXXXXXXXXXXXXXX
0900 : XXXXXXXXXXXXXXXX XXXXXXXXXXXXXXXX XXXXXXXXXXXXXXXX XXXXXXXXXXXXXXXX
0940 : XXXXXXXXXXXXXXXX XXXXXXXXXXXXXXXX XXXXXXXXXXXXXXXX XXXXXXXXXXXXXXXX
0980 : XXXXXXXXXXXXXXXX XXXXXXXXXXXXXXXX XXXXXXXXXXXXXXXX XXXXXXXXXXXXXXXX
09C0 : XXXXXXXXXXXXXXXX XXXXXXXXXXXXXXXX XXXXXXXXXXXXXXXX XXXXXXXXXXXXXXXX
0A00 : XXXXXXXXXXXXXXXX XXXXXXXXXXXXXXXX XXXXXXXXXXXXXXXX XXXXXXXXXXXXXXXX
0A40 : XXXXXXXXXXXXXXXX XXXXXXXXXXXXXXXX XXXXXXXXXXXXXXXX XXXXXXXXXXXXXXXX
0A80 : XXXXXXXXXXXXXXXX XXXXXXXXXXXXXXXX XXXXXXXXXXXXXXXX XXXXXXXXXXXXXXXX
0AC0 : XXXXXXXXXXXXXXXX XXXXXXXXXXXXXXXX XXXXXXXXXXXXXXXX XXXXXXXXXXXXXXXX
0B00 : XXXXXXXXXXXXXXXX XXXXXXXXXXXXXXXX XXXXXXXXXXXXXXXX XXXXXXXXXXXXXXXX
0B40 : XXXXXXXXXXXXXXXX XXXXXXXXXXXXXXXX XXXXXXXXXXXXXXXX XXXXXXXXXXXXXXXX
0B80 : XXXXXXXXXXXXXXXX XXXXXXXXXXXXXXXX XXXXXXXXXXXXXXXX XXXXXXXXXXXXXXXX
0BC0 : XXXXXXXXXXXXXXXX XXXXXXXXXXXXXXXX XXXXXXXXXXXXXXXX XXXXXXXXXXXXXXXX
0C00 : XXXXXXXXXXXXXXXX XXXXXXXXXXXXXXXX XXXXXXXXXXXXXXXX XXXXXXXXXXXXXXXX
0C40 : XXXXXXXXXXXXXXXX XXXXXXXXXXXXXXXX XXXXXXXXXXXXXXXX XXXXXXXXXXXXXXXX
0C80 : XXXXXXXXXXXXXXXX XXXXXXXXXXXXXXXX XXXXXXXXXXXXXXXX XXXXXXXXXXXXXXXX
0CC0 : XXXXXXXXXXXXXXXX XXXXXXXXXXXXXXXX XXXXXXXXXXXXXXXX XXXXXXXXXXXXXXXX
0D00 : XXXXXXXXXXXXXXXX XXXXXXXXXXXXXXXX XXXXXXXXXXXXXXXX XXXXXXXXXXXXXXXX
0D40 : XXXXXXXXXXXXXXXX XXXXXXXXXXXXXXXX XX-------------- ----------------

All other memory blocks unused.

Program Memory Words Used:  1713

