gplink-2.2.37 (Jan 22 2024)
Listing File Generated: 2024-12-20  17:51:06
 
 
Address  Value    Disassembly              Source
-------  -----    -----------              ------
                                           ;--------------------------------------------------------
                                           ; external declarations
                                           ;--------------------------------------------------------
                                           	extern	_INDF0bits
                                           	extern	_INDF1bits
                                           	extern	_INDF2bits
                                           	extern	_HIBYTEbits
                                           	extern	_FSR0bits
                                           	extern	_FSR1bits
                                           	extern	_PCLbits
                                           	extern	_PFLAGbits
                                           	extern	_MCRbits
                                           	extern	_INDF3bits
                                           	extern	_INTEbits
                                           	extern	_INTFbits
                                           	extern	_DRVCRbits
                                           	extern	_P0KBCRbits
                                           	extern	_P1KBCRbits
                                           	extern	_P2KBCRbits
                                           	extern	_IOP0bits
                                           	extern	_OEP0bits
                                           	extern	_PUP0bits
                                           	extern	_PDP0bits
                                           	extern	_IOP1bits
                                           	extern	_OEP1bits
                                           	extern	_PUP1bits
                                           	extern	_PDP1bits
                                           	extern	_T0CRbits
                                           	extern	_T0CNTbits
                                           	extern	_T0LOADbits
                                           	extern	_T0DATAbits
                                           	extern	_T1CRbits
                                           	extern	_T1CNTbits
                                           	extern	_T1LOADbits
                                           	extern	_T1DATAbits
                                           	extern	_T2CRbits
                                           	extern	_T2CNTbits
                                           	extern	_T2LOADbits
                                           	extern	_T2DATAbits
                                           	extern	_T3CRbits
                                           	extern	_T3CNTbits
                                           	extern	_T3LOADbits
                                           	extern	_PWM0DRbits
                                           	extern	_PWM1DRbits
                                           	extern	_PWM2DRbits
                                           	extern	_PWMCR0bits
                                           	extern	_PWMCR1bits
                                           	extern	_OSCMRbits
                                           	extern	_LVDCRbits
                                           	extern	_ADCR0bits
                                           	extern	_ADCR1bits
                                           	extern	_ADCR2bits
                                           	extern	_OSADJCRbits
                                           	extern	_ADRHbits
                                           	extern	_ADRLbits
                                           	extern	_P0ADCRbits
                                           	extern	_P1ADCRbits
                                           	extern	_IOP2bits
                                           	extern	_OEP2bits
                                           	extern	_PUP2bits
                                           	extern	_PDP2bits
                                           	extern	_PMODbits
                                           	extern	_PWMCR3bits
                                           	extern	_PWMCR2bits
                                           	extern	_PFRCCRbits
                                           	extern	_PFRCCALbits
                                           	extern	_EECRbits
                                           	extern	_EEPRbits
                                           	extern	_EEARbits
                                           	extern	_EEDRHbits
                                           	extern	_EEDRLbits
                                           	extern	_DBGCRbits
                                           	extern	_DBGPRbits
                                           	extern	_HIRCCALbits
                                           	extern	_INDF0
                                           	extern	_INDF1
                                           	extern	_INDF2
                                           	extern	_HIBYTE
                                           	extern	_FSR0
                                           	extern	_FSR1
                                           	extern	_PCL
                                           	extern	_PFLAG
                                           	extern	_MCR
                                           	extern	_INDF3
                                           	extern	_INTE
                                           	extern	_INTF
                                           	extern	_DRVCR
                                           	extern	_P0KBCR
                                           	extern	_P1KBCR
                                           	extern	_P2KBCR
                                           	extern	_IOP0
                                           	extern	_OEP0
                                           	extern	_PUP0
                                           	extern	_PDP0
                                           	extern	_IOP1
                                           	extern	_OEP1
                                           	extern	_PUP1
                                           	extern	_PDP1
                                           	extern	_T0CR
                                           	extern	_T0CNT
                                           	extern	_T0LOAD
                                           	extern	_T0DATA
                                           	extern	_T1CR
                                           	extern	_T1CNT
                                           	extern	_T1LOAD
                                           	extern	_T1DATA
                                           	extern	_T2CR
                                           	extern	_T2CNT
                                           	extern	_T2LOAD
                                           	extern	_T2DATA
                                           	extern	_T3CR
                                           	extern	_T3CNT
                                           	extern	_T3LOAD
                                           	extern	_PWM0DR
                                           	extern	_PWM1DR
                                           	extern	_PWM2DR
                                           	extern	_PWMCR0
                                           	extern	_PWMCR1
                                           	extern	_OSCMR
                                           	extern	_LVDCR
                                           	extern	_ADCR0
                                           	extern	_ADCR1
                                           	extern	_ADCR2
                                           	extern	_OSADJCR
                                           	extern	_ADRH
                                           	extern	_ADRL
                                           	extern	_P0ADCR
                                           	extern	_P1ADCR
                                           	extern	_IOP2
                                           	extern	_OEP2
                                           	extern	_PUP2
                                           	extern	_PDP2
                                           	extern	_PMOD
                                           	extern	_PWMCR3
                                           	extern	_PWMCR2
                                           	extern	_PFRCCR
                                           	extern	_PFRCCAL
                                           	extern	_EECR
                                           	extern	_EEPR
                                           	extern	_EEAR
                                           	extern	_EEDRH
                                           	extern	_EEDRL
                                           	extern	_DBGCR
                                           	extern	_DBGPR
                                           	extern	_HIRCCAL
                                           	extern	__gptrget1
                                           	extern	__mulchar
                                           ;--------------------------------------------------------
                                           ; global declarations
                                           ;--------------------------------------------------------
                                           	global	_TM1650_DisplayTime
                                           	global	_TM1650_Init
                                           	global	_TM1650_WriteByte
                                           	global	_bsp_i2c_rx_ack
                                           	global	_bsp_i2c_tx_byte
                                           	global	_key_ad_key_event_deal
                                           	global	_ad_key_event_10ms_isr
                                           	global	_get_key_id
                                           	global	_adc_get_val
                                           	global	_adc_single_convert
                                           	global	_adc_channel_sel
                                           	global	_Sys_Init
                                           	global	_timer_100us_isr
                                           	global	_start_send
                                           	global	_pwm_led_config
                                           	global	_timer3_config
                                           	global	_timer1_config
                                           	global	_adc_config
                                           	global	_IO_Init
                                           	global	_CLR_RAM
                                           	global	_delay_us
                                           	global	_delay_ms
                                           	global	_main
                                           	global	_int_isr
                                           	global	_low_power_time_cnt
                                           	global	_battery_status
                                           	global	_keep_time_cnt
                                           	global	_abuf
                                           	global	_statusbuf
                                           	global	_i
                                           	global	_cur_w_pwm_duty
                                           	global	_cur_y_pwm_duty
                                           	global	_cur_light_status
                                           	global	_send_buf
                                           	global	_g_data
                                           	global	_g_state
                                           	global	_pin_state
                                           	global	_adc_val_tmp
                                           	global	_adc_val_sum
                                           	global	_get_adcmax
                                           	global	_get_adcmin
                                           	global	_adc_val
                                           	global	_ad_key_event
                                           	global	_cur_key_id
                                           	global	_set_time_hold_cnt
                                           	global	_cur_set_time_status
                                           	global	_set_time_delay_cnt
                                           	global	_set_time_done_cnt
                                           	global	_thousand
                                           	global	_hundred
                                           	global	_decade
                                           	global	_unit
                                           	global	_flag1
                                           	global	_flag2
                                           	global	_cur_dev_use
                                           	global	_id_table
                                           	global	_key_event_table
                                           	global	_NUM_TABLE
                                           
                                           	global STK06
                                           	global STK05
                                           	global STK04
                                           	global STK03
                                           	global STK02
                                           	global STK01
                                           	global STK00
                                           
                                           sharebank udata_ovr 0x0000
                                           STK06	res 1
                                           STK05	res 1
                                           STK04	res 1
                                           STK03	res 1
                                           STK02	res 1
                                           STK01	res 1
                                           STK00	res 1
                                           
                                           ;--------------------------------------------------------
                                           ; global definitions
                                           ;--------------------------------------------------------
                                           UD_MC32F7361_0	udata
                                           _low_power_time_cnt	res	2
                                           
                                           UD_MC32F7361_1	udata
                                           _battery_status	res	1
                                           
                                           UD_MC32F7361_2	udata
                                           _keep_time_cnt	res	1
                                           
                                           UD_MC32F7361_3	udata
                                           _abuf	res	1
                                           
                                           UD_MC32F7361_4	udata
                                           _statusbuf	res	1
                                           
                                           UD_MC32F7361_5	udata
                                           _i	res	1
                                           
                                           UD_MC32F7361_6	udata
                                           _cur_w_pwm_duty	res	1
                                           
                                           UD_MC32F7361_7	udata
                                           _cur_y_pwm_duty	res	1
                                           
                                           UD_MC32F7361_8	udata
                                           _cur_light_status	res	1
                                           
                                           UD_MC32F7361_9	udata
                                           _send_buf	res	3
                                           
                                           UD_MC32F7361_10	udata
                                           _g_data	res	6
                                           
                                           UD_MC32F7361_11	udata
                                           _pin_state	res	1
                                           
                                           UD_MC32F7361_12	udata
                                           _adc_val_tmp	res	2
                                           
                                           UD_MC32F7361_13	udata
                                           _adc_val_sum	res	4
                                           
                                           UD_MC32F7361_14	udata
                                           _get_adcmax	res	2
                                           
                                           UD_MC32F7361_15	udata
                                           _get_adcmin	res	2
                                           
                                           UD_MC32F7361_16	udata
                                           _adc_val	res	2
                                           
                                           UD_MC32F7361_17	udata
                                           _ad_key_event	res	1
                                           
                                           UD_MC32F7361_18	udata
                                           _cur_key_id	res	1
                                           
                                           UD_MC32F7361_19	udata
                                           _set_time_hold_cnt	res	1
                                           
                                           UD_MC32F7361_20	udata
                                           _cur_set_time_status	res	1
                                           
                                           UD_MC32F7361_21	udata
                                           _set_time_delay_cnt	res	2
                                           
                                           UD_MC32F7361_22	udata
                                           _set_time_done_cnt	res	2
                                           
                                           UD_MC32F7361_23	udata
                                           _thousand	res	1
                                           
                                           UD_MC32F7361_24	udata
                                           _hundred	res	1
                                           
                                           UD_MC32F7361_25	udata
                                           _decade	res	1
                                           
                                           UD_MC32F7361_26	udata
                                           _unit	res	1
                                           
                                           UD_MC32F7361_27	udata
                                           _flag1	res	1
                                           
                                           UD_MC32F7361_28	udata
                                           _flag2	res	1
                                           
                                           UD_MC32F7361_29	udata
                                           _cur_dev_use	res	1
                                           
                                           ;--------------------------------------------------------
                                           ; absolute symbol definitions
                                           ;--------------------------------------------------------
                                           ;--------------------------------------------------------
                                           ; compiler-defined variables
                                           ;--------------------------------------------------------
                                           UDL_MC32F7361_0	udata
                                           r0x1039	res	1
                                           r0x1038	res	1
                                           r0x103A	res	1
                                           r0x103B	res	1
                                           r0x103C	res	1
                                           r0x103D	res	1
                                           r0x1049	res	1
                                           r0x104A	res	1
                                           r0x104B	res	1
                                           r0x104D	res	1
                                           r0x104C	res	1
                                           r0x104E	res	1
                                           r0x104F	res	1
                                           r0x1050	res	1
                                           r0x1051	res	1
                                           r0x1052	res	1
                                           r0x103E	res	1
                                           r0x1045	res	1
                                           r0x1046	res	1
                                           r0x1047	res	1
                                           r0x1048	res	1
                                           r0x103F	res	1
                                           r0x1041	res	1
                                           r0x1042	res	1
                                           r0x1043	res	1
                                           r0x1040	res	1
                                           r0x1044	res	1
                                           r0x1053	res	1
                                           r0x1054	res	1
                                           _g_byte_count	res	1
                                           _g_bit_count	res	1
                                           _g_timer_count	res	1
                                           _g_last_pin_state	res	1
                                           _ad_key_event_10ms_isr_filter_cnt_65536_97	res	1
                                           _ad_key_event_10ms_isr_filter_key_id_65536_97	res	1
                                           _ad_key_event_10ms_isr_count_65536_97	res	1
                                           _ad_key_event_10ms_isr_last_key_id_65536_97	res	1
                                           _int_isr_timer1_cnt_131072_201	res	2
                                           _int_isr_ad_key_scan_time_cnt_196608_211	res	1
                                           _int_isr___set_time_cnt_196608_213	res	1
                                           ;--------------------------------------------------------
                                           ; initialized data
                                           ;--------------------------------------------------------
                                           
                                           ID_MC32F7361_0	idata
                                           _g_state
                                           	db	0x00
                                           
                                           
                                           ID_MC32F7361_1	code
                                           _id_table
000001   0017     dw      0x17             	dw 0x17
000002   0040     dw      0x40             	dw 0x40
000003   0060     dw      0x60             	dw 0x60
000004   0084     dw      0x84             	dw 0x84
000005   00b7     dw      0xb7             	dw 0xb7
000006   00e9     dw      0xe9             	dw 0xe9
                                           
                                           
                                           ID_MC32F7361_2	code
                                           _key_event_table
0006dd   0000     nop                      	dw 0x00
0006de   0001     dw      0x1              	dw 0x01
0006df   0002     dw      0x2              	dw 0x02
0006e0   0003     dw      0x3              	dw 0x03
0006e1   0004     dw      0x4              	dw 0x04
0006e2   0005     dw      0x5              	dw 0x05
0006e3   0006     dw      0x6              	dw 0x06
0006e4   0007     dw      0x7              	dw 0x07
0006e5   0008     dw      0x8              	dw 0x08
0006e6   0009     dsa                      	dw 0x09
0006e7   000a     daa                      	dw 0x0a
0006e8   000b     stop                     	dw 0x0b
0006e9   000c     return                   	dw 0x0c
0006ea   000d     retie                    	dw 0x0d
0006eb   000e     clrwdt                   	dw 0x0e
0006ec   000f     dw      0xf              	dw 0x0f
0006ed   0010     djza                     	dw 0x10
0006ee   0011     deca                     	dw 0x11
                                           
                                           
                                           ID_MC32F7361_3	code
                                           _NUM_TABLE
000701   00eb     dw      0xeb             	dw 0xeb
000702   0088     dw      0x88             	dw 0x88
000703   00b3     dw      0xb3             	dw 0xb3
000704   00ba     dw      0xba             	dw 0xba
000705   00d8     dw      0xd8             	dw 0xd8
000706   007a     dw      0x7a             	dw 0x7a
000707   007b     dw      0x7b             	dw 0x7b
000708   00a8     dw      0xa8             	dw 0xa8
000709   00fb     dw      0xfb             	dw 0xfb
00070a   00fa     dw      0xfa             	dw 0xfa
                                           
                                           
                                           ;@Allocation info for local variables in function 'delay_ms'
                                           ;@delay_ms Sys_Init                  Allocated to registers ;size:2
                                           ;@delay_ms CLR_RAM                   Allocated to registers ;size:2
                                           ;@delay_ms IO_Init                   Allocated to registers ;size:2
                                           ;@delay_ms delay_us                  Allocated to registers ;size:2
                                           ;@delay_ms adc_config                Allocated to registers ;size:2
                                           ;@delay_ms timer1_config             Allocated to registers ;size:2
                                           ;@delay_ms timer3_config             Allocated to registers ;size:2
                                           ;@delay_ms pwm_led_config            Allocated to registers ;size:2
                                           ;@delay_ms start_send                Allocated to registers ;size:2
                                           ;@delay_ms timer_100us_isr           Allocated to registers ;size:2
                                           ;@delay_ms adc_channel_sel           Allocated to registers ;size:2
                                           ;@delay_ms adc_single_convert        Allocated to registers ;size:2
                                           ;@delay_ms adc_get_val               Allocated to registers ;size:2
                                           ;@delay_ms get_key_id                Allocated to registers ;size:2
                                           ;@delay_ms ad_key_event_10ms_isr     Allocated to registers ;size:2
                                           ;@delay_ms key_ad_key_event_deal     Allocated to registers ;size:2
                                           ;@delay_ms bsp_i2c_tx_byte           Allocated to registers ;size:2
                                           ;@delay_ms bsp_i2c_rx_ack            Allocated to registers ;size:2
                                           ;@delay_ms TM1650_WriteByte          Allocated to registers ;size:2
                                           ;@delay_ms TM1650_Init               Allocated to registers ;size:2
                                           ;@delay_ms TM1650_DisplayTime        Allocated to registers ;size:2
                                           ;@delay_ms INDF0bits                 Allocated to registers ;size:1
                                           ;@delay_ms INDF1bits                 Allocated to registers ;size:1
                                           ;@delay_ms INDF2bits                 Allocated to registers ;size:1
                                           ;@delay_ms HIBYTEbits                Allocated to registers ;size:1
                                           ;@delay_ms FSR0bits                  Allocated to registers ;size:1
                                           ;@delay_ms FSR1bits                  Allocated to registers ;size:1
                                           ;@delay_ms PCLbits                   Allocated to registers ;size:1
                                           ;@delay_ms PFLAGbits                 Allocated to registers ;size:1
                                           ;@delay_ms MCRbits                   Allocated to registers ;size:1
                                           ;@delay_ms INDF3bits                 Allocated to registers ;size:1
                                           ;@delay_ms INTEbits                  Allocated to registers ;size:1
                                           ;@delay_ms INTFbits                  Allocated to registers ;size:1
                                           ;@delay_ms DRVCRbits                 Allocated to registers ;size:1
                                           ;@delay_ms P0KBCRbits                Allocated to registers ;size:1
                                           ;@delay_ms P1KBCRbits                Allocated to registers ;size:1
                                           ;@delay_ms P2KBCRbits                Allocated to registers ;size:1
                                           ;@delay_ms IOP0bits                  Allocated to registers ;size:1
                                           ;@delay_ms OEP0bits                  Allocated to registers ;size:1
                                           ;@delay_ms PUP0bits                  Allocated to registers ;size:1
                                           ;@delay_ms PDP0bits                  Allocated to registers ;size:1
                                           ;@delay_ms IOP1bits                  Allocated to registers ;size:1
                                           ;@delay_ms OEP1bits                  Allocated to registers ;size:1
                                           ;@delay_ms PUP1bits                  Allocated to registers ;size:1
                                           ;@delay_ms PDP1bits                  Allocated to registers ;size:1
                                           ;@delay_ms T0CRbits                  Allocated to registers ;size:1
                                           ;@delay_ms T0CNTbits                 Allocated to registers ;size:1
                                           ;@delay_ms T0LOADbits                Allocated to registers ;size:1
                                           ;@delay_ms T0DATAbits                Allocated to registers ;size:1
                                           ;@delay_ms T1CRbits                  Allocated to registers ;size:1
                                           ;@delay_ms T1CNTbits                 Allocated to registers ;size:1
                                           ;@delay_ms T1LOADbits                Allocated to registers ;size:1
                                           ;@delay_ms T1DATAbits                Allocated to registers ;size:1
                                           ;@delay_ms T2CRbits                  Allocated to registers ;size:1
                                           ;@delay_ms T2CNTbits                 Allocated to registers ;size:1
                                           ;@delay_ms T2LOADbits                Allocated to registers ;size:1
                                           ;@delay_ms T2DATAbits                Allocated to registers ;size:1
                                           ;@delay_ms T3CRbits                  Allocated to registers ;size:1
                                           ;@delay_ms T3CNTbits                 Allocated to registers ;size:1
                                           ;@delay_ms T3LOADbits                Allocated to registers ;size:1
                                           ;@delay_ms PWM0DRbits                Allocated to registers ;size:1
                                           ;@delay_ms PWM1DRbits                Allocated to registers ;size:1
                                           ;@delay_ms PWM2DRbits                Allocated to registers ;size:1
                                           ;@delay_ms PWMCR0bits                Allocated to registers ;size:1
                                           ;@delay_ms PWMCR1bits                Allocated to registers ;size:1
                                           ;@delay_ms OSCMRbits                 Allocated to registers ;size:1
                                           ;@delay_ms LVDCRbits                 Allocated to registers ;size:1
                                           ;@delay_ms ADCR0bits                 Allocated to registers ;size:1
                                           ;@delay_ms ADCR1bits                 Allocated to registers ;size:1
                                           ;@delay_ms ADCR2bits                 Allocated to registers ;size:1
                                           ;@delay_ms OSADJCRbits               Allocated to registers ;size:1
                                           ;@delay_ms ADRHbits                  Allocated to registers ;size:1
                                           ;@delay_ms ADRLbits                  Allocated to registers ;size:1
                                           ;@delay_ms P0ADCRbits                Allocated to registers ;size:1
                                           ;@delay_ms P1ADCRbits                Allocated to registers ;size:1
                                           ;@delay_ms IOP2bits                  Allocated to registers ;size:1
                                           ;@delay_ms OEP2bits                  Allocated to registers ;size:1
                                           ;@delay_ms PUP2bits                  Allocated to registers ;size:1
                                           ;@delay_ms PDP2bits                  Allocated to registers ;size:1
                                           ;@delay_ms PMODbits                  Allocated to registers ;size:1
                                           ;@delay_ms PWMCR3bits                Allocated to registers ;size:1
                                           ;@delay_ms PWMCR2bits                Allocated to registers ;size:1
                                           ;@delay_ms PFRCCRbits                Allocated to registers ;size:1
                                           ;@delay_ms PFRCCALbits               Allocated to registers ;size:1
                                           ;@delay_ms EECRbits                  Allocated to registers ;size:1
                                           ;@delay_ms EEPRbits                  Allocated to registers ;size:1
                                           ;@delay_ms EEARbits                  Allocated to registers ;size:1
                                           ;@delay_ms EEDRHbits                 Allocated to registers ;size:1
                                           ;@delay_ms EEDRLbits                 Allocated to registers ;size:1
                                           ;@delay_ms DBGCRbits                 Allocated to registers ;size:1
                                           ;@delay_ms DBGPRbits                 Allocated to registers ;size:1
                                           ;@delay_ms HIRCCALbits               Allocated to registers ;size:1
                                           ;@delay_ms low_power_time_cnt        Allocated to registers ;size:2
                                           ;@delay_ms battery_status            Allocated to registers ;size:1
                                           ;@delay_ms keep_time_cnt             Allocated to registers ;size:1
                                           ;@delay_ms abuf                      Allocated to registers ;size:1
                                           ;@delay_ms statusbuf                 Allocated to registers ;size:1
                                           ;@delay_ms i                         Allocated to registers ;size:1
                                           ;@delay_ms cur_w_pwm_duty            Allocated to registers ;size:1
                                           ;@delay_ms cur_y_pwm_duty            Allocated to registers ;size:1
                                           ;@delay_ms cur_light_status          Allocated to registers ;size:1
                                           ;@delay_ms send_buf                  Allocated to registers ;size:3
                                           ;@delay_ms g_data                    Allocated to registers ;size:6
                                           ;@delay_ms g_byte_count              Allocated to registers ;size:1
                                           ;@delay_ms g_bit_count               Allocated to registers ;size:1
                                           ;@delay_ms g_timer_count             Allocated to registers ;size:1
                                           ;@delay_ms g_state                   Allocated to registers ;size:1
                                           ;@delay_ms g_last_pin_state          Allocated to registers ;size:1
                                           ;@delay_ms pin_state                 Allocated to registers ;size:1
                                           ;@delay_ms adc_val_tmp               Allocated to registers ;size:2
                                           ;@delay_ms adc_val_sum               Allocated to registers ;size:4
                                           ;@delay_ms get_adcmax                Allocated to registers ;size:2
                                           ;@delay_ms get_adcmin                Allocated to registers ;size:2
                                           ;@delay_ms adc_val                   Allocated to registers ;size:2
                                           ;@delay_ms ad_key_event              Allocated to registers ;size:1
                                           ;@delay_ms cur_key_id                Allocated to registers ;size:1
                                           ;@delay_ms set_time_hold_cnt         Allocated to registers ;size:1
                                           ;@delay_ms cur_set_time_status       Allocated to registers ;size:1
                                           ;@delay_ms set_time_delay_cnt        Allocated to registers ;size:2
                                           ;@delay_ms set_time_done_cnt         Allocated to registers ;size:2
                                           ;@delay_ms thousand                  Allocated to registers ;size:1
                                           ;@delay_ms hundred                   Allocated to registers ;size:1
                                           ;@delay_ms decade                    Allocated to registers ;size:1
                                           ;@delay_ms unit                      Allocated to registers ;size:1
                                           ;@delay_ms flag1                     Allocated to registers ;size:1
                                           ;@delay_ms flag2                     Allocated to registers ;size:1
                                           ;@delay_ms cur_dev_use               Allocated to registers ;size:1
                                           ;@delay_ms xms                       Allocated to registers ;size:2
                                           ;@delay_ms i                         Allocated to registers r0x103A r0x103B ;size:2
                                           ;@delay_ms INDF0                     Allocated to registers ;size:1
                                           ;@delay_ms INDF1                     Allocated to registers ;size:1
                                           ;@delay_ms INDF2                     Allocated to registers ;size:1
                                           ;@delay_ms HIBYTE                    Allocated to registers ;size:1
                                           ;@delay_ms FSR0                      Allocated to registers ;size:1
                                           ;@delay_ms FSR1                      Allocated to registers ;size:1
                                           ;@delay_ms PCL                       Allocated to registers ;size:1
                                           ;@delay_ms PFLAG                     Allocated to registers ;size:1
                                           ;@delay_ms MCR                       Allocated to registers ;size:1
                                           ;@delay_ms INDF3                     Allocated to registers ;size:1
                                           ;@delay_ms INTE                      Allocated to registers ;size:1
                                           ;@delay_ms INTF                      Allocated to registers ;size:1
                                           ;@delay_ms DRVCR                     Allocated to registers ;size:1
                                           ;@delay_ms P0KBCR                    Allocated to registers ;size:1
                                           ;@delay_ms P1KBCR                    Allocated to registers ;size:1
                                           ;@delay_ms P2KBCR                    Allocated to registers ;size:1
                                           ;@delay_ms IOP0                      Allocated to registers ;size:1
                                           ;@delay_ms OEP0                      Allocated to registers ;size:1
                                           ;@delay_ms PUP0                      Allocated to registers ;size:1
                                           ;@delay_ms PDP0                      Allocated to registers ;size:1
                                           ;@delay_ms IOP1                      Allocated to registers ;size:1
                                           ;@delay_ms OEP1                      Allocated to registers ;size:1
                                           ;@delay_ms PUP1                      Allocated to registers ;size:1
                                           ;@delay_ms PDP1                      Allocated to registers ;size:1
                                           ;@delay_ms T0CR                      Allocated to registers ;size:1
                                           ;@delay_ms T0CNT                     Allocated to registers ;size:1
                                           ;@delay_ms T0LOAD                    Allocated to registers ;size:1
                                           ;@delay_ms T0DATA                    Allocated to registers ;size:1
                                           ;@delay_ms T1CR                      Allocated to registers ;size:1
                                           ;@delay_ms T1CNT                     Allocated to registers ;size:1
                                           ;@delay_ms T1LOAD                    Allocated to registers ;size:1
                                           ;@delay_ms T1DATA                    Allocated to registers ;size:1
                                           ;@delay_ms T2CR                      Allocated to registers ;size:1
                                           ;@delay_ms T2CNT                     Allocated to registers ;size:1
                                           ;@delay_ms T2LOAD                    Allocated to registers ;size:1
                                           ;@delay_ms T2DATA                    Allocated to registers ;size:1
                                           ;@delay_ms T3CR                      Allocated to registers ;size:1
                                           ;@delay_ms T3CNT                     Allocated to registers ;size:1
                                           ;@delay_ms T3LOAD                    Allocated to registers ;size:1
                                           ;@delay_ms PWM0DR                    Allocated to registers ;size:1
                                           ;@delay_ms PWM1DR                    Allocated to registers ;size:1
                                           ;@delay_ms PWM2DR                    Allocated to registers ;size:1
                                           ;@delay_ms PWMCR0                    Allocated to registers ;size:1
                                           ;@delay_ms PWMCR1                    Allocated to registers ;size:1
                                           ;@delay_ms OSCMR                     Allocated to registers ;size:1
                                           ;@delay_ms LVDCR                     Allocated to registers ;size:1
                                           ;@delay_ms ADCR0                     Allocated to registers ;size:1
                                           ;@delay_ms ADCR1                     Allocated to registers ;size:1
                                           ;@delay_ms ADCR2                     Allocated to registers ;size:1
                                           ;@delay_ms OSADJCR                   Allocated to registers ;size:1
                                           ;@delay_ms ADRH                      Allocated to registers ;size:1
                                           ;@delay_ms ADRL                      Allocated to registers ;size:1
                                           ;@delay_ms P0ADCR                    Allocated to registers ;size:1
                                           ;@delay_ms P1ADCR                    Allocated to registers ;size:1
                                           ;@delay_ms IOP2                      Allocated to registers ;size:1
                                           ;@delay_ms OEP2                      Allocated to registers ;size:1
                                           ;@delay_ms PUP2                      Allocated to registers ;size:1
                                           ;@delay_ms PDP2                      Allocated to registers ;size:1
                                           ;@delay_ms PMOD                      Allocated to registers ;size:1
                                           ;@delay_ms PWMCR3                    Allocated to registers ;size:1
                                           ;@delay_ms PWMCR2                    Allocated to registers ;size:1
                                           ;@delay_ms PFRCCR                    Allocated to registers ;size:1
                                           ;@delay_ms PFRCCAL                   Allocated to registers ;size:1
                                           ;@delay_ms EECR                      Allocated to registers ;size:1
                                           ;@delay_ms EEPR                      Allocated to registers ;size:1
                                           ;@delay_ms EEAR                      Allocated to registers ;size:1
                                           ;@delay_ms EEDRH                     Allocated to registers ;size:1
                                           ;@delay_ms EEDRL                     Allocated to registers ;size:1
                                           ;@delay_ms DBGCR                     Allocated to registers ;size:1
                                           ;@delay_ms DBGPR                     Allocated to registers ;size:1
                                           ;@delay_ms HIRCCAL                   Allocated to registers ;size:1
                                           ;@end Allocation info for local variables in function 'delay_ms';
                                           ;@Allocation info for local variables in function 'delay_us'
                                           ;@delay_us xus                       Allocated to registers ;size:1
                                           ;@end Allocation info for local variables in function 'delay_us';
                                           ;@Allocation info for local variables in function 'CLR_RAM'
                                           ;@end Allocation info for local variables in function 'CLR_RAM';
                                           ;@Allocation info for local variables in function 'IO_Init'
                                           ;@end Allocation info for local variables in function 'IO_Init';
                                           ;@Allocation info for local variables in function 'adc_config'
                                           ;@end Allocation info for local variables in function 'adc_config';
                                           ;@Allocation info for local variables in function 'timer1_config'
                                           ;@end Allocation info for local variables in function 'timer1_config';
                                           ;@Allocation info for local variables in function 'timer3_config'
                                           ;@end Allocation info for local variables in function 'timer3_config';
                                           ;@Allocation info for local variables in function 'pwm_led_config'
                                           ;@end Allocation info for local variables in function 'pwm_led_config';
                                           ;@Allocation info for local variables in function 'start_send'
                                           ;@end Allocation info for local variables in function 'start_send';
                                           ;@Allocation info for local variables in function 'timer_100us_isr'
                                           ;@end Allocation info for local variables in function 'timer_100us_isr';
                                           ;@Allocation info for local variables in function 'Sys_Init'
                                           ;@end Allocation info for local variables in function 'Sys_Init';
                                           ;@Allocation info for local variables in function 'adc_channel_sel'
                                           ;@adc_channel_sel adc_channel               Allocated to registers r0x103E ;size:1
                                           ;@end Allocation info for local variables in function 'adc_channel_sel';
                                           ;@Allocation info for local variables in function 'adc_single_convert'
                                           ;@end Allocation info for local variables in function 'adc_single_convert';
                                           ;@Allocation info for local variables in function 'adc_get_val'
                                           ;@end Allocation info for local variables in function 'adc_get_val';
                                           ;@Allocation info for local variables in function 'get_key_id'
                                           ;@end Allocation info for local variables in function 'get_key_id';
                                           ;@Allocation info for local variables in function 'ad_key_event_10ms_isr'
                                           ;@ad_key_event_10ms_isr last_key_id               Allocated to registers ;size:1
                                           ;@ad_key_event_10ms_isr count                     Allocated to registers ;size:1
                                           ;@ad_key_event_10ms_isr filter_cnt                Allocated to registers ;size:1
                                           ;@ad_key_event_10ms_isr filter_key_id             Allocated to registers ;size:1
                                           ;@end Allocation info for local variables in function 'ad_key_event_10ms_isr';
                                           ;@Allocation info for local variables in function 'ad_key_event_10ms_isr'
                                           ;@ad_key_event_10ms_isr last_key_id               Allocated to registers ;size:1
                                           ;@ad_key_event_10ms_isr count                     Allocated to registers ;size:1
                                           ;@ad_key_event_10ms_isr filter_cnt                Allocated to registers ;size:1
                                           ;@ad_key_event_10ms_isr filter_key_id             Allocated to registers ;size:1
                                           ;@end Allocation info for local variables in function 'ad_key_event_10ms_isr';
                                           ;@Allocation info for local variables in function 'key_ad_key_event_deal'
                                           ;@end Allocation info for local variables in function 'key_ad_key_event_deal';
                                           ;@Allocation info for local variables in function 'bsp_i2c_tx_byte'
                                           ;@bsp_i2c_tx_byte dat                       Allocated to registers r0x1039 ;size:1
                                           ;@end Allocation info for local variables in function 'bsp_i2c_tx_byte';
                                           ;@Allocation info for local variables in function 'bsp_i2c_rx_ack'
                                           ;@bsp_i2c_rx_ack ret                       Allocated to registers r0x1039 ;size:1
                                           ;@end Allocation info for local variables in function 'bsp_i2c_rx_ack';
                                           ;@Allocation info for local variables in function 'TM1650_WriteByte'
                                           ;@TM1650_WriteByte data                      Allocated to registers r0x103C ;size:1
                                           ;@TM1650_WriteByte addr                      Allocated to registers r0x103B ;size:1
                                           ;@end Allocation info for local variables in function 'TM1650_WriteByte';
                                           ;@Allocation info for local variables in function 'TM1650_Init'
                                           ;@end Allocation info for local variables in function 'TM1650_Init';
                                           ;@Allocation info for local variables in function 'TM1650_DisplayTime'
                                           ;@end Allocation info for local variables in function 'TM1650_DisplayTime';
                                           ;@Allocation info for local variables in function 'main'
                                           ;@end Allocation info for local variables in function 'main';
                                           ;@Allocation info for local variables in function 'int_isr'
                                           ;@int_isr timer1_cnt                Allocated to registers ;size:2
                                           ;@int_isr ad_key_scan_time_cnt      Allocated to registers ;size:1
                                           ;@int_isr __set_time_cnt            Allocated to registers ;size:1
                                           ;@end Allocation info for local variables in function 'int_isr';
                                           ;@Allocation info for local variables in function 'int_isr'
                                           ;@int_isr timer1_cnt                Allocated to registers ;size:2
                                           ;@int_isr ad_key_scan_time_cnt      Allocated to registers ;size:1
                                           ;@int_isr __set_time_cnt            Allocated to registers ;size:1
                                           ;@end Allocation info for local variables in function 'int_isr';
                                           
                                           ;--------------------------------------------------------
                                           ; overlayable items in internal ram 
                                           ;--------------------------------------------------------
                                           ;	udata_ovr
                                           ;--------------------------------------------------------
                                           ; reset vector 
                                           ;--------------------------------------------------------
                                           STARTUP	code 0x0000
000000   a08d     goto    0x8d             	goto	_main
                                           ;--------------------------------------------------------
                                           ; interrupt and initialization code
                                           ;--------------------------------------------------------
                                           c_interrupt	code	0x8
                                           __sdcc_interrupt
                                           ;***
                                           ;  pBlock Stats: dbName = I
                                           ;***
                                           ;entry:  _int_isr	;Function start
                                           ; 0 exit points
                                           ;functions called:
                                           ;   _timer_100us_isr
                                           ;   _timer_100us_isr
                                           ;2 compiler assigned registers:
                                           ;   r0x1053
                                           ;   r0x1054
                                           ;; Starting pCode block
                                           _int_isr	;Function start
                                           ; 0 exit points
                                           ;	.line	1213; "MC32F7361.c"	__endasm;
                                           	;
000008   5652     movra   0x52             	movra	_abuf;
000009   4587     swapar  0x187            	swapar	_PFLAG;
00000a   5653     movra   0x53             	movra	_statusbuf;
                                           	
                                           ;	.line	1216; "MC32F7361.c"	if (T1IF & T1IE)
00000b   7622     clrr    0x22             	CLRR	r0x1053
00000c   f38b     jbclr   0x18b, 0x1       	JBCLR	_INTFbits,1
00000d   6622     incr    0x22             	INCR	r0x1053
00000e   7623     clrr    0x23             	CLRR	r0x1054
00000f   f38a     jbclr   0x18a, 0x1       	JBCLR	_INTEbits,1
000010   6623     incr    0x23             	INCR	r0x1054
000011   5823     movar   0x23             	MOVAR	r0x1054
000012   7a22     andra   0x22             	ANDRA	r0x1053
000013   3c00     movai   0                	MOVAI	0x00
000014   5c22     orar    0x22             	ORAR	r0x1053
000015   f587     jbclr   0x187, 0x2       	JBCLR	PFLAG,2
000016   a04b     goto    0x4b             	GOTO	_01022_DS_
                                           ;	.line	1219; "MC32F7361.c"	timer1_cnt++;
000017   662c     incr    0x2c             	INCR	_int_isr_timer1_cnt_131072_201
000018   f587     jbclr   0x187, 0x2       	JBCLR	PFLAG,2
000019   662d     incr    0x2d             	INCR	(_int_isr_timer1_cnt_131072_201 + 1)
                                           ;;unsigned compare: left < lit(0x400=1024), size=2
                                           ;	.line	1220; "MC32F7361.c"	if (timer1_cnt >= 1024)
00001a   3c04     movai   0x4              	MOVAI	0x04
00001b   482d     rsubar  0x2d             	RSUBAR	(_int_isr_timer1_cnt_131072_201 + 1)
00001c   e587     jbset   0x187, 0x2       	JBSET	PFLAG,2
00001d   a020     goto    0x20             	GOTO	_01089_DS_
00001e   3c00     movai   0                	MOVAI	0x00
00001f   482c     rsubar  0x2c             	RSUBAR	_int_isr_timer1_cnt_131072_201
                                           _01089_DS_
000020   e187     jbset   0x187, 0         	JBSET	PFLAG,0
000021   a04a     goto    0x4a             	GOTO	_01020_DS_
                                           ;;genSkipc:3291: created from rifx:013B5EFC
                                           ;	.line	1227; "MC32F7361.c"	timer1_cnt = 0;
000022   762c     clrr    0x2c             	CLRR	_int_isr_timer1_cnt_131072_201
000023   762d     clrr    0x2d             	CLRR	(_int_isr_timer1_cnt_131072_201 + 1)
                                           ;	.line	1229; "MC32F7361.c"	keep_time_cnt++;
000024   6651     incr    0x51             	INCR	_keep_time_cnt
                                           ;;unsigned compare: left < lit(0x6=6), size=1
                                           ;	.line	1230; "MC32F7361.c"	if (keep_time_cnt >= 6)
000025   3c06     movai   0x6              	MOVAI	0x06
000026   4851     rsubar  0x51             	RSUBAR	_keep_time_cnt
000027   e187     jbset   0x187, 0         	JBSET	PFLAG,0
000028   a04a     goto    0x4a             	GOTO	_01020_DS_
                                           ;;genSkipc:3291: created from rifx:013B5EFC
                                           ;	.line	1232; "MC32F7361.c"	keep_time_cnt = 0; // 
000029   7651     clrr    0x51             	CLRR	_keep_time_cnt
                                           ;	.line	1234; "MC32F7361.c"	unit++;
00002a   6660     incr    0x60             	INCR	_unit
                                           ;;unsigned compare: left < lit(0xA=10), size=1
                                           ;	.line	1235; "MC32F7361.c"	if (unit >= 10)
00002b   3c0a     movai   0xa              	MOVAI	0x0a
00002c   4860     rsubar  0x60             	RSUBAR	_unit
00002d   e187     jbset   0x187, 0         	JBSET	PFLAG,0
00002e   a04a     goto    0x4a             	GOTO	_01020_DS_
                                           ;;genSkipc:3291: created from rifx:013B5EFC
                                           ;	.line	1237; "MC32F7361.c"	unit = 0;
00002f   7660     clrr    0x60             	CLRR	_unit
                                           ;	.line	1238; "MC32F7361.c"	decade++;
000030   665f     incr    0x5f             	INCR	_decade
                                           ;;unsigned compare: left < lit(0x6=6), size=1
                                           ;	.line	1239; "MC32F7361.c"	if (decade >= 6)
000031   3c06     movai   0x6              	MOVAI	0x06
000032   485f     rsubar  0x5f             	RSUBAR	_decade
000033   e187     jbset   0x187, 0         	JBSET	PFLAG,0
000034   a04a     goto    0x4a             	GOTO	_01020_DS_
                                           ;;genSkipc:3291: created from rifx:013B5EFC
                                           ;	.line	1241; "MC32F7361.c"	decade = 0;
000035   765f     clrr    0x5f             	CLRR	_decade
                                           ;	.line	1242; "MC32F7361.c"	hundred++;
000036   665e     incr    0x5e             	INCR	_hundred
                                           ;;unsigned compare: left < lit(0x2=2), size=1
                                           ;	.line	1243; "MC32F7361.c"	if (thousand < 2)
000037   3c02     movai   0x2              	MOVAI	0x02
000038   485d     rsubar  0x5d             	RSUBAR	_thousand
000039   f187     jbclr   0x187, 0         	JBCLR	PFLAG,0
00003a   a042     goto    0x42             	GOTO	_01011_DS_
                                           ;;genSkipc:3291: created from rifx:013B5EFC
                                           ;;unsigned compare: left < lit(0xA=10), size=1
                                           ;	.line	1245; "MC32F7361.c"	if (hundred >= 10)
00003b   3c0a     movai   0xa              	MOVAI	0x0a
00003c   485e     rsubar  0x5e             	RSUBAR	_hundred
00003d   e187     jbset   0x187, 0         	JBSET	PFLAG,0
00003e   a04a     goto    0x4a             	GOTO	_01020_DS_
                                           ;;genSkipc:3291: created from rifx:013B5EFC
                                           ;	.line	1247; "MC32F7361.c"	hundred = 0;
00003f   765e     clrr    0x5e             	CLRR	_hundred
                                           ;	.line	1248; "MC32F7361.c"	thousand++;
000040   665d     incr    0x5d             	INCR	_thousand
000041   a04a     goto    0x4a             	GOTO	_01020_DS_
                                           ;;unsigned compare: left < lit(0x4=4), size=1
                                           _01011_DS_
                                           ;	.line	1253; "MC32F7361.c"	if (hundred >= 4)
000042   3c04     movai   0x4              	MOVAI	0x04
000043   485e     rsubar  0x5e             	RSUBAR	_hundred
000044   e187     jbset   0x187, 0         	JBSET	PFLAG,0
000045   a04a     goto    0x4a             	GOTO	_01020_DS_
                                           ;;genSkipc:3291: created from rifx:013B5EFC
                                           ;	.line	1255; "MC32F7361.c"	thousand = 0;
000046   765d     clrr    0x5d             	CLRR	_thousand
                                           ;	.line	1256; "MC32F7361.c"	hundred = 0;
000047   765e     clrr    0x5e             	CLRR	_hundred
                                           ;	.line	1257; "MC32F7361.c"	decade = 0;
000048   765f     clrr    0x5f             	CLRR	_decade
                                           ;	.line	1258; "MC32F7361.c"	unit = 0;
000049   7660     clrr    0x60             	CLRR	_unit
                                           _01020_DS_
                                           ;	.line	1265; "MC32F7361.c"	T1IF = 0;
00004a   d38b     bclr    0x18b, 0x1       	BCLR	_INTFbits,1
                                           _01022_DS_
                                           ;	.line	1268; "MC32F7361.c"	if (T3IF & T3IE)
00004b   7622     clrr    0x22             	CLRR	r0x1053
00004c   ff8b     jbclr   0x18b, 0x7       	JBCLR	_INTFbits,7
00004d   6622     incr    0x22             	INCR	r0x1053
00004e   7623     clrr    0x23             	CLRR	r0x1054
00004f   ff8a     jbclr   0x18a, 0x7       	JBCLR	_INTEbits,7
000050   6623     incr    0x23             	INCR	r0x1054
000051   5823     movar   0x23             	MOVAR	r0x1054
000052   7a22     andra   0x22             	ANDRA	r0x1053
000053   3c00     movai   0                	MOVAI	0x00
000054   5c22     orar    0x22             	ORAR	r0x1053
000055   f587     jbclr   0x187, 0x2       	JBCLR	PFLAG,2
000056   a088     goto    0x88             	GOTO	_01034_DS_
                                           ;	.line	1274; "MC32F7361.c"	ad_key_scan_time_cnt++;
000057   662e     incr    0x2e             	INCR	_int_isr_ad_key_scan_time_cnt_196608_211
                                           ;;unsigned compare: left < lit(0x64=100), size=1
                                           ;	.line	1275; "MC32F7361.c"	if (ad_key_scan_time_cnt >= 100) // 100us * 100 == 10ms
000058   3c64     movai   0x64             	MOVAI	0x64
000059   482e     rsubar  0x2e             	RSUBAR	_int_isr_ad_key_scan_time_cnt_196608_211
00005a   e187     jbset   0x187, 0         	JBSET	PFLAG,0
00005b   a05e     goto    0x5e             	GOTO	_01024_DS_
                                           ;;genSkipc:3291: created from rifx:013B5EFC
                                           ;	.line	1277; "MC32F7361.c"	flag_10ms = 1; // ad
00005c   c061     bset    0x61, 0          	BSET	_flag1,0
                                           ;	.line	1278; "MC32F7361.c"	ad_key_scan_time_cnt = 0;
00005d   762e     clrr    0x2e             	CLRR	_int_isr_ad_key_scan_time_cnt_196608_211
                                           _01024_DS_
                                           ;	.line	1284; "MC32F7361.c"	__set_time_cnt++;
00005e   662f     incr    0x2f             	INCR	_int_isr___set_time_cnt_196608_213
                                           ;;unsigned compare: left < lit(0xA=10), size=1
                                           ;	.line	1286; "MC32F7361.c"	if (__set_time_cnt >= 10) // 1ms
00005f   3c0a     movai   0xa              	MOVAI	0x0a
000060   482f     rsubar  0x2f             	RSUBAR	_int_isr___set_time_cnt_196608_213
000061   e187     jbset   0x187, 0         	JBSET	PFLAG,0
000062   a078     goto    0x78             	GOTO	_01030_DS_
                                           ;;genSkipc:3291: created from rifx:013B5EFC
                                           ;	.line	1288; "MC32F7361.c"	__set_time_cnt = 0;
000063   762f     clrr    0x2f             	CLRR	_int_isr___set_time_cnt_196608_213
                                           ;	.line	1289; "MC32F7361.c"	if (STATUS_SET_TIME_HOUR == cur_set_time_status ||
000064   585c     movar   0x5c             	MOVAR	_cur_set_time_status
000065   3901     xorai   0x1              	XORAI	0x01
000066   e587     jbset   0x187, 0x2       	JBSET	PFLAG,2
000067   a069     goto    0x69             	GOTO	_01098_DS_
000068   a06d     goto    0x6d             	GOTO	_01025_DS_
                                           _01098_DS_
                                           ;	.line	1290; "MC32F7361.c"	STATUS_SET_TIME_MIN == cur_set_time_status)
000069   585c     movar   0x5c             	MOVAR	_cur_set_time_status
00006a   3902     xorai   0x2              	XORAI	0x02
00006b   e587     jbset   0x187, 0x2       	JBSET	PFLAG,2
00006c   a074     goto    0x74             	GOTO	_01026_DS_
                                           _01025_DS_
                                           ;	.line	1292; "MC32F7361.c"	set_time_delay_cnt++;
00006d   664c     incr    0x4c             	INCR	_set_time_delay_cnt
00006e   f587     jbclr   0x187, 0x2       	JBCLR	PFLAG,2
00006f   664d     incr    0x4d             	INCR	(_set_time_delay_cnt + 1)
                                           ;	.line	1293; "MC32F7361.c"	set_time_done_cnt++;
000070   664e     incr    0x4e             	INCR	_set_time_done_cnt
000071   f587     jbclr   0x187, 0x2       	JBCLR	PFLAG,2
000072   664f     incr    0x4f             	INCR	(_set_time_done_cnt + 1)
000073   a078     goto    0x78             	GOTO	_01030_DS_
                                           _01026_DS_
                                           ;	.line	1297; "MC32F7361.c"	set_time_delay_cnt = 0;
000074   764c     clrr    0x4c             	CLRR	_set_time_delay_cnt
000075   764d     clrr    0x4d             	CLRR	(_set_time_delay_cnt + 1)
                                           ;	.line	1298; "MC32F7361.c"	set_time_done_cnt = 0;
000076   764e     clrr    0x4e             	CLRR	_set_time_done_cnt
000077   764f     clrr    0x4f             	CLRR	(_set_time_done_cnt + 1)
                                           _01030_DS_
                                           ;	.line	1327; "MC32F7361.c"	low_power_time_cnt++;
000078   6642     incr    0x42             	INCR	_low_power_time_cnt
000079   f587     jbclr   0x187, 0x2       	JBCLR	PFLAG,2
00007a   6643     incr    0x43             	INCR	(_low_power_time_cnt + 1)
                                           ;;unsigned compare: left < lit(0x3E8=1000), size=2
                                           ;	.line	1328; "MC32F7361.c"	if (low_power_time_cnt >= ENTER_LOW_POWER_PERIOD_TIME)
00007b   3c03     movai   0x3              	MOVAI	0x03
00007c   4843     rsubar  0x43             	RSUBAR	(_low_power_time_cnt + 1)
00007d   e587     jbset   0x187, 0x2       	JBSET	PFLAG,2
00007e   a081     goto    0x81             	GOTO	_01099_DS_
00007f   3ce8     movai   0xe8             	MOVAI	0xe8
000080   4842     rsubar  0x42             	RSUBAR	_low_power_time_cnt
                                           _01099_DS_
000081   e187     jbset   0x187, 0         	JBSET	PFLAG,0
000082   a086     goto    0x86             	GOTO	_01032_DS_
                                           ;;genSkipc:3291: created from rifx:013B5EFC
                                           ;	.line	1330; "MC32F7361.c"	flag_is_enter_low_power = 1;
000083   cc61     bset    0x61, 0x6        	BSET	_flag1,6
                                           ;	.line	1331; "MC32F7361.c"	low_power_time_cnt = 0;
000084   7642     clrr    0x42             	CLRR	_low_power_time_cnt
000085   7643     clrr    0x43             	CLRR	(_low_power_time_cnt + 1)
                                           _01032_DS_
                                           ;	.line	1341; "MC32F7361.c"	timer_100us_isr();
000086   848c     call    0x48c            	CALL	_timer_100us_isr
                                           ;	.line	1343; "MC32F7361.c"	T3IF = 0;
000087   df8b     bclr    0x18b, 0x7       	BCLR	_INTFbits,7
                                           _01034_DS_
                                           ;	.line	1351; "MC32F7361.c"	__endasm;
                                           	;
000088   4453     swapar  0x53             	swapar	_statusbuf;
000089   5787     movra   0x187            	movra	_PFLAG;
00008a   4652     swapr   0x52             	swapr	_abuf;
00008b   4452     swapar  0x52             	swapar	_abuf;
                                           	
                                           END_OF_INTERRUPT
                                           ;	.line	1352; "MC32F7361.c"	}
00008c   000d     retie                    	RETIE	
                                           
                                           ;--------------------------------------------------------
                                           ; code
                                           ;--------------------------------------------------------
                                           code_MC32F7361	code
                                           ;***
                                           ;  pBlock Stats: dbName = M
                                           ;***
                                           ;entry:  _main	;Function start
                                           ; 2 exit points
                                           ;has an exit
                                           ;functions called:
                                           ;   _Sys_Init
                                           ;   _adc_channel_sel
                                           ;   _key_ad_key_event_deal
                                           ;   _TM1650_DisplayTime
                                           ;   _TM1650_WriteByte
                                           ;   _TM1650_WriteByte
                                           ;   _TM1650_DisplayTime
                                           ;   _TM1650_WriteByte
                                           ;   _TM1650_WriteByte
                                           ;   _TM1650_DisplayTime
                                           ;   _start_send
                                           ;   _start_send
                                           ;   _Sys_Init
                                           ;   _adc_channel_sel
                                           ;   _key_ad_key_event_deal
                                           ;   _TM1650_DisplayTime
                                           ;   _TM1650_WriteByte
                                           ;   _TM1650_WriteByte
                                           ;   _TM1650_DisplayTime
                                           ;   _TM1650_WriteByte
                                           ;   _TM1650_WriteByte
                                           ;   _TM1650_DisplayTime
                                           ;   _start_send
                                           ;   _start_send
                                           ;2 compiler assigned registers:
                                           ;   STK00
                                           ;   r0x1044
                                           ;; Starting pCode block
                                           _main	;Function start
                                           ; 2 exit points
                                           ;	.line	1013; "MC32F7361.c"	Sys_Init();
00008d   8479     call    0x479            	CALL	_Sys_Init
                                           ;	.line	1015; "MC32F7361.c"	ad_key_event = KEY_EVENT_NONE;
00008e   3c04     movai   0x4              	MOVAI	0x04
00008f   5659     movra   0x59             	MOVRA	_ad_key_event
                                           ;	.line	1016; "MC32F7361.c"	cur_key_id = AD_KEY_ID_NONE;
000090   3c06     movai   0x6              	MOVAI	0x06
000091   565a     movra   0x5a             	MOVRA	_cur_key_id
                                           ;	.line	1017; "MC32F7361.c"	cur_w_pwm_duty = 255;
000092   3cff     movai   0xff             	MOVAI	0xff
000093   5655     movra   0x55             	MOVRA	_cur_w_pwm_duty
                                           ;	.line	1018; "MC32F7361.c"	cur_y_pwm_duty = 255;
000094   3cff     movai   0xff             	MOVAI	0xff
000095   5656     movra   0x56             	MOVRA	_cur_y_pwm_duty
                                           ;;gen.c:6570: size=0, offset=0, AOP_TYPE(res)=8
                                           ;	.line	1020; "MC32F7361.c"	send_buf[0] = 0xA5;
000096   3ca5     movai   0xa5             	MOVAI	0xa5
000097   563f     movra   0x3f             	MOVRA	(_send_buf + 0)
                                           _00948_DS_
                                           ;	.line	1026; "MC32F7361.c"	adc_channel_sel(ADC_CHANNEL_KEY);
000098   3c01     movai   0x1              	MOVAI	0x01
000099   8462     call    0x462            	CALL	_adc_channel_sel
                                           ;	.line	1027; "MC32F7361.c"	key_ad_key_event_deal();
00009a   81a9     call    0x1a9            	CALL	_key_ad_key_event_deal
                                           ;	.line	1086; "MC32F7361.c"	if (STATUS_SET_TIME_HOUR == cur_set_time_status)
00009b   585c     movar   0x5c             	MOVAR	_cur_set_time_status
00009c   3901     xorai   0x1              	XORAI	0x01
00009d   e587     jbset   0x187, 0x2       	JBSET	PFLAG,2
00009e   a0c8     goto    0xc8             	GOTO	_00940_DS_
                                           ;;unsigned compare: left < lit(0x1F4=500), size=2
                                           ;	.line	1088; "MC32F7361.c"	if (set_time_delay_cnt < 500)
00009f   3c01     movai   0x1              	MOVAI	0x01
0000a0   484d     rsubar  0x4d             	RSUBAR	(_set_time_delay_cnt + 1)
0000a1   e587     jbset   0x187, 0x2       	JBSET	PFLAG,2
0000a2   a0a5     goto    0xa5             	GOTO	_00996_DS_
0000a3   3cf4     movai   0xf4             	MOVAI	0xf4
0000a4   484c     rsubar  0x4c             	RSUBAR	_set_time_delay_cnt
                                           _00996_DS_
0000a5   f187     jbclr   0x187, 0         	JBCLR	PFLAG,0
0000a6   a0a9     goto    0xa9             	GOTO	_00925_DS_
                                           ;;genSkipc:3291: created from rifx:013B5EFC
                                           ;	.line	1090; "MC32F7361.c"	TM1650_DisplayTime();
0000a7   810b     call    0x10b            	CALL	_TM1650_DisplayTime
0000a8   a0bb     goto    0xbb             	GOTO	_00926_DS_
                                           _00925_DS_
                                           ;	.line	1094; "MC32F7361.c"	TM1650_WriteByte(0x6E, 0x00);        // 4
0000a9   3c00     movai   0                	MOVAI	0x00
0000aa   5606     movra   0x6              	MOVRA	STK00
0000ab   3c6e     movai   0x6e             	MOVAI	0x6e
0000ac   8163     call    0x163            	CALL	_TM1650_WriteByte
                                           ;	.line	1095; "MC32F7361.c"	TM1650_WriteByte(0x6C, 0x00 | 0x04); // 3
0000ad   3c04     movai   0x4              	MOVAI	0x04
0000ae   5606     movra   0x6              	MOVRA	STK00
0000af   3c6c     movai   0x6c             	MOVAI	0x6c
0000b0   8163     call    0x163            	CALL	_TM1650_WriteByte
                                           ;;unsigned compare: left < lit(0x3E7=999), size=2
                                           ;	.line	1097; "MC32F7361.c"	if (set_time_delay_cnt >= 1000 - 1)
0000b1   3c03     movai   0x3              	MOVAI	0x03
0000b2   484d     rsubar  0x4d             	RSUBAR	(_set_time_delay_cnt + 1)
0000b3   e587     jbset   0x187, 0x2       	JBSET	PFLAG,2
0000b4   a0b7     goto    0xb7             	GOTO	_00997_DS_
0000b5   3ce7     movai   0xe7             	MOVAI	0xe7
0000b6   484c     rsubar  0x4c             	RSUBAR	_set_time_delay_cnt
                                           _00997_DS_
0000b7   e187     jbset   0x187, 0         	JBSET	PFLAG,0
0000b8   a0bb     goto    0xbb             	GOTO	_00926_DS_
                                           ;;genSkipc:3291: created from rifx:013B5EFC
                                           ;	.line	1099; "MC32F7361.c"	set_time_delay_cnt = 0;
0000b9   764c     clrr    0x4c             	CLRR	_set_time_delay_cnt
0000ba   764d     clrr    0x4d             	CLRR	(_set_time_delay_cnt + 1)
                                           ;;unsigned compare: left < lit(0x1388=5000), size=2
                                           _00926_DS_
                                           ;	.line	1103; "MC32F7361.c"	if (set_time_done_cnt >= 5000)
0000bb   3c13     movai   0x13             	MOVAI	0x13
0000bc   484f     rsubar  0x4f             	RSUBAR	(_set_time_done_cnt + 1)
0000bd   e587     jbset   0x187, 0x2       	JBSET	PFLAG,2
0000be   a0c1     goto    0xc1             	GOTO	_00998_DS_
0000bf   3c88     movai   0x88             	MOVAI	0x88
0000c0   484e     rsubar  0x4e             	RSUBAR	_set_time_done_cnt
                                           _00998_DS_
0000c1   e187     jbset   0x187, 0         	JBSET	PFLAG,0
0000c2   a0f5     goto    0xf5             	GOTO	_00941_DS_
                                           ;;genSkipc:3291: created from rifx:013B5EFC
                                           ;	.line	1105; "MC32F7361.c"	cur_set_time_status = STATUS_SET_TIME_MIN;
0000c3   3c02     movai   0x2              	MOVAI	0x02
0000c4   565c     movra   0x5c             	MOVRA	_cur_set_time_status
                                           ;	.line	1106; "MC32F7361.c"	set_time_done_cnt = 0;
0000c5   764e     clrr    0x4e             	CLRR	_set_time_done_cnt
0000c6   764f     clrr    0x4f             	CLRR	(_set_time_done_cnt + 1)
0000c7   a0f5     goto    0xf5             	GOTO	_00941_DS_
                                           _00940_DS_
                                           ;	.line	1109; "MC32F7361.c"	else if (STATUS_SET_TIME_MIN == cur_set_time_status)
0000c8   585c     movar   0x5c             	MOVAR	_cur_set_time_status
0000c9   3902     xorai   0x2              	XORAI	0x02
0000ca   e587     jbset   0x187, 0x2       	JBSET	PFLAG,2
0000cb   a0f4     goto    0xf4             	GOTO	_00937_DS_
                                           ;;unsigned compare: left < lit(0x1F4=500), size=2
                                           ;	.line	1111; "MC32F7361.c"	if (set_time_delay_cnt < 500)
0000cc   3c01     movai   0x1              	MOVAI	0x01
0000cd   484d     rsubar  0x4d             	RSUBAR	(_set_time_delay_cnt + 1)
0000ce   e587     jbset   0x187, 0x2       	JBSET	PFLAG,2
0000cf   a0d2     goto    0xd2             	GOTO	_00999_DS_
0000d0   3cf4     movai   0xf4             	MOVAI	0xf4
0000d1   484c     rsubar  0x4c             	RSUBAR	_set_time_delay_cnt
                                           _00999_DS_
0000d2   f187     jbclr   0x187, 0         	JBCLR	PFLAG,0
0000d3   a0d6     goto    0xd6             	GOTO	_00932_DS_
                                           ;;genSkipc:3291: created from rifx:013B5EFC
                                           ;	.line	1113; "MC32F7361.c"	TM1650_DisplayTime();
0000d4   810b     call    0x10b            	CALL	_TM1650_DisplayTime
0000d5   a0e8     goto    0xe8             	GOTO	_00933_DS_
                                           _00932_DS_
                                           ;	.line	1117; "MC32F7361.c"	TM1650_WriteByte(0x6A, 0x00); // 2
0000d6   3c00     movai   0                	MOVAI	0x00
0000d7   5606     movra   0x6              	MOVRA	STK00
0000d8   3c6a     movai   0x6a             	MOVAI	0x6a
0000d9   8163     call    0x163            	CALL	_TM1650_WriteByte
                                           ;	.line	1118; "MC32F7361.c"	TM1650_WriteByte(0x68, 0x00); // 1
0000da   3c00     movai   0                	MOVAI	0x00
0000db   5606     movra   0x6              	MOVRA	STK00
0000dc   3c68     movai   0x68             	MOVAI	0x68
0000dd   8163     call    0x163            	CALL	_TM1650_WriteByte
                                           ;;unsigned compare: left < lit(0x3E7=999), size=2
                                           ;	.line	1120; "MC32F7361.c"	if (set_time_delay_cnt >= 1000 - 1)
0000de   3c03     movai   0x3              	MOVAI	0x03
0000df   484d     rsubar  0x4d             	RSUBAR	(_set_time_delay_cnt + 1)
0000e0   e587     jbset   0x187, 0x2       	JBSET	PFLAG,2
0000e1   a0e4     goto    0xe4             	GOTO	_01000_DS_
0000e2   3ce7     movai   0xe7             	MOVAI	0xe7
0000e3   484c     rsubar  0x4c             	RSUBAR	_set_time_delay_cnt
                                           _01000_DS_
0000e4   e187     jbset   0x187, 0         	JBSET	PFLAG,0
0000e5   a0e8     goto    0xe8             	GOTO	_00933_DS_
                                           ;;genSkipc:3291: created from rifx:013B5EFC
                                           ;	.line	1122; "MC32F7361.c"	set_time_delay_cnt = 0;
0000e6   764c     clrr    0x4c             	CLRR	_set_time_delay_cnt
0000e7   764d     clrr    0x4d             	CLRR	(_set_time_delay_cnt + 1)
                                           ;;unsigned compare: left < lit(0x1388=5000), size=2
                                           _00933_DS_
                                           ;	.line	1126; "MC32F7361.c"	if (set_time_done_cnt >= 5000)
0000e8   3c13     movai   0x13             	MOVAI	0x13
0000e9   484f     rsubar  0x4f             	RSUBAR	(_set_time_done_cnt + 1)
0000ea   e587     jbset   0x187, 0x2       	JBSET	PFLAG,2
0000eb   a0ee     goto    0xee             	GOTO	_01001_DS_
0000ec   3c88     movai   0x88             	MOVAI	0x88
0000ed   484e     rsubar  0x4e             	RSUBAR	_set_time_done_cnt
                                           _01001_DS_
0000ee   e187     jbset   0x187, 0         	JBSET	PFLAG,0
0000ef   a0f5     goto    0xf5             	GOTO	_00941_DS_
                                           ;;genSkipc:3291: created from rifx:013B5EFC
                                           ;	.line	1128; "MC32F7361.c"	cur_set_time_status = STATUS_NONE;
0000f0   765c     clrr    0x5c             	CLRR	_cur_set_time_status
                                           ;	.line	1129; "MC32F7361.c"	set_time_done_cnt = 0;
0000f1   764e     clrr    0x4e             	CLRR	_set_time_done_cnt
0000f2   764f     clrr    0x4f             	CLRR	(_set_time_done_cnt + 1)
0000f3   a0f5     goto    0xf5             	GOTO	_00941_DS_
                                           _00937_DS_
                                           ;	.line	1134; "MC32F7361.c"	TM1650_DisplayTime(); // 
0000f4   810b     call    0x10b            	CALL	_TM1650_DisplayTime
                                           _00941_DS_
                                           ;	.line	1137; "MC32F7361.c"	if (flag_is_send_data)
0000f5   e861     jbset   0x61, 0x4        	JBSET	_flag1,4
0000f6   a100     goto    0x100            	GOTO	_00945_DS_
                                           ;	.line	1139; "MC32F7361.c"	send_buf[2] = ~send_buf[1];
0000f7   5840     movar   0x40             	MOVAR	(_send_buf + 1)
0000f8   5621     movra   0x21             	MOVRA	r0x1044
0000f9   7021     comar   0x21             	COMAR	r0x1044
0000fa   5621     movra   0x21             	MOVRA	r0x1044
                                           ;;gen.c:6570: size=0, offset=0, AOP_TYPE(res)=8
0000fb   5821     movar   0x21             	MOVAR	r0x1044
0000fc   5641     movra   0x41             	MOVRA	(_send_buf + 2)
                                           ;	.line	1140; "MC32F7361.c"	start_send();
0000fd   8628     call    0x628            	CALL	_start_send
                                           ;	.line	1141; "MC32F7361.c"	flag_is_send_data = 0;
0000fe   d861     bclr    0x61, 0x4        	BCLR	_flag1,4
0000ff   a108     goto    0x108            	GOTO	_00946_DS_
                                           _00945_DS_
                                           ;	.line	1143; "MC32F7361.c"	else if (flag_recv_time_ack)
000100   e661     jbset   0x61, 0x3        	JBSET	_flag1,3
000101   a108     goto    0x108            	GOTO	_00946_DS_
                                           ;;gen.c:6570: size=0, offset=0, AOP_TYPE(res)=8
                                           ;	.line	1145; "MC32F7361.c"	send_buf[1] = 0x83;
000102   3c83     movai   0x83             	MOVAI	0x83
000103   5640     movra   0x40             	MOVRA	(_send_buf + 1)
                                           ;;gen.c:6570: size=0, offset=0, AOP_TYPE(res)=8
                                           ;	.line	1146; "MC32F7361.c"	send_buf[2] = 0x7C;
000104   3c7c     movai   0x7c             	MOVAI	0x7c
000105   5641     movra   0x41             	MOVRA	(_send_buf + 2)
                                           ;	.line	1147; "MC32F7361.c"	start_send();
000106   8628     call    0x628            	CALL	_start_send
                                           ;	.line	1148; "MC32F7361.c"	flag_recv_time_ack = 0;
000107   d661     bclr    0x61, 0x3        	BCLR	_flag1,3
                                           _00946_DS_
                                           ;	.line	1197; "MC32F7361.c"	__endasm;
                                           	;
000108   000e     clrwdt                   	clrwdt;
                                           	
000109   a098     goto    0x98             	GOTO	_00948_DS_
                                           ;	.line	1200; "MC32F7361.c"	}
00010a   000c     return                   	RETURN	
                                           ; exit point of _main
                                           
                                           ;***
                                           ;  pBlock Stats: dbName = C
                                           ;***
                                           ;entry:  _TM1650_DisplayTime	;Function start
                                           ; 2 exit points
                                           ;has an exit
                                           ;functions called:
                                           ;   __gptrget1
                                           ;   _TM1650_WriteByte
                                           ;   __gptrget1
                                           ;   _TM1650_WriteByte
                                           ;   __gptrget1
                                           ;   _TM1650_WriteByte
                                           ;   __gptrget1
                                           ;   _TM1650_WriteByte
                                           ;   __gptrget1
                                           ;   _TM1650_WriteByte
                                           ;   __gptrget1
                                           ;   _TM1650_WriteByte
                                           ;   __gptrget1
                                           ;   _TM1650_WriteByte
                                           ;   __gptrget1
                                           ;   _TM1650_WriteByte
                                           ;6 compiler assigned registers:
                                           ;   r0x103D
                                           ;   r0x103E
                                           ;   STK01
                                           ;   STK00
                                           ;   r0x103F
                                           ;   r0x1040
                                           ;; Starting pCode block
                                           _TM1650_DisplayTime	;Function start
                                           ; 2 exit points
                                           ;	.line	999; "MC32F7361.c"	TM1650_WriteByte(0x68, NUM_TABLE[unit]);           // 1
00010b   5860     movar   0x60             	MOVAR	_unit
00010c   3f01     addai   0x1              	ADDAI	(_NUM_TABLE + 0)
00010d   560c     movra   0xc              	MOVRA	r0x103D
00010e   3c07     movai   0x7              	MOVAI	high (_NUM_TABLE + 0)
00010f   f187     jbclr   0x187, 0         	JBCLR	PFLAG,0
000110   3f01     addai   0x1              	ADDAI	0x01
000111   5617     movra   0x17             	MOVRA	r0x103E
000112   580c     movar   0xc              	MOVAR	r0x103D
000113   5605     movra   0x5              	MOVRA	STK01
000114   5817     movar   0x17             	MOVAR	r0x103E
000115   5606     movra   0x6              	MOVRA	STK00
000116   3c80     movai   0x80             	MOVAI	0x80
000117   86ef     call    0x6ef            	CALL	__gptrget1
000118   561c     movra   0x1c             	MOVRA	r0x103F
000119   581c     movar   0x1c             	MOVAR	r0x103F
00011a   5606     movra   0x6              	MOVRA	STK00
00011b   3c68     movai   0x68             	MOVAI	0x68
00011c   8163     call    0x163            	CALL	_TM1650_WriteByte
                                           ;	.line	1000; "MC32F7361.c"	TM1650_WriteByte(0x6A, NUM_TABLE[decade]);         // 2
00011d   585f     movar   0x5f             	MOVAR	_decade
00011e   3f01     addai   0x1              	ADDAI	(_NUM_TABLE + 0)
00011f   560c     movra   0xc              	MOVRA	r0x103D
000120   3c07     movai   0x7              	MOVAI	high (_NUM_TABLE + 0)
000121   f187     jbclr   0x187, 0         	JBCLR	PFLAG,0
000122   3f01     addai   0x1              	ADDAI	0x01
000123   5617     movra   0x17             	MOVRA	r0x103E
000124   580c     movar   0xc              	MOVAR	r0x103D
000125   5605     movra   0x5              	MOVRA	STK01
000126   5817     movar   0x17             	MOVAR	r0x103E
000127   5606     movra   0x6              	MOVRA	STK00
000128   3c80     movai   0x80             	MOVAI	0x80
000129   86ef     call    0x6ef            	CALL	__gptrget1
00012a   561c     movra   0x1c             	MOVRA	r0x103F
00012b   581c     movar   0x1c             	MOVAR	r0x103F
00012c   5606     movra   0x6              	MOVRA	STK00
00012d   3c6a     movai   0x6a             	MOVAI	0x6a
00012e   8163     call    0x163            	CALL	_TM1650_WriteByte
                                           ;	.line	1001; "MC32F7361.c"	TM1650_WriteByte(0x6C, NUM_TABLE[hundred] | 0x04); // 3
00012f   585e     movar   0x5e             	MOVAR	_hundred
000130   3f01     addai   0x1              	ADDAI	(_NUM_TABLE + 0)
000131   560c     movra   0xc              	MOVRA	r0x103D
000132   3c07     movai   0x7              	MOVAI	high (_NUM_TABLE + 0)
000133   f187     jbclr   0x187, 0         	JBCLR	PFLAG,0
000134   3f01     addai   0x1              	ADDAI	0x01
000135   5617     movra   0x17             	MOVRA	r0x103E
000136   580c     movar   0xc              	MOVAR	r0x103D
000137   5605     movra   0x5              	MOVRA	STK01
000138   5817     movar   0x17             	MOVAR	r0x103E
000139   5606     movra   0x6              	MOVRA	STK00
00013a   3c80     movai   0x80             	MOVAI	0x80
00013b   86ef     call    0x6ef            	CALL	__gptrget1
00013c   561c     movra   0x1c             	MOVRA	r0x103F
00013d   3c04     movai   0x4              	MOVAI	0x04
00013e   5c1c     orar    0x1c             	ORAR	r0x103F
00013f   560c     movra   0xc              	MOVRA	r0x103D
000140   580c     movar   0xc              	MOVAR	r0x103D
000141   5606     movra   0x6              	MOVRA	STK00
000142   3c6c     movai   0x6c             	MOVAI	0x6c
000143   8163     call    0x163            	CALL	_TM1650_WriteByte
                                           ;	.line	1002; "MC32F7361.c"	TM1650_WriteByte(0x6E, NUM_TABLE[thousand]);       // 4
000144   585d     movar   0x5d             	MOVAR	_thousand
000145   3f01     addai   0x1              	ADDAI	(_NUM_TABLE + 0)
000146   560c     movra   0xc              	MOVRA	r0x103D
000147   3c07     movai   0x7              	MOVAI	high (_NUM_TABLE + 0)
000148   f187     jbclr   0x187, 0         	JBCLR	PFLAG,0
000149   3f01     addai   0x1              	ADDAI	0x01
00014a   561c     movra   0x1c             	MOVRA	r0x103F
00014b   580c     movar   0xc              	MOVAR	r0x103D
00014c   5605     movra   0x5              	MOVRA	STK01
00014d   581c     movar   0x1c             	MOVAR	r0x103F
00014e   5606     movra   0x6              	MOVRA	STK00
00014f   3c80     movai   0x80             	MOVAI	0x80
000150   86ef     call    0x6ef            	CALL	__gptrget1
000151   5620     movra   0x20             	MOVRA	r0x1040
000152   5820     movar   0x20             	MOVAR	r0x1040
000153   5606     movra   0x6              	MOVRA	STK00
000154   3c6e     movai   0x6e             	MOVAI	0x6e
000155   8163     call    0x163            	CALL	_TM1650_WriteByte
                                           ;	.line	1003; "MC32F7361.c"	}
000156   000c     return                   	RETURN	
                                           ; exit point of _TM1650_DisplayTime
                                           
                                           ;***
                                           ;  pBlock Stats: dbName = C
                                           ;***
                                           ;entry:  _TM1650_Init	;Function start
                                           ; 2 exit points
                                           ;has an exit
                                           ;functions called:
                                           ;   _delay_ms
                                           ;   _TM1650_WriteByte
                                           ;   _delay_ms
                                           ;   _TM1650_WriteByte
                                           ;1 compiler assigned register :
                                           ;   STK00
                                           ;; Starting pCode block
                                           _TM1650_Init	;Function start
                                           ; 2 exit points
                                           ;	.line	980; "MC32F7361.c"	I2C_SDA_OUT();
000157   c991     bset    0x191, 0x4       	BSET	_OEP0bits,4
                                           ;	.line	981; "MC32F7361.c"	I2C_SCL_OUT();
000158   c395     bset    0x195, 0x1       	BSET	_OEP1bits,1
                                           ;	.line	982; "MC32F7361.c"	I2C_SDA_H();
000159   c990     bset    0x190, 0x4       	BSET	_IOP0bits,4
                                           ;	.line	983; "MC32F7361.c"	delay_ms(5);
00015a   3c05     movai   0x5              	MOVAI	0x05
00015b   5606     movra   0x6              	MOVRA	STK00
00015c   3c00     movai   0                	MOVAI	0x00
00015d   86a6     call    0x6a6            	CALL	_delay_ms
                                           ;	.line	989; "MC32F7361.c"	TM1650_WriteByte(0x48, TM1650_DISPLAY_ON | TM1650_BRIGHT_MAX);
00015e   3c71     movai   0x71             	MOVAI	0x71
00015f   5606     movra   0x6              	MOVRA	STK00
000160   3c48     movai   0x48             	MOVAI	0x48
000161   8163     call    0x163            	CALL	_TM1650_WriteByte
                                           ;	.line	993; "MC32F7361.c"	}
000162   000c     return                   	RETURN	
                                           ; exit point of _TM1650_Init
                                           
                                           ;***
                                           ;  pBlock Stats: dbName = C
                                           ;***
                                           ;entry:  _TM1650_WriteByte	;Function start
                                           ; 2 exit points
                                           ;has an exit
                                           ;functions called:
                                           ;   _delay_us
                                           ;   _delay_us
                                           ;   _bsp_i2c_tx_byte
                                           ;   _bsp_i2c_rx_ack
                                           ;   _bsp_i2c_tx_byte
                                           ;   _bsp_i2c_rx_ack
                                           ;   _delay_us
                                           ;   _delay_us
                                           ;   _delay_us
                                           ;   _delay_us
                                           ;   _bsp_i2c_tx_byte
                                           ;   _bsp_i2c_rx_ack
                                           ;   _bsp_i2c_tx_byte
                                           ;   _bsp_i2c_rx_ack
                                           ;   _delay_us
                                           ;   _delay_us
                                           ;3 compiler assigned registers:
                                           ;   r0x103B
                                           ;   STK00
                                           ;   r0x103C
                                           ;; Starting pCode block
                                           _TM1650_WriteByte	;Function start
                                           ; 2 exit points
                                           ;	.line	949; "MC32F7361.c"	void TM1650_WriteByte(uint8_t addr, uint8_t data)
000163   560a     movra   0xa              	MOVRA	r0x103B
000164   5806     movar   0x6              	MOVAR	STK00
000165   560b     movra   0xb              	MOVRA	r0x103C
                                           ;	.line	951; "MC32F7361.c"	cur_dev_use = DEV_USE_TM1650;
000166   3c01     movai   0x1              	MOVAI	0x01
000167   5663     movra   0x63             	MOVRA	_cur_dev_use
                                           ;	.line	953; "MC32F7361.c"	I2C_SDA_OUT();
000168   c991     bset    0x191, 0x4       	BSET	_OEP0bits,4
                                           ;	.line	954; "MC32F7361.c"	I2C_SCL_OUT();
000169   c395     bset    0x195, 0x1       	BSET	_OEP1bits,1
                                           ;	.line	955; "MC32F7361.c"	I2C_SDA_H();
00016a   c990     bset    0x190, 0x4       	BSET	_IOP0bits,4
                                           ;	.line	956; "MC32F7361.c"	I2C_SCL_H();
00016b   c394     bset    0x194, 0x1       	BSET	_IOP1bits,1
                                           ;	.line	957; "MC32F7361.c"	delay_us(5);
00016c   3c05     movai   0x5              	MOVAI	0x05
00016d   869d     call    0x69d            	CALL	_delay_us
                                           ;	.line	958; "MC32F7361.c"	I2C_SDA_L();
00016e   d990     bclr    0x190, 0x4       	BCLR	_IOP0bits,4
                                           ;	.line	959; "MC32F7361.c"	delay_us(5);
00016f   3c05     movai   0x5              	MOVAI	0x05
000170   869d     call    0x69d            	CALL	_delay_us
                                           ;	.line	960; "MC32F7361.c"	I2C_SCL_L();
000171   d394     bclr    0x194, 0x1       	BCLR	_IOP1bits,1
                                           ;	.line	962; "MC32F7361.c"	bsp_i2c_tx_byte(addr);
000172   580a     movar   0xa              	MOVAR	r0x103B
000173   8190     call    0x190            	CALL	_bsp_i2c_tx_byte
                                           ;	.line	963; "MC32F7361.c"	bsp_i2c_rx_ack();
000174   8182     call    0x182            	CALL	_bsp_i2c_rx_ack
                                           ;	.line	964; "MC32F7361.c"	bsp_i2c_tx_byte(data);
000175   580b     movar   0xb              	MOVAR	r0x103C
000176   8190     call    0x190            	CALL	_bsp_i2c_tx_byte
                                           ;	.line	965; "MC32F7361.c"	bsp_i2c_rx_ack();
000177   8182     call    0x182            	CALL	_bsp_i2c_rx_ack
                                           ;	.line	967; "MC32F7361.c"	I2C_SDA_OUT();
000178   c991     bset    0x191, 0x4       	BSET	_OEP0bits,4
                                           ;	.line	968; "MC32F7361.c"	I2C_SDA_L();
000179   d990     bclr    0x190, 0x4       	BCLR	_IOP0bits,4
                                           ;	.line	969; "MC32F7361.c"	delay_us(5);
00017a   3c05     movai   0x5              	MOVAI	0x05
00017b   869d     call    0x69d            	CALL	_delay_us
                                           ;	.line	970; "MC32F7361.c"	I2C_SCL_H();
00017c   c394     bset    0x194, 0x1       	BSET	_IOP1bits,1
                                           ;	.line	971; "MC32F7361.c"	delay_us(5);
00017d   3c05     movai   0x5              	MOVAI	0x05
00017e   869d     call    0x69d            	CALL	_delay_us
                                           ;	.line	972; "MC32F7361.c"	I2C_SDA_H();
00017f   c990     bset    0x190, 0x4       	BSET	_IOP0bits,4
                                           ;	.line	973; "MC32F7361.c"	cur_dev_use = DEV_USE_NONE;
000180   7663     clrr    0x63             	CLRR	_cur_dev_use
                                           ;	.line	974; "MC32F7361.c"	}
000181   000c     return                   	RETURN	
                                           ; exit point of _TM1650_WriteByte
                                           
                                           ;***
                                           ;  pBlock Stats: dbName = C
                                           ;***
                                           ;entry:  _bsp_i2c_rx_ack	;Function start
                                           ; 2 exit points
                                           ;has an exit
                                           ;functions called:
                                           ;   _delay_us
                                           ;   _delay_us
                                           ;   _delay_us
                                           ;   _delay_us
                                           ;1 compiler assigned register :
                                           ;   r0x1039
                                           ;; Starting pCode block
                                           _bsp_i2c_rx_ack	;Function start
                                           ; 2 exit points
                                           ;	.line	925; "MC32F7361.c"	u8 ret = 0;
000182   7607     clrr    0x7              	CLRR	r0x1039
                                           ;	.line	926; "MC32F7361.c"	I2C_SDA_IN();
000183   d991     bclr    0x191, 0x4       	BCLR	_OEP0bits,4
                                           ;	.line	927; "MC32F7361.c"	delay_us(5);
000184   3c05     movai   0x5              	MOVAI	0x05
000185   869d     call    0x69d            	CALL	_delay_us
                                           ;	.line	928; "MC32F7361.c"	I2C_SCL_H();
000186   c394     bset    0x194, 0x1       	BSET	_IOP1bits,1
                                           ;	.line	929; "MC32F7361.c"	delay_us(5);
000187   3c05     movai   0x5              	MOVAI	0x05
000188   869d     call    0x69d            	CALL	_delay_us
                                           ;	.line	930; "MC32F7361.c"	if (!I2C_SDA_IS_H())
000189   f990     jbclr   0x190, 0x4       	JBCLR	_IOP0bits,4
00018a   a18d     goto    0x18d            	GOTO	_00905_DS_
                                           ;	.line	933; "MC32F7361.c"	ret = 1;
00018b   3c01     movai   0x1              	MOVAI	0x01
00018c   5607     movra   0x7              	MOVRA	r0x1039
                                           _00905_DS_
                                           ;	.line	935; "MC32F7361.c"	I2C_SCL_L();
00018d   d394     bclr    0x194, 0x1       	BCLR	_IOP1bits,1
                                           ;	.line	936; "MC32F7361.c"	return ret;
00018e   5807     movar   0x7              	MOVAR	r0x1039
                                           ;	.line	937; "MC32F7361.c"	}
00018f   000c     return                   	RETURN	
                                           ; exit point of _bsp_i2c_rx_ack
                                           
                                           ;***
                                           ;  pBlock Stats: dbName = C
                                           ;***
                                           ;entry:  _bsp_i2c_tx_byte	;Function start
                                           ; 2 exit points
                                           ;has an exit
                                           ;functions called:
                                           ;   _delay_us
                                           ;   _delay_us
                                           ;   _delay_us
                                           ;   _delay_us
                                           ;2 compiler assigned registers:
                                           ;   r0x1039
                                           ;   r0x103A
                                           ;; Starting pCode block
                                           _bsp_i2c_tx_byte	;Function start
                                           ; 2 exit points
                                           ;	.line	901; "MC32F7361.c"	void bsp_i2c_tx_byte(uint8_t dat)
000190   5607     movra   0x7              	MOVRA	r0x1039
                                           ;	.line	904; "MC32F7361.c"	I2C_SDA_OUT();
000191   c991     bset    0x191, 0x4       	BSET	_OEP0bits,4
                                           ;	.line	905; "MC32F7361.c"	for (i = 0; i < 8; i++)
000192   7654     clrr    0x54             	CLRR	_i
                                           _00899_DS_
                                           ;	.line	907; "MC32F7361.c"	if (dat & 0x80)
000193   ee07     jbset   0x7, 0x7         	JBSET	r0x1039,7
000194   a197     goto    0x197            	GOTO	_00896_DS_
                                           ;	.line	909; "MC32F7361.c"	I2C_SDA_H();
000195   c990     bset    0x190, 0x4       	BSET	_IOP0bits,4
000196   a198     goto    0x198            	GOTO	_00897_DS_
                                           _00896_DS_
                                           ;	.line	913; "MC32F7361.c"	I2C_SDA_L();
000197   d990     bclr    0x190, 0x4       	BCLR	_IOP0bits,4
                                           _00897_DS_
                                           ;	.line	915; "MC32F7361.c"	delay_us(5);
000198   3c05     movai   0x5              	MOVAI	0x05
000199   869d     call    0x69d            	CALL	_delay_us
                                           ;	.line	916; "MC32F7361.c"	I2C_SCL_H();
00019a   c394     bset    0x194, 0x1       	BSET	_IOP1bits,1
                                           ;	.line	917; "MC32F7361.c"	delay_us(5);
00019b   3c05     movai   0x5              	MOVAI	0x05
00019c   869d     call    0x69d            	CALL	_delay_us
                                           ;	.line	918; "MC32F7361.c"	I2C_SCL_L();
00019d   d394     bclr    0x194, 0x1       	BCLR	_IOP1bits,1
                                           ;	.line	919; "MC32F7361.c"	dat <<= 1;
00019e   5807     movar   0x7              	MOVAR	r0x1039
00019f   5609     movra   0x9              	MOVRA	r0x103A
0001a0   d187     bclr    0x187, 0         	BCLR	PFLAG,0
0001a1   5009     rlar    0x9              	RLAR	r0x103A
0001a2   5607     movra   0x7              	MOVRA	r0x1039
                                           ;	.line	905; "MC32F7361.c"	for (i = 0; i < 8; i++)
0001a3   6654     incr    0x54             	INCR	_i
                                           ;;unsigned compare: left < lit(0x8=8), size=1
0001a4   3c08     movai   0x8              	MOVAI	0x08
0001a5   4854     rsubar  0x54             	RSUBAR	_i
0001a6   e187     jbset   0x187, 0         	JBSET	PFLAG,0
0001a7   a193     goto    0x193            	GOTO	_00899_DS_
                                           ;;genSkipc:3291: created from rifx:013B5EFC
                                           ;	.line	921; "MC32F7361.c"	}
0001a8   000c     return                   	RETURN	
                                           ; exit point of _bsp_i2c_tx_byte
                                           
                                           ;***
                                           ;  pBlock Stats: dbName = C
                                           ;***
                                           ;entry:  _key_ad_key_event_deal	;Function start
                                           ; 2 exit points
                                           ;has an exit
                                           ;functions called:
                                           ;   _ad_key_event_10ms_isr
                                           ;   __mulchar
                                           ;   __gptrget1
                                           ;   _TM1650_DisplayTime
                                           ;   _TM1650_DisplayTime
                                           ;   _TM1650_DisplayTime
                                           ;   _TM1650_DisplayTime
                                           ;   _ad_key_event_10ms_isr
                                           ;   __mulchar
                                           ;   __gptrget1
                                           ;   _TM1650_DisplayTime
                                           ;   _TM1650_DisplayTime
                                           ;   _TM1650_DisplayTime
                                           ;   _TM1650_DisplayTime
                                           ;5 compiler assigned registers:
                                           ;   STK00
                                           ;   r0x1041
                                           ;   r0x1042
                                           ;   STK01
                                           ;   r0x1043
                                           ;; Starting pCode block
                                           _key_ad_key_event_deal	;Function start
                                           ; 2 exit points
                                           ;	.line	572; "MC32F7361.c"	if (!flag_10ms)
0001a9   f061     jbclr   0x61, 0          	JBCLR	_flag1,0
0001aa   a1ac     goto    0x1ac            	GOTO	_00613_DS_
                                           ;	.line	573; "MC32F7361.c"	return;
0001ab   a324     goto    0x324            	GOTO	_00724_DS_
                                           _00613_DS_
                                           ;	.line	575; "MC32F7361.c"	flag_10ms = 0;
0001ac   d061     bclr    0x61, 0          	BCLR	_flag1,0
                                           ;	.line	577; "MC32F7361.c"	ad_key_event_10ms_isr();
0001ad   8325     call    0x325            	CALL	_ad_key_event_10ms_isr
                                           ;;unsigned compare: left < lit(0x6=6), size=1
                                           ;	.line	579; "MC32F7361.c"	if (cur_key_id < AD_KEY_ID_NONE &&
0001ae   3c06     movai   0x6              	MOVAI	0x06
0001af   485a     rsubar  0x5a             	RSUBAR	_cur_key_id
0001b0   f187     jbclr   0x187, 0         	JBCLR	PFLAG,0
0001b1   a324     goto    0x324            	GOTO	_00724_DS_
                                           ;;genSkipc:3291: created from rifx:013B5EFC
                                           ;	.line	580; "MC32F7361.c"	ad_key_event != KEY_EVENT_NONE &&
0001b2   5859     movar   0x59             	MOVAR	_ad_key_event
0001b3   3904     xorai   0x4              	XORAI	0x04
0001b4   e587     jbset   0x187, 0x2       	JBSET	PFLAG,2
0001b5   a1b7     goto    0x1b7            	GOTO	_00879_DS_
0001b6   a324     goto    0x324            	GOTO	_00724_DS_
                                           _00879_DS_
                                           ;	.line	581; "MC32F7361.c"	ad_key_event != 0)
0001b7   3c00     movai   0                	MOVAI	0x00
0001b8   5c59     orar    0x59             	ORAR	_ad_key_event
0001b9   f587     jbclr   0x187, 0x2       	JBCLR	PFLAG,2
0001ba   a324     goto    0x324            	GOTO	_00724_DS_
                                           ;	.line	586; "MC32F7361.c"	switch (key_event_table[cur_key_id][ad_key_event])
0001bb   3c03     movai   0x3              	MOVAI	0x03
0001bc   5606     movra   0x6              	MOVRA	STK00
0001bd   585a     movar   0x5a             	MOVAR	_cur_key_id
0001be   86c6     call    0x6c6            	CALL	__mulchar
0001bf   561d     movra   0x1d             	MOVRA	r0x1041
0001c0   581d     movar   0x1d             	MOVAR	r0x1041
0001c1   3fdd     addai   0xdd             	ADDAI	(_key_event_table + 0)
0001c2   561d     movra   0x1d             	MOVRA	r0x1041
0001c3   3c06     movai   0x6              	MOVAI	high (_key_event_table + 0)
0001c4   f187     jbclr   0x187, 0         	JBCLR	PFLAG,0
0001c5   3f01     addai   0x1              	ADDAI	0x01
0001c6   561e     movra   0x1e             	MOVRA	r0x1042
0001c7   5859     movar   0x59             	MOVAR	_ad_key_event
0001c8   7e1d     addra   0x1d             	ADDRA	r0x1041
0001c9   581e     movar   0x1e             	MOVAR	r0x1042
0001ca   f187     jbclr   0x187, 0         	JBCLR	PFLAG,0
0001cb   3f01     addai   0x1              	ADDAI	0x01
0001cc   561e     movra   0x1e             	MOVRA	r0x1042
0001cd   581d     movar   0x1d             	MOVAR	r0x1041
0001ce   5605     movra   0x5              	MOVRA	STK01
0001cf   581e     movar   0x1e             	MOVAR	r0x1042
0001d0   5606     movra   0x6              	MOVRA	STK00
0001d1   3c80     movai   0x80             	MOVAI	0x80
0001d2   86ef     call    0x6ef            	CALL	__gptrget1
0001d3   561f     movra   0x1f             	MOVRA	r0x1043
                                           ;;swapping arguments (AOP_TYPEs 1/2)
                                           ;;unsigned compare: left >= lit(0x12=18), size=1
0001d4   3c12     movai   0x12             	MOVAI	0x12
0001d5   481f     rsubar  0x1f             	RSUBAR	r0x1043
0001d6   f187     jbclr   0x187, 0         	JBCLR	PFLAG,0
0001d7   a322     goto    0x322            	GOTO	_00719_DS_
                                           ;;genSkipc:3291: created from rifx:013B5EFC
0001d8   581f     movar   0x1f             	MOVAR	r0x1043
0001d9   7f86     addra   0x186            	ADDRA	PCL
0001da   a1ec     goto    0x1ec            	GOTO	_00614_DS_
0001db   a1f0     goto    0x1f0            	GOTO	_00615_DS_
0001dc   a322     goto    0x322            	GOTO	_00719_DS_
0001dd   a1f9     goto    0x1f9            	GOTO	_00620_DS_
0001de   a322     goto    0x322            	GOTO	_00719_DS_
0001df   a21a     goto    0x21a            	GOTO	_00626_DS_
0001e0   a322     goto    0x322            	GOTO	_00719_DS_
0001e1   a322     goto    0x322            	GOTO	_00719_DS_
0001e2   a27a     goto    0x27a            	GOTO	_00654_DS_
0001e3   a283     goto    0x283            	GOTO	_00657_DS_
0001e4   a2b9     goto    0x2b9            	GOTO	_00678_DS_
0001e5   a2c1     goto    0x2c1            	GOTO	_00681_DS_
0001e6   a2c9     goto    0x2c9            	GOTO	_00684_DS_
0001e7   a2cd     goto    0x2cd            	GOTO	_00685_DS_
0001e8   a2d1     goto    0x2d1            	GOTO	_00686_DS_
0001e9   a2d5     goto    0x2d5            	GOTO	_00687_DS_
0001ea   a313     goto    0x313            	GOTO	_00712_DS_
0001eb   a31b     goto    0x31b            	GOTO	_00715_DS_
                                           ;;gen.c:6570: size=0, offset=0, AOP_TYPE(res)=8
                                           _00614_DS_
                                           ;	.line	589; "MC32F7361.c"	send_buf[1] = 0x41;
0001ec   3c41     movai   0x41             	MOVAI	0x41
0001ed   5640     movra   0x40             	MOVRA	(_send_buf + 1)
                                           ;	.line	590; "MC32F7361.c"	flag_is_send_data = 1;
0001ee   c861     bset    0x61, 0x4        	BSET	_flag1,4
                                           ;	.line	591; "MC32F7361.c"	break;
0001ef   a322     goto    0x322            	GOTO	_00719_DS_
                                           _00615_DS_
                                           ;	.line	594; "MC32F7361.c"	if (flag_is_ble_open)
0001f0   e261     jbset   0x61, 0x1        	JBSET	_flag1,1
0001f1   a1f5     goto    0x1f5            	GOTO	_00617_DS_
                                           ;	.line	596; "MC32F7361.c"	BLE_CTL_PIN_IN();
0001f2   d3b9     bclr    0x1b9, 0x1       	BCLR	_OEP2bits,1
                                           ;	.line	597; "MC32F7361.c"	flag_is_ble_open = 0;
0001f3   d261     bclr    0x61, 0x1        	BCLR	_flag1,1
0001f4   a322     goto    0x322            	GOTO	_00719_DS_
                                           _00617_DS_
                                           ;	.line	601; "MC32F7361.c"	BLE_CTL_PIN_OUT();
0001f5   c3b9     bset    0x1b9, 0x1       	BSET	_OEP2bits,1
                                           ;	.line	602; "MC32F7361.c"	BLE_CTL_PIN_LOW(); // 
0001f6   d3b8     bclr    0x1b8, 0x1       	BCLR	_IOP2bits,1
                                           ;	.line	603; "MC32F7361.c"	flag_is_ble_open = 1;
0001f7   c261     bset    0x61, 0x1        	BSET	_flag1,1
                                           ;	.line	606; "MC32F7361.c"	break;
0001f8   a322     goto    0x322            	GOTO	_00719_DS_
                                           _00620_DS_
                                           ;	.line	614; "MC32F7361.c"	switch (cur_light_status)
0001f9   5857     movar   0x57             	MOVAR	_cur_light_status
0001fa   561d     movra   0x1d             	MOVRA	r0x1041
                                           ;;swapping arguments (AOP_TYPEs 1/2)
                                           ;;unsigned compare: left >= lit(0x3=3), size=1
0001fb   3c03     movai   0x3              	MOVAI	0x03
0001fc   481d     rsubar  0x1d             	RSUBAR	r0x1041
0001fd   f187     jbclr   0x187, 0         	JBCLR	PFLAG,0
0001fe   a216     goto    0x216            	GOTO	_00624_DS_
                                           ;;genSkipc:3291: created from rifx:013B5EFC
0001ff   581d     movar   0x1d             	MOVAR	r0x1041
000200   7f86     addra   0x186            	ADDRA	PCL
000201   a204     goto    0x204            	GOTO	_00621_DS_
000202   a209     goto    0x209            	GOTO	_00622_DS_
000203   a20f     goto    0x20f            	GOTO	_00623_DS_
                                           _00621_DS_
                                           ;	.line	618; "MC32F7361.c"	WHITE_PWM_DUTY_REG = cur_w_pwm_duty;
000204   5855     movar   0x55             	MOVAR	_cur_w_pwm_duty
000205   57a3     movra   0x1a3            	MOVRA	_T2DATA
                                           ;	.line	619; "MC32F7361.c"	cur_light_status = CUR_LIGHT_STATUS_WHITE;
000206   3c01     movai   0x1              	MOVAI	0x01
000207   5657     movra   0x57             	MOVRA	_cur_light_status
                                           ;	.line	620; "MC32F7361.c"	break;
000208   a322     goto    0x322            	GOTO	_00719_DS_
                                           _00622_DS_
                                           ;	.line	622; "MC32F7361.c"	WHITE_PWM_DUTY_REG = 0;
000209   77a3     clrr    0x1a3            	CLRR	_T2DATA
                                           ;	.line	623; "MC32F7361.c"	YELLOW_PWM_DUTY_REG = cur_y_pwm_duty;
00020a   5856     movar   0x56             	MOVAR	_cur_y_pwm_duty
00020b   579b     movra   0x19b            	MOVRA	_T0DATA
                                           ;	.line	624; "MC32F7361.c"	cur_light_status = CUR_LIGHT_STATUS_YELLOW;
00020c   3c02     movai   0x2              	MOVAI	0x02
00020d   5657     movra   0x57             	MOVRA	_cur_light_status
                                           ;	.line	625; "MC32F7361.c"	break;
00020e   a322     goto    0x322            	GOTO	_00719_DS_
                                           _00623_DS_
                                           ;	.line	627; "MC32F7361.c"	WHITE_PWM_DUTY_REG = cur_w_pwm_duty;
00020f   5855     movar   0x55             	MOVAR	_cur_w_pwm_duty
000210   57a3     movra   0x1a3            	MOVRA	_T2DATA
                                           ;	.line	628; "MC32F7361.c"	YELLOW_PWM_DUTY_REG = cur_y_pwm_duty;
000211   5856     movar   0x56             	MOVAR	_cur_y_pwm_duty
000212   579b     movra   0x19b            	MOVRA	_T0DATA
                                           ;	.line	629; "MC32F7361.c"	cur_light_status = CUR_LIGHT_STATUS_WHITE_YELLOW;
000213   3c03     movai   0x3              	MOVAI	0x03
000214   5657     movra   0x57             	MOVRA	_cur_light_status
                                           ;	.line	630; "MC32F7361.c"	break;
000215   a322     goto    0x322            	GOTO	_00719_DS_
                                           _00624_DS_
                                           ;	.line	632; "MC32F7361.c"	WHITE_PWM_DUTY_REG = 0;
000216   77a3     clrr    0x1a3            	CLRR	_T2DATA
                                           ;	.line	633; "MC32F7361.c"	YELLOW_PWM_DUTY_REG = 0;
000217   779b     clrr    0x19b            	CLRR	_T0DATA
                                           ;	.line	634; "MC32F7361.c"	cur_light_status = CUR_LIGHT_STATUS_OFF;
000218   7657     clrr    0x57             	CLRR	_cur_light_status
                                           ;	.line	638; "MC32F7361.c"	break;
000219   a322     goto    0x322            	GOTO	_00719_DS_
                                           _00626_DS_
                                           ;	.line	642; "MC32F7361.c"	if (adjust_pwm_dir)
00021a   e461     jbset   0x61, 0x2        	JBSET	_flag1,2
00021b   a24b     goto    0x24b            	GOTO	_00652_DS_
                                           ;	.line	644; "MC32F7361.c"	if (CUR_LIGHT_STATUS_WHITE == cur_light_status ||
00021c   5857     movar   0x57             	MOVAR	_cur_light_status
00021d   3901     xorai   0x1              	XORAI	0x01
00021e   e587     jbset   0x187, 0x2       	JBSET	PFLAG,2
00021f   a221     goto    0x221            	GOTO	_00884_DS_
000220   a225     goto    0x225            	GOTO	_00630_DS_
                                           _00884_DS_
                                           ;	.line	645; "MC32F7361.c"	CUR_LIGHT_STATUS_WHITE_YELLOW == cur_light_status)
000221   5857     movar   0x57             	MOVAR	_cur_light_status
000222   3903     xorai   0x3              	XORAI	0x03
000223   e587     jbset   0x187, 0x2       	JBSET	PFLAG,2
000224   a233     goto    0x233            	GOTO	_00631_DS_
                                           ;;unsigned compare: left < lit(0xEC=236), size=1
                                           _00630_DS_
                                           ;	.line	648; "MC32F7361.c"	if (cur_w_pwm_duty < 255 - 19)
000225   3cec     movai   0xec             	MOVAI	0xec
000226   4855     rsubar  0x55             	RSUBAR	_cur_w_pwm_duty
000227   f187     jbclr   0x187, 0         	JBCLR	PFLAG,0
000228   a22f     goto    0x22f            	GOTO	_00628_DS_
                                           ;;genSkipc:3291: created from rifx:013B5EFC
                                           ;	.line	650; "MC32F7361.c"	cur_w_pwm_duty += 18;
000229   5855     movar   0x55             	MOVAR	_cur_w_pwm_duty
00022a   561d     movra   0x1d             	MOVRA	r0x1041
00022b   3c12     movai   0x12             	MOVAI	0x12
00022c   7c1d     addar   0x1d             	ADDAR	r0x1041
00022d   5655     movra   0x55             	MOVRA	_cur_w_pwm_duty
00022e   a231     goto    0x231            	GOTO	_00629_DS_
                                           _00628_DS_
                                           ;	.line	654; "MC32F7361.c"	cur_w_pwm_duty = 255;
00022f   3cff     movai   0xff             	MOVAI	0xff
000230   5655     movra   0x55             	MOVRA	_cur_w_pwm_duty
                                           _00629_DS_
                                           ;	.line	657; "MC32F7361.c"	WHITE_PWM_DUTY_REG = cur_w_pwm_duty;
000231   5855     movar   0x55             	MOVAR	_cur_w_pwm_duty
000232   57a3     movra   0x1a3            	MOVRA	_T2DATA
                                           _00631_DS_
                                           ;	.line	660; "MC32F7361.c"	if (CUR_LIGHT_STATUS_YELLOW == cur_light_status ||
000233   5857     movar   0x57             	MOVAR	_cur_light_status
000234   3902     xorai   0x2              	XORAI	0x02
000235   e587     jbset   0x187, 0x2       	JBSET	PFLAG,2
000236   a238     goto    0x238            	GOTO	_00886_DS_
000237   a23c     goto    0x23c            	GOTO	_00636_DS_
                                           _00886_DS_
                                           ;	.line	661; "MC32F7361.c"	CUR_LIGHT_STATUS_WHITE_YELLOW == cur_light_status)
000238   5857     movar   0x57             	MOVAR	_cur_light_status
000239   3903     xorai   0x3              	XORAI	0x03
00023a   e587     jbset   0x187, 0x2       	JBSET	PFLAG,2
00023b   a322     goto    0x322            	GOTO	_00719_DS_
                                           ;;unsigned compare: left < lit(0xEC=236), size=1
                                           _00636_DS_
                                           ;	.line	663; "MC32F7361.c"	if (cur_y_pwm_duty < 255 - 19)
00023c   3cec     movai   0xec             	MOVAI	0xec
00023d   4856     rsubar  0x56             	RSUBAR	_cur_y_pwm_duty
00023e   f187     jbclr   0x187, 0         	JBCLR	PFLAG,0
00023f   a246     goto    0x246            	GOTO	_00634_DS_
                                           ;;genSkipc:3291: created from rifx:013B5EFC
                                           ;	.line	665; "MC32F7361.c"	cur_y_pwm_duty += 18;
000240   5856     movar   0x56             	MOVAR	_cur_y_pwm_duty
000241   561d     movra   0x1d             	MOVRA	r0x1041
000242   3c12     movai   0x12             	MOVAI	0x12
000243   7c1d     addar   0x1d             	ADDAR	r0x1041
000244   5656     movra   0x56             	MOVRA	_cur_y_pwm_duty
000245   a248     goto    0x248            	GOTO	_00635_DS_
                                           _00634_DS_
                                           ;	.line	669; "MC32F7361.c"	cur_y_pwm_duty = 255;
000246   3cff     movai   0xff             	MOVAI	0xff
000247   5656     movra   0x56             	MOVRA	_cur_y_pwm_duty
                                           _00635_DS_
                                           ;	.line	672; "MC32F7361.c"	YELLOW_PWM_DUTY_REG = cur_y_pwm_duty;
000248   5856     movar   0x56             	MOVAR	_cur_y_pwm_duty
000249   579b     movra   0x19b            	MOVRA	_T0DATA
00024a   a322     goto    0x322            	GOTO	_00719_DS_
                                           _00652_DS_
                                           ;	.line	677; "MC32F7361.c"	if (CUR_LIGHT_STATUS_WHITE == cur_light_status ||
00024b   5857     movar   0x57             	MOVAR	_cur_light_status
00024c   3901     xorai   0x1              	XORAI	0x01
00024d   e587     jbset   0x187, 0x2       	JBSET	PFLAG,2
00024e   a250     goto    0x250            	GOTO	_00888_DS_
00024f   a254     goto    0x254            	GOTO	_00642_DS_
                                           _00888_DS_
                                           ;	.line	678; "MC32F7361.c"	CUR_LIGHT_STATUS_WHITE_YELLOW == cur_light_status)
000250   5857     movar   0x57             	MOVAR	_cur_light_status
000251   3903     xorai   0x3              	XORAI	0x03
000252   e587     jbset   0x187, 0x2       	JBSET	PFLAG,2
000253   a262     goto    0x262            	GOTO	_00643_DS_
                                           ;;swapping arguments (AOP_TYPEs 1/3)
                                           ;;unsigned compare: left >= lit(0x2D=45), size=1
                                           _00642_DS_
                                           ;	.line	681; "MC32F7361.c"	if (cur_w_pwm_duty > 25 + 19)
000254   3c2d     movai   0x2d             	MOVAI	0x2d
000255   4855     rsubar  0x55             	RSUBAR	_cur_w_pwm_duty
000256   e187     jbset   0x187, 0         	JBSET	PFLAG,0
000257   a25e     goto    0x25e            	GOTO	_00640_DS_
                                           ;;genSkipc:3291: created from rifx:013B5EFC
                                           ;	.line	683; "MC32F7361.c"	cur_w_pwm_duty -= 18;
000258   5855     movar   0x55             	MOVAR	_cur_w_pwm_duty
000259   561d     movra   0x1d             	MOVRA	r0x1041
00025a   3cee     movai   0xee             	MOVAI	0xee
00025b   7c1d     addar   0x1d             	ADDAR	r0x1041
00025c   5655     movra   0x55             	MOVRA	_cur_w_pwm_duty
00025d   a260     goto    0x260            	GOTO	_00641_DS_
                                           _00640_DS_
                                           ;	.line	687; "MC32F7361.c"	cur_w_pwm_duty = 25;
00025e   3c19     movai   0x19             	MOVAI	0x19
00025f   5655     movra   0x55             	MOVRA	_cur_w_pwm_duty
                                           _00641_DS_
                                           ;	.line	690; "MC32F7361.c"	WHITE_PWM_DUTY_REG = cur_w_pwm_duty;
000260   5855     movar   0x55             	MOVAR	_cur_w_pwm_duty
000261   57a3     movra   0x1a3            	MOVRA	_T2DATA
                                           _00643_DS_
                                           ;	.line	693; "MC32F7361.c"	if (CUR_LIGHT_STATUS_YELLOW == cur_light_status ||
000262   5857     movar   0x57             	MOVAR	_cur_light_status
000263   3902     xorai   0x2              	XORAI	0x02
000264   e587     jbset   0x187, 0x2       	JBSET	PFLAG,2
000265   a267     goto    0x267            	GOTO	_00890_DS_
000266   a26b     goto    0x26b            	GOTO	_00648_DS_
                                           _00890_DS_
                                           ;	.line	694; "MC32F7361.c"	CUR_LIGHT_STATUS_WHITE_YELLOW == cur_light_status)
000267   5857     movar   0x57             	MOVAR	_cur_light_status
000268   3903     xorai   0x3              	XORAI	0x03
000269   e587     jbset   0x187, 0x2       	JBSET	PFLAG,2
00026a   a322     goto    0x322            	GOTO	_00719_DS_
                                           ;;swapping arguments (AOP_TYPEs 1/3)
                                           ;;unsigned compare: left >= lit(0x2D=45), size=1
                                           _00648_DS_
                                           ;	.line	696; "MC32F7361.c"	if (cur_y_pwm_duty > 25 + 19)
00026b   3c2d     movai   0x2d             	MOVAI	0x2d
00026c   4856     rsubar  0x56             	RSUBAR	_cur_y_pwm_duty
00026d   e187     jbset   0x187, 0         	JBSET	PFLAG,0
00026e   a275     goto    0x275            	GOTO	_00646_DS_
                                           ;;genSkipc:3291: created from rifx:013B5EFC
                                           ;	.line	698; "MC32F7361.c"	cur_y_pwm_duty -= 18;
00026f   5856     movar   0x56             	MOVAR	_cur_y_pwm_duty
000270   561d     movra   0x1d             	MOVRA	r0x1041
000271   3cee     movai   0xee             	MOVAI	0xee
000272   7c1d     addar   0x1d             	ADDAR	r0x1041
000273   5656     movra   0x56             	MOVRA	_cur_y_pwm_duty
000274   a277     goto    0x277            	GOTO	_00647_DS_
                                           _00646_DS_
                                           ;	.line	702; "MC32F7361.c"	cur_y_pwm_duty = 25;
000275   3c19     movai   0x19             	MOVAI	0x19
000276   5656     movra   0x56             	MOVRA	_cur_y_pwm_duty
                                           _00647_DS_
                                           ;	.line	705; "MC32F7361.c"	YELLOW_PWM_DUTY_REG = cur_y_pwm_duty;
000277   5856     movar   0x56             	MOVAR	_cur_y_pwm_duty
000278   579b     movra   0x19b            	MOVRA	_T0DATA
                                           ;	.line	709; "MC32F7361.c"	break;
000279   a322     goto    0x322            	GOTO	_00719_DS_
                                           _00654_DS_
                                           ;	.line	714; "MC32F7361.c"	set_time_hold_cnt++;
00027a   665b     incr    0x5b             	INCR	_set_time_hold_cnt
                                           ;;unsigned compare: left < lit(0xE=14), size=1
                                           ;	.line	715; "MC32F7361.c"	if (set_time_hold_cnt >= 14) // 14 * 150ms == 2100ms
00027b   3c0e     movai   0xe              	MOVAI	0x0e
00027c   485b     rsubar  0x5b             	RSUBAR	_set_time_hold_cnt
00027d   e187     jbset   0x187, 0         	JBSET	PFLAG,0
00027e   a322     goto    0x322            	GOTO	_00719_DS_
                                           ;;genSkipc:3291: created from rifx:013B5EFC
                                           ;	.line	717; "MC32F7361.c"	set_time_hold_cnt = 0;
00027f   765b     clrr    0x5b             	CLRR	_set_time_hold_cnt
                                           ;	.line	718; "MC32F7361.c"	cur_set_time_status = STATUS_SET_TIME_HOUR;
000280   3c01     movai   0x1              	MOVAI	0x01
000281   565c     movra   0x5c             	MOVRA	_cur_set_time_status
                                           ;	.line	721; "MC32F7361.c"	break;
000282   a322     goto    0x322            	GOTO	_00719_DS_
                                           _00657_DS_
                                           ;	.line	725; "MC32F7361.c"	if (STATUS_NONE != cur_set_time_status)
000283   3c00     movai   0                	MOVAI	0x00
000284   5c5c     orar    0x5c             	ORAR	_cur_set_time_status
000285   f587     jbclr   0x187, 0x2       	JBCLR	PFLAG,2
000286   a2b5     goto    0x2b5            	GOTO	_00676_DS_
                                           ;	.line	727; "MC32F7361.c"	set_time_done_cnt = 0;
000287   764e     clrr    0x4e             	CLRR	_set_time_done_cnt
000288   764f     clrr    0x4f             	CLRR	(_set_time_done_cnt + 1)
                                           ;	.line	728; "MC32F7361.c"	set_time_delay_cnt = 0;
000289   764c     clrr    0x4c             	CLRR	_set_time_delay_cnt
00028a   764d     clrr    0x4d             	CLRR	(_set_time_delay_cnt + 1)
                                           ;	.line	729; "MC32F7361.c"	if (STATUS_SET_TIME_HOUR == cur_set_time_status)
00028b   585c     movar   0x5c             	MOVAR	_cur_set_time_status
00028c   3901     xorai   0x1              	XORAI	0x01
00028d   e587     jbset   0x187, 0x2       	JBSET	PFLAG,2
00028e   a2a2     goto    0x2a2            	GOTO	_00673_DS_
                                           ;	.line	731; "MC32F7361.c"	hundred++;
00028f   665e     incr    0x5e             	INCR	_hundred
                                           ;;unsigned compare: left < lit(0x2=2), size=1
                                           ;	.line	732; "MC32F7361.c"	if (thousand < 2) // 0~9H,10~19H
000290   3c02     movai   0x2              	MOVAI	0x02
000291   485d     rsubar  0x5d             	RSUBAR	_thousand
000292   f187     jbclr   0x187, 0         	JBCLR	PFLAG,0
000293   a29b     goto    0x29b            	GOTO	_00663_DS_
                                           ;;genSkipc:3291: created from rifx:013B5EFC
                                           ;;unsigned compare: left < lit(0xA=10), size=1
                                           ;	.line	734; "MC32F7361.c"	if (hundred >= 10)
000294   3c0a     movai   0xa              	MOVAI	0x0a
000295   485e     rsubar  0x5e             	RSUBAR	_hundred
000296   e187     jbset   0x187, 0         	JBSET	PFLAG,0
000297   a2a0     goto    0x2a0            	GOTO	_00664_DS_
                                           ;;genSkipc:3291: created from rifx:013B5EFC
                                           ;	.line	736; "MC32F7361.c"	hundred = 0;
000298   765e     clrr    0x5e             	CLRR	_hundred
                                           ;	.line	737; "MC32F7361.c"	thousand++;
000299   665d     incr    0x5d             	INCR	_thousand
00029a   a2a0     goto    0x2a0            	GOTO	_00664_DS_
                                           ;;unsigned compare: left < lit(0x4=4), size=1
                                           _00663_DS_
                                           ;	.line	742; "MC32F7361.c"	if (hundred >= 4)
00029b   3c04     movai   0x4              	MOVAI	0x04
00029c   485e     rsubar  0x5e             	RSUBAR	_hundred
00029d   e187     jbset   0x187, 0         	JBSET	PFLAG,0
00029e   a2a0     goto    0x2a0            	GOTO	_00664_DS_
                                           ;;genSkipc:3291: created from rifx:013B5EFC
                                           ;	.line	744; "MC32F7361.c"	hundred--;
00029f   6e5e     decr    0x5e             	DECR	_hundred
                                           _00664_DS_
                                           ;	.line	748; "MC32F7361.c"	TM1650_DisplayTime();
0002a0   810b     call    0x10b            	CALL	_TM1650_DisplayTime
0002a1   a322     goto    0x322            	GOTO	_00719_DS_
                                           _00673_DS_
                                           ;	.line	750; "MC32F7361.c"	else if (STATUS_SET_TIME_MIN == cur_set_time_status)
0002a2   585c     movar   0x5c             	MOVAR	_cur_set_time_status
0002a3   3902     xorai   0x2              	XORAI	0x02
0002a4   e587     jbset   0x187, 0x2       	JBSET	PFLAG,2
0002a5   a322     goto    0x322            	GOTO	_00719_DS_
                                           ;	.line	752; "MC32F7361.c"	unit++;
0002a6   6660     incr    0x60             	INCR	_unit
                                           ;;unsigned compare: left < lit(0xA=10), size=1
                                           ;	.line	753; "MC32F7361.c"	if (unit >= 10)
0002a7   3c0a     movai   0xa              	MOVAI	0x0a
0002a8   4860     rsubar  0x60             	RSUBAR	_unit
0002a9   e187     jbset   0x187, 0         	JBSET	PFLAG,0
0002aa   a2b3     goto    0x2b3            	GOTO	_00669_DS_
                                           ;;genSkipc:3291: created from rifx:013B5EFC
                                           ;;unsigned compare: left < lit(0x5=5), size=1
                                           ;	.line	755; "MC32F7361.c"	if (decade < 5)
0002ab   3c05     movai   0x5              	MOVAI	0x05
0002ac   485f     rsubar  0x5f             	RSUBAR	_decade
0002ad   f187     jbclr   0x187, 0         	JBCLR	PFLAG,0
0002ae   a2b2     goto    0x2b2            	GOTO	_00666_DS_
                                           ;;genSkipc:3291: created from rifx:013B5EFC
                                           ;	.line	757; "MC32F7361.c"	unit = 0;
0002af   7660     clrr    0x60             	CLRR	_unit
                                           ;	.line	758; "MC32F7361.c"	decade++;
0002b0   665f     incr    0x5f             	INCR	_decade
0002b1   a2b3     goto    0x2b3            	GOTO	_00669_DS_
                                           _00666_DS_
                                           ;	.line	762; "MC32F7361.c"	unit--;
0002b2   6e60     decr    0x60             	DECR	_unit
                                           _00669_DS_
                                           ;	.line	766; "MC32F7361.c"	TM1650_DisplayTime();
0002b3   810b     call    0x10b            	CALL	_TM1650_DisplayTime
0002b4   a322     goto    0x322            	GOTO	_00719_DS_
                                           ;;gen.c:6570: size=0, offset=0, AOP_TYPE(res)=8
                                           _00676_DS_
                                           ;	.line	771; "MC32F7361.c"	send_buf[1] = 0x61;
0002b5   3c61     movai   0x61             	MOVAI	0x61
0002b6   5640     movra   0x40             	MOVRA	(_send_buf + 1)
                                           ;	.line	772; "MC32F7361.c"	flag_is_send_data = 1;
0002b7   c861     bset    0x61, 0x4        	BSET	_flag1,4
                                           ;	.line	775; "MC32F7361.c"	break;
0002b8   a322     goto    0x322            	GOTO	_00719_DS_
                                           _00678_DS_
                                           ;	.line	778; "MC32F7361.c"	if (STATUS_NONE == cur_set_time_status)
0002b9   3c00     movai   0                	MOVAI	0x00
0002ba   5c5c     orar    0x5c             	ORAR	_cur_set_time_status
0002bb   e587     jbset   0x187, 0x2       	JBSET	PFLAG,2
0002bc   a322     goto    0x322            	GOTO	_00719_DS_
                                           ;;gen.c:6570: size=0, offset=0, AOP_TYPE(res)=8
                                           ;	.line	780; "MC32F7361.c"	send_buf[1] = 0x62;
0002bd   3c62     movai   0x62             	MOVAI	0x62
0002be   5640     movra   0x40             	MOVRA	(_send_buf + 1)
                                           ;	.line	781; "MC32F7361.c"	flag_is_send_data = 1;
0002bf   c861     bset    0x61, 0x4        	BSET	_flag1,4
                                           ;	.line	783; "MC32F7361.c"	break;
0002c0   a322     goto    0x322            	GOTO	_00719_DS_
                                           _00681_DS_
                                           ;	.line	786; "MC32F7361.c"	if (STATUS_NONE == cur_set_time_status)
0002c1   3c00     movai   0                	MOVAI	0x00
0002c2   5c5c     orar    0x5c             	ORAR	_cur_set_time_status
0002c3   e587     jbset   0x187, 0x2       	JBSET	PFLAG,2
0002c4   a322     goto    0x322            	GOTO	_00719_DS_
                                           ;;gen.c:6570: size=0, offset=0, AOP_TYPE(res)=8
                                           ;	.line	788; "MC32F7361.c"	send_buf[1] = 0x63;
0002c5   3c63     movai   0x63             	MOVAI	0x63
0002c6   5640     movra   0x40             	MOVRA	(_send_buf + 1)
                                           ;	.line	789; "MC32F7361.c"	flag_is_send_data = 1;
0002c7   c861     bset    0x61, 0x4        	BSET	_flag1,4
                                           ;	.line	791; "MC32F7361.c"	break;
0002c8   a322     goto    0x322            	GOTO	_00719_DS_
                                           ;;gen.c:6570: size=0, offset=0, AOP_TYPE(res)=8
                                           _00684_DS_
                                           ;	.line	794; "MC32F7361.c"	send_buf[1] = 0x11;
0002c9   3c11     movai   0x11             	MOVAI	0x11
0002ca   5640     movra   0x40             	MOVRA	(_send_buf + 1)
                                           ;	.line	795; "MC32F7361.c"	flag_is_send_data = 1;
0002cb   c861     bset    0x61, 0x4        	BSET	_flag1,4
                                           ;	.line	796; "MC32F7361.c"	break;
0002cc   a322     goto    0x322            	GOTO	_00719_DS_
                                           ;;gen.c:6570: size=0, offset=0, AOP_TYPE(res)=8
                                           _00685_DS_
                                           ;	.line	799; "MC32F7361.c"	send_buf[1] = 0x12;
0002cd   3c12     movai   0x12             	MOVAI	0x12
0002ce   5640     movra   0x40             	MOVRA	(_send_buf + 1)
                                           ;	.line	800; "MC32F7361.c"	flag_is_send_data = 1;
0002cf   c861     bset    0x61, 0x4        	BSET	_flag1,4
                                           ;	.line	801; "MC32F7361.c"	break;
0002d0   a322     goto    0x322            	GOTO	_00719_DS_
                                           ;;gen.c:6570: size=0, offset=0, AOP_TYPE(res)=8
                                           _00686_DS_
                                           ;	.line	804; "MC32F7361.c"	send_buf[1] = 0x13;
0002d1   3c13     movai   0x13             	MOVAI	0x13
0002d2   5640     movra   0x40             	MOVRA	(_send_buf + 1)
                                           ;	.line	805; "MC32F7361.c"	flag_is_send_data = 1;
0002d3   c861     bset    0x61, 0x4        	BSET	_flag1,4
                                           ;	.line	806; "MC32F7361.c"	break;
0002d4   a322     goto    0x322            	GOTO	_00719_DS_
                                           _00687_DS_
                                           ;	.line	810; "MC32F7361.c"	if (STATUS_NONE != cur_set_time_status)
0002d5   3c00     movai   0                	MOVAI	0x00
0002d6   5c5c     orar    0x5c             	ORAR	_cur_set_time_status
0002d7   f587     jbclr   0x187, 0x2       	JBCLR	PFLAG,2
0002d8   a30f     goto    0x30f            	GOTO	_00710_DS_
                                           ;	.line	812; "MC32F7361.c"	set_time_done_cnt = 0;
0002d9   764e     clrr    0x4e             	CLRR	_set_time_done_cnt
0002da   764f     clrr    0x4f             	CLRR	(_set_time_done_cnt + 1)
                                           ;	.line	813; "MC32F7361.c"	set_time_delay_cnt = 0;
0002db   764c     clrr    0x4c             	CLRR	_set_time_delay_cnt
0002dc   764d     clrr    0x4d             	CLRR	(_set_time_delay_cnt + 1)
                                           ;	.line	814; "MC32F7361.c"	if (STATUS_SET_TIME_HOUR == cur_set_time_status)
0002dd   585c     movar   0x5c             	MOVAR	_cur_set_time_status
0002de   3901     xorai   0x1              	XORAI	0x01
0002df   e587     jbset   0x187, 0x2       	JBSET	PFLAG,2
0002e0   a2f6     goto    0x2f6            	GOTO	_00707_DS_
                                           ;	.line	816; "MC32F7361.c"	if (thousand > 0) // 10H
0002e1   3c00     movai   0                	MOVAI	0x00
0002e2   5c5d     orar    0x5d             	ORAR	_thousand
0002e3   f587     jbclr   0x187, 0x2       	JBCLR	PFLAG,2
0002e4   a2ef     goto    0x2ef            	GOTO	_00694_DS_
                                           ;	.line	818; "MC32F7361.c"	if (hundred > 0)
0002e5   3c00     movai   0                	MOVAI	0x00
0002e6   5c5e     orar    0x5e             	ORAR	_hundred
0002e7   f587     jbclr   0x187, 0x2       	JBCLR	PFLAG,2
0002e8   a2eb     goto    0x2eb            	GOTO	_00689_DS_
                                           ;	.line	820; "MC32F7361.c"	hundred--;
0002e9   6e5e     decr    0x5e             	DECR	_hundred
0002ea   a2f4     goto    0x2f4            	GOTO	_00695_DS_
                                           _00689_DS_
                                           ;	.line	824; "MC32F7361.c"	thousand--;
0002eb   6e5d     decr    0x5d             	DECR	_thousand
                                           ;	.line	825; "MC32F7361.c"	hundred = 9;
0002ec   3c09     movai   0x9              	MOVAI	0x09
0002ed   565e     movra   0x5e             	MOVRA	_hundred
0002ee   a2f4     goto    0x2f4            	GOTO	_00695_DS_
                                           _00694_DS_
                                           ;	.line	830; "MC32F7361.c"	if (hundred > 0)
0002ef   3c00     movai   0                	MOVAI	0x00
0002f0   5c5e     orar    0x5e             	ORAR	_hundred
0002f1   f587     jbclr   0x187, 0x2       	JBCLR	PFLAG,2
0002f2   a2f4     goto    0x2f4            	GOTO	_00695_DS_
                                           ;	.line	832; "MC32F7361.c"	hundred--;
0002f3   6e5e     decr    0x5e             	DECR	_hundred
                                           _00695_DS_
                                           ;	.line	836; "MC32F7361.c"	TM1650_DisplayTime();
0002f4   810b     call    0x10b            	CALL	_TM1650_DisplayTime
0002f5   a322     goto    0x322            	GOTO	_00719_DS_
                                           _00707_DS_
                                           ;	.line	838; "MC32F7361.c"	else if (STATUS_SET_TIME_MIN == cur_set_time_status)
0002f6   585c     movar   0x5c             	MOVAR	_cur_set_time_status
0002f7   3902     xorai   0x2              	XORAI	0x02
0002f8   e587     jbset   0x187, 0x2       	JBSET	PFLAG,2
0002f9   a322     goto    0x322            	GOTO	_00719_DS_
                                           ;	.line	840; "MC32F7361.c"	if (decade > 0) // 10min
0002fa   3c00     movai   0                	MOVAI	0x00
0002fb   5c5f     orar    0x5f             	ORAR	_decade
0002fc   f587     jbclr   0x187, 0x2       	JBCLR	PFLAG,2
0002fd   a308     goto    0x308            	GOTO	_00702_DS_
                                           ;	.line	842; "MC32F7361.c"	if (unit > 0)
0002fe   3c00     movai   0                	MOVAI	0x00
0002ff   5c60     orar    0x60             	ORAR	_unit
000300   f587     jbclr   0x187, 0x2       	JBCLR	PFLAG,2
000301   a304     goto    0x304            	GOTO	_00697_DS_
                                           ;	.line	844; "MC32F7361.c"	unit--;
000302   6e60     decr    0x60             	DECR	_unit
000303   a30d     goto    0x30d            	GOTO	_00703_DS_
                                           _00697_DS_
                                           ;	.line	848; "MC32F7361.c"	decade--;
000304   6e5f     decr    0x5f             	DECR	_decade
                                           ;	.line	849; "MC32F7361.c"	unit = 9;
000305   3c09     movai   0x9              	MOVAI	0x09
000306   5660     movra   0x60             	MOVRA	_unit
000307   a30d     goto    0x30d            	GOTO	_00703_DS_
                                           _00702_DS_
                                           ;	.line	854; "MC32F7361.c"	if (unit > 0)
000308   3c00     movai   0                	MOVAI	0x00
000309   5c60     orar    0x60             	ORAR	_unit
00030a   f587     jbclr   0x187, 0x2       	JBCLR	PFLAG,2
00030b   a30d     goto    0x30d            	GOTO	_00703_DS_
                                           ;	.line	856; "MC32F7361.c"	unit--;
00030c   6e60     decr    0x60             	DECR	_unit
                                           _00703_DS_
                                           ;	.line	860; "MC32F7361.c"	TM1650_DisplayTime();
00030d   810b     call    0x10b            	CALL	_TM1650_DisplayTime
00030e   a322     goto    0x322            	GOTO	_00719_DS_
                                           ;;gen.c:6570: size=0, offset=0, AOP_TYPE(res)=8
                                           _00710_DS_
                                           ;	.line	865; "MC32F7361.c"	send_buf[1] = 0x51;
00030f   3c51     movai   0x51             	MOVAI	0x51
000310   5640     movra   0x40             	MOVRA	(_send_buf + 1)
                                           ;	.line	866; "MC32F7361.c"	flag_is_send_data = 1;
000311   c861     bset    0x61, 0x4        	BSET	_flag1,4
                                           ;	.line	869; "MC32F7361.c"	break;
000312   a322     goto    0x322            	GOTO	_00719_DS_
                                           _00712_DS_
                                           ;	.line	872; "MC32F7361.c"	if (STATUS_NONE == cur_set_time_status)
000313   3c00     movai   0                	MOVAI	0x00
000314   5c5c     orar    0x5c             	ORAR	_cur_set_time_status
000315   e587     jbset   0x187, 0x2       	JBSET	PFLAG,2
000316   a322     goto    0x322            	GOTO	_00719_DS_
                                           ;;gen.c:6570: size=0, offset=0, AOP_TYPE(res)=8
                                           ;	.line	874; "MC32F7361.c"	send_buf[1] = 0x52;
000317   3c52     movai   0x52             	MOVAI	0x52
000318   5640     movra   0x40             	MOVRA	(_send_buf + 1)
                                           ;	.line	875; "MC32F7361.c"	flag_is_send_data = 1;
000319   c861     bset    0x61, 0x4        	BSET	_flag1,4
                                           ;	.line	877; "MC32F7361.c"	break;
00031a   a322     goto    0x322            	GOTO	_00719_DS_
                                           _00715_DS_
                                           ;	.line	880; "MC32F7361.c"	if (STATUS_NONE == cur_set_time_status)
00031b   3c00     movai   0                	MOVAI	0x00
00031c   5c5c     orar    0x5c             	ORAR	_cur_set_time_status
00031d   e587     jbset   0x187, 0x2       	JBSET	PFLAG,2
00031e   a322     goto    0x322            	GOTO	_00719_DS_
                                           ;;gen.c:6570: size=0, offset=0, AOP_TYPE(res)=8
                                           ;	.line	882; "MC32F7361.c"	send_buf[1] = 0x53;
00031f   3c53     movai   0x53             	MOVAI	0x53
000320   5640     movra   0x40             	MOVRA	(_send_buf + 1)
                                           ;	.line	883; "MC32F7361.c"	flag_is_send_data = 1;
000321   c861     bset    0x61, 0x4        	BSET	_flag1,4
                                           _00719_DS_
                                           ;	.line	891; "MC32F7361.c"	ad_key_event = KEY_EVENT_NONE; // 
000322   3c04     movai   0x4              	MOVAI	0x04
000323   5659     movra   0x59             	MOVRA	_ad_key_event
                                           _00724_DS_
                                           ;	.line	893; "MC32F7361.c"	}
000324   000c     return                   	RETURN	
                                           ; exit point of _key_ad_key_event_deal
                                           
                                           ;***
                                           ;  pBlock Stats: dbName = C
                                           ;***
                                           ;entry:  _ad_key_event_10ms_isr	;Function start
                                           ; 2 exit points
                                           ;has an exit
                                           ;functions called:
                                           ;   _get_key_id
                                           ;   _get_key_id
                                           ;; Starting pCode block
                                           _ad_key_event_10ms_isr	;Function start
                                           ; 2 exit points
                                           ;	.line	476; "MC32F7361.c"	cur_key_id = get_key_id();
000325   8392     call    0x392            	CALL	_get_key_id
000326   565a     movra   0x5a             	MOVRA	_cur_key_id
                                           ;	.line	478; "MC32F7361.c"	if (cur_key_id != filter_key_id && filter_cnt)
000327   5829     movar   0x29             	MOVAR	_ad_key_event_10ms_isr_filter_key_id_65536_97
000328   405a     xorar   0x5a             	XORAR	_cur_key_id
000329   e587     jbset   0x187, 0x2       	JBSET	PFLAG,2
00032a   a32c     goto    0x32c            	GOTO	_00603_DS_
00032b   a334     goto    0x334            	GOTO	_00493_DS_
                                           _00603_DS_
00032c   3c00     movai   0                	MOVAI	0x00
00032d   5c28     orar    0x28             	ORAR	_ad_key_event_10ms_isr_filter_cnt_65536_97
00032e   f587     jbclr   0x187, 0x2       	JBCLR	PFLAG,2
00032f   a334     goto    0x334            	GOTO	_00493_DS_
                                           ;	.line	480; "MC32F7361.c"	filter_cnt = 0;
000330   7628     clrr    0x28             	CLRR	_ad_key_event_10ms_isr_filter_cnt_65536_97
                                           ;	.line	481; "MC32F7361.c"	filter_key_id = cur_key_id;
000331   585a     movar   0x5a             	MOVAR	_cur_key_id
000332   5629     movra   0x29             	MOVRA	_ad_key_event_10ms_isr_filter_key_id_65536_97
                                           ;	.line	482; "MC32F7361.c"	return;
000333   a391     goto    0x391            	GOTO	_00533_DS_
                                           ;;unsigned compare: left < lit(0x2=2), size=1
                                           _00493_DS_
                                           ;	.line	485; "MC32F7361.c"	if (filter_cnt < 2)
000334   3c02     movai   0x2              	MOVAI	0x02
000335   4828     rsubar  0x28             	RSUBAR	_ad_key_event_10ms_isr_filter_cnt_65536_97
000336   f187     jbclr   0x187, 0         	JBCLR	PFLAG,0
000337   a33a     goto    0x33a            	GOTO	_00496_DS_
                                           ;;genSkipc:3291: created from rifx:013B5EFC
                                           ;	.line	488; "MC32F7361.c"	filter_cnt++;
000338   6628     incr    0x28             	INCR	_ad_key_event_10ms_isr_filter_cnt_65536_97
                                           ;	.line	489; "MC32F7361.c"	return;
000339   a391     goto    0x391            	GOTO	_00533_DS_
                                           _00496_DS_
                                           ;	.line	495; "MC32F7361.c"	if (last_key_id != cur_key_id) //  / 
00033a   585a     movar   0x5a             	MOVAR	_cur_key_id
00033b   402b     xorar   0x2b             	XORAR	_ad_key_event_10ms_isr_last_key_id_65536_97
00033c   e587     jbset   0x187, 0x2       	JBSET	PFLAG,2
00033d   a33f     goto    0x33f            	GOTO	_00605_DS_
00033e   a37a     goto    0x37a            	GOTO	_00531_DS_
                                           _00605_DS_
                                           ;	.line	497; "MC32F7361.c"	if (last_key_id == AD_KEY_ID_NONE)
00033f   582b     movar   0x2b             	MOVAR	_ad_key_event_10ms_isr_last_key_id_65536_97
000340   3906     xorai   0x6              	XORAI	0x06
000341   e587     jbset   0x187, 0x2       	JBSET	PFLAG,2
000342   a345     goto    0x345            	GOTO	_00521_DS_
                                           ;	.line	499; "MC32F7361.c"	count = 0;
000343   762a     clrr    0x2a             	CLRR	_ad_key_event_10ms_isr_count_65536_97
000344   a38f     goto    0x38f            	GOTO	_00532_DS_
                                           _00521_DS_
                                           ;	.line	501; "MC32F7361.c"	else if (cur_key_id == AD_KEY_ID_NONE)
000345   585a     movar   0x5a             	MOVAR	_cur_key_id
000346   3906     xorai   0x6              	XORAI	0x06
000347   e587     jbset   0x187, 0x2       	JBSET	PFLAG,2
000348   a38f     goto    0x38f            	GOTO	_00532_DS_
                                           ;;unsigned compare: left < lit(0x4B=75), size=1
                                           ;	.line	503; "MC32F7361.c"	if (count < 75)
000349   3c4b     movai   0x4b             	MOVAI	0x4b
00034a   482a     rsubar  0x2a             	RSUBAR	_ad_key_event_10ms_isr_count_65536_97
00034b   f187     jbclr   0x187, 0         	JBCLR	PFLAG,0
00034c   a350     goto    0x350            	GOTO	_00516_DS_
                                           ;;genSkipc:3291: created from rifx:013B5EFC
                                           ;	.line	506; "MC32F7361.c"	ad_key_event = KEY_EVENT_CLICK;
00034d   3c01     movai   0x1              	MOVAI	0x01
00034e   5659     movra   0x59             	MOVRA	_ad_key_event
00034f   a38f     goto    0x38f            	GOTO	_00532_DS_
                                           _00516_DS_
                                           ;	.line	512; "MC32F7361.c"	if (AD_KEY_ID_MID == last_key_id)
000350   582b     movar   0x2b             	MOVAR	_ad_key_event_10ms_isr_last_key_id_65536_97
000351   3901     xorai   0x1              	XORAI	0x01
000352   e587     jbset   0x187, 0x2       	JBSET	PFLAG,2
000353   a35a     goto    0x35a            	GOTO	_00513_DS_
                                           ;	.line	516; "MC32F7361.c"	if (adjust_pwm_dir)
000354   e461     jbset   0x61, 0x2        	JBSET	_flag1,2
000355   a358     goto    0x358            	GOTO	_00498_DS_
                                           ;	.line	518; "MC32F7361.c"	adjust_pwm_dir = 0;
000356   d461     bclr    0x61, 0x2        	BCLR	_flag1,2
000357   a38f     goto    0x38f            	GOTO	_00532_DS_
                                           _00498_DS_
                                           ;	.line	522; "MC32F7361.c"	adjust_pwm_dir = 1;
000358   c461     bset    0x61, 0x2        	BSET	_flag1,2
000359   a38f     goto    0x38f            	GOTO	_00532_DS_
                                           _00513_DS_
                                           ;	.line	525; "MC32F7361.c"	else if (AD_KEY_ID_RIGHT == last_key_id)
00035a   582b     movar   0x2b             	MOVAR	_ad_key_event_10ms_isr_last_key_id_65536_97
00035b   3903     xorai   0x3              	XORAI	0x03
00035c   e587     jbset   0x187, 0x2       	JBSET	PFLAG,2
00035d   a366     goto    0x366            	GOTO	_00510_DS_
                                           ;	.line	527; "MC32F7361.c"	if (STATUS_NONE == cur_set_time_status)
00035e   3c00     movai   0                	MOVAI	0x00
00035f   5c5c     orar    0x5c             	ORAR	_cur_set_time_status
000360   e587     jbset   0x187, 0x2       	JBSET	PFLAG,2
000361   a38f     goto    0x38f            	GOTO	_00532_DS_
                                           ;;gen.c:6570: size=0, offset=0, AOP_TYPE(res)=8
                                           ;	.line	529; "MC32F7361.c"	send_buf[1] = 0x64;
000362   3c64     movai   0x64             	MOVAI	0x64
000363   5640     movra   0x40             	MOVRA	(_send_buf + 1)
                                           ;	.line	530; "MC32F7361.c"	flag_is_send_data = 1;
000364   c861     bset    0x61, 0x4        	BSET	_flag1,4
000365   a38f     goto    0x38f            	GOTO	_00532_DS_
                                           _00510_DS_
                                           ;	.line	533; "MC32F7361.c"	else if (AD_KEY_ID_LEFT == last_key_id)
000366   582b     movar   0x2b             	MOVAR	_ad_key_event_10ms_isr_last_key_id_65536_97
000367   3905     xorai   0x5              	XORAI	0x05
000368   e587     jbset   0x187, 0x2       	JBSET	PFLAG,2
000369   a372     goto    0x372            	GOTO	_00507_DS_
                                           ;	.line	535; "MC32F7361.c"	if (STATUS_NONE == cur_set_time_status)
00036a   3c00     movai   0                	MOVAI	0x00
00036b   5c5c     orar    0x5c             	ORAR	_cur_set_time_status
00036c   e587     jbset   0x187, 0x2       	JBSET	PFLAG,2
00036d   a38f     goto    0x38f            	GOTO	_00532_DS_
                                           ;;gen.c:6570: size=0, offset=0, AOP_TYPE(res)=8
                                           ;	.line	537; "MC32F7361.c"	send_buf[1] = 0x54;
00036e   3c54     movai   0x54             	MOVAI	0x54
00036f   5640     movra   0x40             	MOVRA	(_send_buf + 1)
                                           ;	.line	538; "MC32F7361.c"	flag_is_send_data = 1;
000370   c861     bset    0x61, 0x4        	BSET	_flag1,4
000371   a38f     goto    0x38f            	GOTO	_00532_DS_
                                           _00507_DS_
                                           ;	.line	541; "MC32F7361.c"	else if (AD_KEY_ID_DOWN == last_key_id)
000372   582b     movar   0x2b             	MOVAR	_ad_key_event_10ms_isr_last_key_id_65536_97
000373   3904     xorai   0x4              	XORAI	0x04
000374   e587     jbset   0x187, 0x2       	JBSET	PFLAG,2
000375   a38f     goto    0x38f            	GOTO	_00532_DS_
                                           ;;gen.c:6570: size=0, offset=0, AOP_TYPE(res)=8
                                           ;	.line	543; "MC32F7361.c"	send_buf[1] = 0x14;
000376   3c14     movai   0x14             	MOVAI	0x14
000377   5640     movra   0x40             	MOVRA	(_send_buf + 1)
                                           ;	.line	544; "MC32F7361.c"	flag_is_send_data = 1;
000378   c861     bset    0x61, 0x4        	BSET	_flag1,4
000379   a38f     goto    0x38f            	GOTO	_00532_DS_
                                           _00531_DS_
                                           ;	.line	553; "MC32F7361.c"	else if (cur_key_id != AD_KEY_ID_NONE)
00037a   585a     movar   0x5a             	MOVAR	_cur_key_id
00037b   3906     xorai   0x6              	XORAI	0x06
00037c   e587     jbset   0x187, 0x2       	JBSET	PFLAG,2
00037d   a37f     goto    0x37f            	GOTO	_00607_DS_
00037e   a38f     goto    0x38f            	GOTO	_00532_DS_
                                           _00607_DS_
                                           ;	.line	555; "MC32F7361.c"	count++;
00037f   662a     incr    0x2a             	INCR	_ad_key_event_10ms_isr_count_65536_97
                                           ;	.line	556; "MC32F7361.c"	if (count == 75)
000380   582a     movar   0x2a             	MOVAR	_ad_key_event_10ms_isr_count_65536_97
000381   394b     xorai   0x4b             	XORAI	0x4b
000382   e587     jbset   0x187, 0x2       	JBSET	PFLAG,2
000383   a387     goto    0x387            	GOTO	_00526_DS_
                                           ;	.line	558; "MC32F7361.c"	ad_key_event = KEY_EVENT_LONG;
000384   3c02     movai   0x2              	MOVAI	0x02
000385   5659     movra   0x59             	MOVRA	_ad_key_event
000386   a38f     goto    0x38f            	GOTO	_00532_DS_
                                           ;;unsigned compare: left < lit(0x5A=90), size=1
                                           _00526_DS_
                                           ;	.line	560; "MC32F7361.c"	else if (count >= 75 + 15)
000387   3c5a     movai   0x5a             	MOVAI	0x5a
000388   482a     rsubar  0x2a             	RSUBAR	_ad_key_event_10ms_isr_count_65536_97
000389   e187     jbset   0x187, 0         	JBSET	PFLAG,0
00038a   a38f     goto    0x38f            	GOTO	_00532_DS_
                                           ;;genSkipc:3291: created from rifx:013B5EFC
                                           ;	.line	562; "MC32F7361.c"	ad_key_event = KEY_EVENT_HOLD;
00038b   3c03     movai   0x3              	MOVAI	0x03
00038c   5659     movra   0x59             	MOVRA	_ad_key_event
                                           ;	.line	563; "MC32F7361.c"	count = 75;
00038d   3c4b     movai   0x4b             	MOVAI	0x4b
00038e   562a     movra   0x2a             	MOVRA	_ad_key_event_10ms_isr_count_65536_97
                                           _00532_DS_
                                           ;	.line	567; "MC32F7361.c"	last_key_id = cur_key_id;
00038f   585a     movar   0x5a             	MOVAR	_cur_key_id
000390   562b     movra   0x2b             	MOVRA	_ad_key_event_10ms_isr_last_key_id_65536_97
                                           _00533_DS_
                                           ;	.line	568; "MC32F7361.c"	}
000391   000c     return                   	RETURN	
                                           ; exit point of _ad_key_event_10ms_isr
                                           
                                           ;***
                                           ;  pBlock Stats: dbName = C
                                           ;***
                                           ;entry:  _get_key_id	;Function start
                                           ; 2 exit points
                                           ;has an exit
                                           ;functions called:
                                           ;   _adc_single_convert
                                           ;   __gptrget1
                                           ;   _adc_single_convert
                                           ;   __gptrget1
                                           ;5 compiler assigned registers:
                                           ;   r0x103E
                                           ;   STK00
                                           ;   r0x103F
                                           ;   STK01
                                           ;   r0x1040
                                           ;; Starting pCode block
                                           _get_key_id	;Function start
                                           ; 2 exit points
                                           ;	.line	459; "MC32F7361.c"	adc_val = adc_single_convert() >> 4;
000392   8444     call    0x444            	CALL	_adc_single_convert
000393   5617     movra   0x17             	MOVRA	r0x103E
000394   5806     movar   0x6              	MOVAR	STK00
000395   561c     movra   0x1c             	MOVRA	r0x103F
000396   441c     swapar  0x1c             	SWAPAR	r0x103F
000397   3e0f     andai   0xf              	ANDAI	0x0f
000398   564a     movra   0x4a             	MOVRA	_adc_val
000399   4417     swapar  0x17             	SWAPAR	r0x103E
00039a   564b     movra   0x4b             	MOVRA	(_adc_val + 1)
00039b   3ef0     andai   0xf0             	ANDAI	0xf0
00039c   5e4a     orra    0x4a             	ORRA	_adc_val
00039d   424b     xorra   0x4b             	XORRA	(_adc_val + 1)
                                           ;	.line	460; "MC32F7361.c"	for (i = 0; i < AD_KEY_ID_NONE; i++)
00039e   7654     clrr    0x54             	CLRR	_i
                                           _00471_DS_
                                           ;	.line	462; "MC32F7361.c"	if (adc_val <= id_table[i])
00039f   5854     movar   0x54             	MOVAR	_i
0003a0   3f01     addai   0x1              	ADDAI	(_id_table + 0)
0003a1   561c     movra   0x1c             	MOVRA	r0x103F
0003a2   3c00     movai   0                	MOVAI	high (_id_table + 0)
0003a3   f187     jbclr   0x187, 0         	JBCLR	PFLAG,0
0003a4   3f01     addai   0x1              	ADDAI	0x01
0003a5   5617     movra   0x17             	MOVRA	r0x103E
0003a6   581c     movar   0x1c             	MOVAR	r0x103F
0003a7   5605     movra   0x5              	MOVRA	STK01
0003a8   5817     movar   0x17             	MOVAR	r0x103E
0003a9   5606     movra   0x6              	MOVRA	STK00
0003aa   3c80     movai   0x80             	MOVAI	0x80
0003ab   86ef     call    0x6ef            	CALL	__gptrget1
0003ac   561c     movra   0x1c             	MOVRA	r0x103F
                                           ;;1	MOVRA	r0x1040
                                           ;;105	MOVAR	r0x1040
0003ad   7617     clrr    0x17             	CLRR	r0x103E
0003ae   584b     movar   0x4b             	MOVAR	(_adc_val + 1)
0003af   4817     rsubar  0x17             	RSUBAR	r0x103E
0003b0   e587     jbset   0x187, 0x2       	JBSET	PFLAG,2
0003b1   a3b4     goto    0x3b4            	GOTO	_00487_DS_
0003b2   584a     movar   0x4a             	MOVAR	_adc_val
0003b3   481c     rsubar  0x1c             	RSUBAR	r0x103F
                                           _00487_DS_
0003b4   e187     jbset   0x187, 0         	JBSET	PFLAG,0
0003b5   a3b8     goto    0x3b8            	GOTO	_00472_DS_
                                           ;;genSkipc:3291: created from rifx:013B5EFC
                                           ;	.line	463; "MC32F7361.c"	return i;
0003b6   5854     movar   0x54             	MOVAR	_i
0003b7   a3be     goto    0x3be            	GOTO	_00473_DS_
                                           _00472_DS_
                                           ;	.line	460; "MC32F7361.c"	for (i = 0; i < AD_KEY_ID_NONE; i++)
0003b8   6654     incr    0x54             	INCR	_i
                                           ;;unsigned compare: left < lit(0x6=6), size=1
0003b9   3c06     movai   0x6              	MOVAI	0x06
0003ba   4854     rsubar  0x54             	RSUBAR	_i
0003bb   e187     jbset   0x187, 0         	JBSET	PFLAG,0
0003bc   a39f     goto    0x39f            	GOTO	_00471_DS_
                                           ;;genSkipc:3291: created from rifx:013B5EFC
                                           ;	.line	465; "MC32F7361.c"	return AD_KEY_ID_NONE;
0003bd   3c06     movai   0x6              	MOVAI	0x06
                                           _00473_DS_
                                           ;	.line	466; "MC32F7361.c"	}
0003be   000c     return                   	RETURN	
                                           ; exit point of _get_key_id
                                           
                                           ;***
                                           ;  pBlock Stats: dbName = C
                                           ;***
                                           ;entry:  _adc_get_val	;Function start
                                           ; 2 exit points
                                           ;has an exit
                                           ;functions called:
                                           ;   _adc_single_convert
                                           ;   _adc_single_convert
                                           ;5 compiler assigned registers:
                                           ;   STK00
                                           ;   r0x1045
                                           ;   r0x1046
                                           ;   r0x1047
                                           ;   r0x1048
                                           ;; Starting pCode block
                                           _adc_get_val	;Function start
                                           ; 2 exit points
                                           ;	.line	433; "MC32F7361.c"	adc_val_sum = 0;
0003bf   763b     clrr    0x3b             	CLRR	_adc_val_sum
0003c0   763c     clrr    0x3c             	CLRR	(_adc_val_sum + 1)
0003c1   763d     clrr    0x3d             	CLRR	(_adc_val_sum + 2)
0003c2   763e     clrr    0x3e             	CLRR	(_adc_val_sum + 3)
                                           ;	.line	434; "MC32F7361.c"	get_adcmax = 0;
0003c3   7646     clrr    0x46             	CLRR	_get_adcmax
0003c4   7647     clrr    0x47             	CLRR	(_get_adcmax + 1)
                                           ;	.line	435; "MC32F7361.c"	get_adcmin = 0xFFFF;
0003c5   3cff     movai   0xff             	MOVAI	0xff
0003c6   5648     movra   0x48             	MOVRA	_get_adcmin
0003c7   5649     movra   0x49             	MOVRA	(_get_adcmin + 1)
                                           ;	.line	437; "MC32F7361.c"	for (i = 0; i < 20; i++)
0003c8   7654     clrr    0x54             	CLRR	_i
                                           _00438_DS_
                                           ;	.line	439; "MC32F7361.c"	adc_val_tmp = adc_single_convert(); // adc
0003c9   8444     call    0x444            	CALL	_adc_single_convert
0003ca   5645     movra   0x45             	MOVRA	(_adc_val_tmp + 1)
0003cb   5806     movar   0x6              	MOVAR	STK00
0003cc   5644     movra   0x44             	MOVRA	_adc_val_tmp
                                           ;;unsigned compare: left < lit(0x2=2), size=1
                                           ;	.line	440; "MC32F7361.c"	if (i < 2)
0003cd   3c02     movai   0x2              	MOVAI	0x02
0003ce   4854     rsubar  0x54             	RSUBAR	_i
0003cf   e187     jbset   0x187, 0         	JBSET	PFLAG,0
0003d0   a3fd     goto    0x3fd            	GOTO	_00436_DS_
                                           ;;genSkipc:3291: created from rifx:013B5EFC
                                           ;	.line	442; "MC32F7361.c"	if (adc_val_tmp > get_adcmax)
0003d1   5845     movar   0x45             	MOVAR	(_adc_val_tmp + 1)
0003d2   4847     rsubar  0x47             	RSUBAR	(_get_adcmax + 1)
0003d3   e587     jbset   0x187, 0x2       	JBSET	PFLAG,2
0003d4   a3d7     goto    0x3d7            	GOTO	_00462_DS_
0003d5   5844     movar   0x44             	MOVAR	_adc_val_tmp
0003d6   4846     rsubar  0x46             	RSUBAR	_get_adcmax
                                           _00462_DS_
0003d7   f187     jbclr   0x187, 0         	JBCLR	PFLAG,0
0003d8   a3dd     goto    0x3dd            	GOTO	_00433_DS_
                                           ;;genSkipc:3291: created from rifx:013B5EFC
                                           ;	.line	443; "MC32F7361.c"	get_adcmax = adc_val_tmp; // 
0003d9   5844     movar   0x44             	MOVAR	_adc_val_tmp
0003da   5646     movra   0x46             	MOVRA	_get_adcmax
0003db   5845     movar   0x45             	MOVAR	(_adc_val_tmp + 1)
0003dc   5647     movra   0x47             	MOVRA	(_get_adcmax + 1)
                                           _00433_DS_
                                           ;	.line	444; "MC32F7361.c"	if (adc_val_tmp < get_adcmin)
0003dd   5849     movar   0x49             	MOVAR	(_get_adcmin + 1)
0003de   4845     rsubar  0x45             	RSUBAR	(_adc_val_tmp + 1)
0003df   e587     jbset   0x187, 0x2       	JBSET	PFLAG,2
0003e0   a3e3     goto    0x3e3            	GOTO	_00463_DS_
0003e1   5848     movar   0x48             	MOVAR	_get_adcmin
0003e2   4844     rsubar  0x44             	RSUBAR	_adc_val_tmp
                                           _00463_DS_
0003e3   f187     jbclr   0x187, 0         	JBCLR	PFLAG,0
0003e4   a3e9     goto    0x3e9            	GOTO	_00435_DS_
                                           ;;genSkipc:3291: created from rifx:013B5EFC
                                           ;	.line	445; "MC32F7361.c"	get_adcmin = adc_val_tmp; // 
0003e5   5844     movar   0x44             	MOVAR	_adc_val_tmp
0003e6   5648     movra   0x48             	MOVRA	_get_adcmin
0003e7   5845     movar   0x45             	MOVAR	(_adc_val_tmp + 1)
0003e8   5649     movra   0x49             	MOVRA	(_get_adcmin + 1)
                                           _00435_DS_
                                           ;	.line	446; "MC32F7361.c"	adc_val_sum += adc_val_tmp;
0003e9   5844     movar   0x44             	MOVAR	_adc_val_tmp
0003ea   5618     movra   0x18             	MOVRA	r0x1045
0003eb   5845     movar   0x45             	MOVAR	(_adc_val_tmp + 1)
0003ec   5619     movra   0x19             	MOVRA	r0x1046
0003ed   761a     clrr    0x1a             	CLRR	r0x1047
0003ee   761b     clrr    0x1b             	CLRR	r0x1048
0003ef   5818     movar   0x18             	MOVAR	r0x1045
0003f0   7e3b     addra   0x3b             	ADDRA	_adc_val_sum
0003f1   5819     movar   0x19             	MOVAR	r0x1046
0003f2   f187     jbclr   0x187, 0         	JBCLR	PFLAG,0
0003f3   6019     jzar    0x19             	JZAR	r0x1046
0003f4   7e3c     addra   0x3c             	ADDRA	(_adc_val_sum + 1)
0003f5   581a     movar   0x1a             	MOVAR	r0x1047
0003f6   f187     jbclr   0x187, 0         	JBCLR	PFLAG,0
0003f7   601a     jzar    0x1a             	JZAR	r0x1047
0003f8   7e3d     addra   0x3d             	ADDRA	(_adc_val_sum + 2)
0003f9   581b     movar   0x1b             	MOVAR	r0x1048
0003fa   f187     jbclr   0x187, 0         	JBCLR	PFLAG,0
0003fb   601b     jzar    0x1b             	JZAR	r0x1048
0003fc   7e3e     addra   0x3e             	ADDRA	(_adc_val_sum + 3)
                                           _00436_DS_
                                           ;	.line	437; "MC32F7361.c"	for (i = 0; i < 20; i++)
0003fd   6654     incr    0x54             	INCR	_i
                                           ;;unsigned compare: left < lit(0x14=20), size=1
0003fe   3c14     movai   0x14             	MOVAI	0x14
0003ff   4854     rsubar  0x54             	RSUBAR	_i
000400   e187     jbset   0x187, 0         	JBSET	PFLAG,0
000401   a3c9     goto    0x3c9            	GOTO	_00438_DS_
                                           ;;genSkipc:3291: created from rifx:013B5EFC
                                           ;	.line	449; "MC32F7361.c"	adc_val_sum -= get_adcmax;        // 
000402   5846     movar   0x46             	MOVAR	_get_adcmax
000403   5618     movra   0x18             	MOVRA	r0x1045
000404   5847     movar   0x47             	MOVAR	(_get_adcmax + 1)
000405   5619     movra   0x19             	MOVRA	r0x1046
000406   761a     clrr    0x1a             	CLRR	r0x1047
000407   761b     clrr    0x1b             	CLRR	r0x1048
000408   5818     movar   0x18             	MOVAR	r0x1045
000409   4a3b     rsubra  0x3b             	RSUBRA	_adc_val_sum
00040a   5819     movar   0x19             	MOVAR	r0x1046
00040b   e187     jbset   0x187, 0         	JBSET	PFLAG,0
00040c   6019     jzar    0x19             	JZAR	r0x1046
00040d   4a3c     rsubra  0x3c             	RSUBRA	(_adc_val_sum + 1)
00040e   581a     movar   0x1a             	MOVAR	r0x1047
00040f   e187     jbset   0x187, 0         	JBSET	PFLAG,0
000410   601a     jzar    0x1a             	JZAR	r0x1047
000411   4a3d     rsubra  0x3d             	RSUBRA	(_adc_val_sum + 2)
000412   581b     movar   0x1b             	MOVAR	r0x1048
000413   e187     jbset   0x187, 0         	JBSET	PFLAG,0
000414   601b     jzar    0x1b             	JZAR	r0x1048
000415   4a3e     rsubra  0x3e             	RSUBRA	(_adc_val_sum + 3)
                                           ;	.line	450; "MC32F7361.c"	adc_val_sum -= get_adcmin;        // 
000416   5848     movar   0x48             	MOVAR	_get_adcmin
000417   5618     movra   0x18             	MOVRA	r0x1045
000418   5849     movar   0x49             	MOVAR	(_get_adcmin + 1)
000419   5619     movra   0x19             	MOVRA	r0x1046
00041a   761a     clrr    0x1a             	CLRR	r0x1047
00041b   761b     clrr    0x1b             	CLRR	r0x1048
00041c   5818     movar   0x18             	MOVAR	r0x1045
00041d   4a3b     rsubra  0x3b             	RSUBRA	_adc_val_sum
00041e   5819     movar   0x19             	MOVAR	r0x1046
00041f   e187     jbset   0x187, 0         	JBSET	PFLAG,0
000420   6019     jzar    0x19             	JZAR	r0x1046
000421   4a3c     rsubra  0x3c             	RSUBRA	(_adc_val_sum + 1)
000422   581a     movar   0x1a             	MOVAR	r0x1047
000423   e187     jbset   0x187, 0         	JBSET	PFLAG,0
000424   601a     jzar    0x1a             	JZAR	r0x1047
000425   4a3d     rsubra  0x3d             	RSUBRA	(_adc_val_sum + 2)
000426   581b     movar   0x1b             	MOVAR	r0x1048
000427   e187     jbset   0x187, 0         	JBSET	PFLAG,0
000428   601b     jzar    0x1b             	JZAR	r0x1048
000429   4a3e     rsubra  0x3e             	RSUBRA	(_adc_val_sum + 3)
                                           ;	.line	451; "MC32F7361.c"	adc_val_tmp = (adc_val_sum >> 4); // 16
00042a   443b     swapar  0x3b             	SWAPAR	_adc_val_sum
00042b   3e0f     andai   0xf              	ANDAI	0x0f
00042c   5618     movra   0x18             	MOVRA	r0x1045
00042d   443c     swapar  0x3c             	SWAPAR	(_adc_val_sum + 1)
00042e   5619     movra   0x19             	MOVRA	r0x1046
00042f   3ef0     andai   0xf0             	ANDAI	0xf0
000430   5e18     orra    0x18             	ORRA	r0x1045
000431   4219     xorra   0x19             	XORRA	r0x1046
000432   443d     swapar  0x3d             	SWAPAR	(_adc_val_sum + 2)
000433   561a     movra   0x1a             	MOVRA	r0x1047
000434   3ef0     andai   0xf0             	ANDAI	0xf0
000435   5e19     orra    0x19             	ORRA	r0x1046
000436   421a     xorra   0x1a             	XORRA	r0x1047
000437   443e     swapar  0x3e             	SWAPAR	(_adc_val_sum + 3)
000438   561b     movra   0x1b             	MOVRA	r0x1048
000439   3ef0     andai   0xf0             	ANDAI	0xf0
00043a   5e1a     orra    0x1a             	ORRA	r0x1047
00043b   421b     xorra   0x1b             	XORRA	r0x1048
00043c   5818     movar   0x18             	MOVAR	r0x1045
00043d   5644     movra   0x44             	MOVRA	_adc_val_tmp
00043e   5819     movar   0x19             	MOVAR	r0x1046
00043f   5645     movra   0x45             	MOVRA	(_adc_val_tmp + 1)
                                           ;	.line	453; "MC32F7361.c"	return adc_val_tmp;
000440   5844     movar   0x44             	MOVAR	_adc_val_tmp
000441   5606     movra   0x6              	MOVRA	STK00
000442   5845     movar   0x45             	MOVAR	(_adc_val_tmp + 1)
                                           ;	.line	454; "MC32F7361.c"	}
000443   000c     return                   	RETURN	
                                           ; exit point of _adc_get_val
                                           
                                           ;***
                                           ;  pBlock Stats: dbName = C
                                           ;***
                                           ;entry:  _adc_single_convert	;Function start
                                           ; 2 exit points
                                           ;has an exit
                                           ;7 compiler assigned registers:
                                           ;   r0x1038
                                           ;   r0x1039
                                           ;   r0x103A
                                           ;   r0x103B
                                           ;   r0x103C
                                           ;   r0x103D
                                           ;   STK00
                                           ;; Starting pCode block
                                           _adc_single_convert	;Function start
                                           ; 2 exit points
                                           ;	.line	423; "MC32F7361.c"	ADEOC = 0;
000444   d3b0     bclr    0x1b0, 0x1       	BCLR	_ADCR0bits,1
                                           _00425_DS_
                                           ;	.line	424; "MC32F7361.c"	while (!ADEOC)
000445   e3b0     jbset   0x1b0, 0x1       	JBSET	_ADCR0bits,1
000446   a445     goto    0x445            	GOTO	_00425_DS_
                                           ;	.line	426; "MC32F7361.c"	adc_val_tmp = ADRH;
000447   59b4     movar   0x1b4            	MOVAR	_ADRH
000448   5644     movra   0x44             	MOVRA	_adc_val_tmp
000449   7645     clrr    0x45             	CLRR	(_adc_val_tmp + 1)
                                           ;	.line	427; "MC32F7361.c"	adc_val_tmp = adc_val_tmp << 4 | (ADRL & 0x0F);
00044a   4445     swapar  0x45             	SWAPAR	(_adc_val_tmp + 1)
00044b   3ef0     andai   0xf0             	ANDAI	0xf0
00044c   5608     movra   0x8              	MOVRA	r0x1038
00044d   4444     swapar  0x44             	SWAPAR	_adc_val_tmp
00044e   5607     movra   0x7              	MOVRA	r0x1039
00044f   3e0f     andai   0xf              	ANDAI	0x0f
000450   5e08     orra    0x8              	ORRA	r0x1038
000451   4207     xorra   0x7              	XORRA	r0x1039
000452   59b5     movar   0x1b5            	MOVAR	_ADRL
000453   5609     movra   0x9              	MOVRA	r0x103A
000454   760a     clrr    0xa              	CLRR	r0x103B
000455   3c0f     movai   0xf              	MOVAI	0x0f
000456   7a09     andra   0x9              	ANDRA	r0x103A
000457   760a     clrr    0xa              	CLRR	r0x103B
                                           ;;101	MOVAR	r0x103A
                                           ;;99	MOVRA	r0x103C
                                           ;;104	MOVAR	r0x103B
                                           ;;102	MOVRA	r0x103D
                                           ;;100	MOVAR	r0x103C
000458   5809     movar   0x9              	MOVAR	r0x103A
000459   5c07     orar    0x7              	ORAR	r0x1039
00045a   5644     movra   0x44             	MOVRA	_adc_val_tmp
                                           ;;103	MOVAR	r0x103D
00045b   3c00     movai   0                	MOVAI	0x00
00045c   5c08     orar    0x8              	ORAR	r0x1038
00045d   5645     movra   0x45             	MOVRA	(_adc_val_tmp + 1)
                                           ;	.line	428; "MC32F7361.c"	return adc_val_tmp;
00045e   5844     movar   0x44             	MOVAR	_adc_val_tmp
00045f   5606     movra   0x6              	MOVRA	STK00
000460   5845     movar   0x45             	MOVAR	(_adc_val_tmp + 1)
                                           ;	.line	429; "MC32F7361.c"	}
000461   000c     return                   	RETURN	
                                           ; exit point of _adc_single_convert
                                           
                                           ;***
                                           ;  pBlock Stats: dbName = C
                                           ;***
                                           ;entry:  _adc_channel_sel	;Function start
                                           ; 2 exit points
                                           ;has an exit
                                           ;functions called:
                                           ;   _delay_ms
                                           ;   _delay_ms
                                           ;2 compiler assigned registers:
                                           ;   r0x103E
                                           ;   STK00
                                           ;; Starting pCode block
                                           _adc_channel_sel	;Function start
                                           ; 2 exit points
                                           ;	.line	401; "MC32F7361.c"	void adc_channel_sel(u8 adc_channel)
000462   5617     movra   0x17             	MOVRA	r0x103E
                                           ;	.line	403; "MC32F7361.c"	switch (adc_channel)
000463   5817     movar   0x17             	MOVAR	r0x103E
000464   e587     jbset   0x187, 0x2       	JBSET	PFLAG,2
000465   a467     goto    0x467            	GOTO	_00420_DS_
000466   a470     goto    0x470            	GOTO	_00407_DS_
                                           _00420_DS_
000467   5817     movar   0x17             	MOVAR	r0x103E
000468   3901     xorai   0x1              	XORAI	0x01
000469   e587     jbset   0x187, 0x2       	JBSET	PFLAG,2
00046a   a474     goto    0x474            	GOTO	_00409_DS_
                                           ;	.line	406; "MC32F7361.c"	ADCR0 = 0x7F; // AN7ADC
00046b   3c7f     movai   0x7f             	MOVAI	0x7f
00046c   57b0     movra   0x1b0            	MOVRA	_ADCR0
                                           ;	.line	407; "MC32F7361.c"	ADCR1 = 0x83; // adc == FHIRC/32VDD5V
00046d   3c83     movai   0x83             	MOVAI	0x83
00046e   57b1     movra   0x1b1            	MOVRA	_ADCR1
                                           ;	.line	408; "MC32F7361.c"	break;
00046f   a474     goto    0x474            	GOTO	_00409_DS_
                                           _00407_DS_
                                           ;	.line	411; "MC32F7361.c"	ADCR0 = 0xAF; // 1/VDDADC
000470   3caf     movai   0xaf             	MOVAI	0xaf
000471   57b0     movra   0x1b0            	MOVRA	_ADCR0
                                           ;	.line	412; "MC32F7361.c"	ADCR1 = 0x80; // adc == FHIRC/322V
000472   3c80     movai   0x80             	MOVAI	0x80
000473   57b1     movra   0x1b1            	MOVRA	_ADCR1
                                           _00409_DS_
                                           ;	.line	418; "MC32F7361.c"	delay_ms(1);
000474   3c01     movai   0x1              	MOVAI	0x01
000475   5606     movra   0x6              	MOVRA	STK00
000476   3c00     movai   0                	MOVAI	0x00
000477   86a6     call    0x6a6            	CALL	_delay_ms
                                           ;	.line	419; "MC32F7361.c"	}
000478   000c     return                   	RETURN	
                                           ; exit point of _adc_channel_sel
                                           
                                           ;***
                                           ;  pBlock Stats: dbName = C
                                           ;***
                                           ;entry:  _Sys_Init	;Function start
                                           ; 2 exit points
                                           ;has an exit
                                           ;functions called:
                                           ;   _CLR_RAM
                                           ;   _IO_Init
                                           ;   _adc_config
                                           ;   _timer1_config
                                           ;   _TM1650_Init
                                           ;   _pwm_led_config
                                           ;   _timer3_config
                                           ;   _delay_ms
                                           ;   _CLR_RAM
                                           ;   _IO_Init
                                           ;   _adc_config
                                           ;   _timer1_config
                                           ;   _TM1650_Init
                                           ;   _pwm_led_config
                                           ;   _timer3_config
                                           ;   _delay_ms
                                           ;1 compiler assigned register :
                                           ;   STK00
                                           ;; Starting pCode block
                                           _Sys_Init	;Function start
                                           ; 2 exit points
                                           ;	.line	368; "MC32F7361.c"	GIE = 0;
000479   df88     bclr    0x188, 0x7       	BCLR	_MCRbits,7
                                           ;	.line	369; "MC32F7361.c"	CLR_RAM();
00047a   8691     call    0x691            	CALL	_CLR_RAM
                                           ;	.line	370; "MC32F7361.c"	IO_Init();
00047b   867c     call    0x67c            	CALL	_IO_Init
                                           ;	.line	372; "MC32F7361.c"	adc_config();
00047c   8674     call    0x674            	CALL	_adc_config
                                           ;	.line	373; "MC32F7361.c"	timer1_config(); // 
00047d   866d     call    0x66d            	CALL	_timer1_config
                                           ;	.line	374; "MC32F7361.c"	TM1650_Init();   // LEDIC
00047e   8157     call    0x157            	CALL	_TM1650_Init
                                           ;	.line	375; "MC32F7361.c"	pwm_led_config();
00047f   8654     call    0x654            	CALL	_pwm_led_config
                                           ;	.line	376; "MC32F7361.c"	timer3_config();
000480   8666     call    0x666            	CALL	_timer3_config
                                           ;	.line	379; "MC32F7361.c"	P03PD = 1; // 
000481   c793     bset    0x193, 0x3       	BSET	_PDP0bits,3
                                           ;	.line	380; "MC32F7361.c"	P03OE = 1; // 
000482   c791     bset    0x191, 0x3       	BSET	_OEP0bits,3
                                           ;	.line	383; "MC32F7361.c"	BLE_CTL_PIN_IN();
000483   d3b9     bclr    0x1b9, 0x1       	BCLR	_OEP2bits,1
                                           ;	.line	387; "MC32F7361.c"	P20PU = 1; // 
000484   c1ba     bset    0x1ba, 0         	BSET	_PUP2bits,0
                                           ;	.line	388; "MC32F7361.c"	P20OE = 0;
000485   d1b9     bclr    0x1b9, 0         	BCLR	_OEP2bits,0
                                           ;	.line	394; "MC32F7361.c"	delay_ms(1); // 
000486   3c01     movai   0x1              	MOVAI	0x01
000487   5606     movra   0x6              	MOVRA	STK00
000488   3c00     movai   0                	MOVAI	0x00
000489   86a6     call    0x6a6            	CALL	_delay_ms
                                           ;	.line	396; "MC32F7361.c"	GIE = 1;
00048a   cf88     bset    0x188, 0x7       	BSET	_MCRbits,7
                                           ;	.line	397; "MC32F7361.c"	}
00048b   000c     return                   	RETURN	
                                           ; exit point of _Sys_Init
                                           
                                           ;***
                                           ;  pBlock Stats: dbName = C
                                           ;***
                                           ;entry:  _timer_100us_isr	;Function start
                                           ; 2 exit points
                                           ;has an exit
                                           ;10 compiler assigned registers:
                                           ;   r0x1049
                                           ;   r0x104A
                                           ;   r0x104B
                                           ;   r0x104C
                                           ;   r0x104D
                                           ;   r0x104E
                                           ;   r0x104F
                                           ;   r0x1050
                                           ;   r0x1051
                                           ;   r0x1052
                                           ;; Starting pCode block
                                           _timer_100us_isr	;Function start
                                           ; 2 exit points
                                           ;	.line	181; "MC32F7361.c"	if (g_state == TX_START || g_state == TX_SENDING_BIT || g_state == TX_SENDING_LOW)
00048c   5864     movar   0x64             	MOVAR	_g_state
00048d   3901     xorai   0x1              	XORAI	0x01
00048e   e587     jbset   0x187, 0x2       	JBSET	PFLAG,2
00048f   a491     goto    0x491            	GOTO	_00366_DS_
000490   a49a     goto    0x49a            	GOTO	_00194_DS_
                                           _00366_DS_
000491   5864     movar   0x64             	MOVAR	_g_state
000492   3902     xorai   0x2              	XORAI	0x02
000493   e587     jbset   0x187, 0x2       	JBSET	PFLAG,2
000494   a496     goto    0x496            	GOTO	_00367_DS_
000495   a49a     goto    0x49a            	GOTO	_00194_DS_
                                           _00367_DS_
000496   5864     movar   0x64             	MOVAR	_g_state
000497   3903     xorai   0x3              	XORAI	0x03
000498   e587     jbset   0x187, 0x2       	JBSET	PFLAG,2
000499   a562     goto    0x562            	GOTO	_00195_DS_
                                           _00194_DS_
                                           ;	.line	183; "MC32F7361.c"	switch (g_state)
00049a   5864     movar   0x64             	MOVAR	_g_state
00049b   560d     movra   0xd              	MOVRA	r0x1049
                                           ;;unsigned compare: left < lit(0x1=1), size=1
00049c   3c01     movai   0x1              	MOVAI	0x01
00049d   480d     rsubar  0xd              	RSUBAR	r0x1049
00049e   e187     jbset   0x187, 0         	JBSET	PFLAG,0
00049f   a561     goto    0x561            	GOTO	_00193_DS_
                                           ;;genSkipc:3291: created from rifx:013B5EFC
                                           ;;swapping arguments (AOP_TYPEs 1/2)
                                           ;;unsigned compare: left >= lit(0x4=4), size=1
0004a0   3c04     movai   0x4              	MOVAI	0x04
0004a1   480d     rsubar  0xd              	RSUBAR	r0x1049
0004a2   f187     jbclr   0x187, 0         	JBCLR	PFLAG,0
0004a3   a561     goto    0x561            	GOTO	_00193_DS_
                                           ;;genSkipc:3291: created from rifx:013B5EFC
0004a4   6e0d     decr    0xd              	DECR	r0x1049
0004a5   580d     movar   0xd              	MOVAR	r0x1049
0004a6   7f86     addra   0x186            	ADDRA	PCL
0004a7   a4aa     goto    0x4aa            	GOTO	_00161_DS_
0004a8   a4b6     goto    0x4b6            	GOTO	_00164_DS_
0004a9   a4f8     goto    0x4f8            	GOTO	_00172_DS_
                                           _00161_DS_
                                           ;	.line	186; "MC32F7361.c"	if (++g_timer_count >= START_SIGNAL_TIME)
0004aa   6426     incar   0x26             	INCAR	_g_timer_count
0004ab   5626     movra   0x26             	MOVRA	_g_timer_count
0004ac   560d     movra   0xd              	MOVRA	r0x1049
                                           ;;116	MOVAR	r0x1049
                                           ;;unsigned compare: left < lit(0x64=100), size=1
0004ad   3c64     movai   0x64             	MOVAI	0x64
0004ae   480d     rsubar  0xd              	RSUBAR	r0x1049
0004af   e187     jbset   0x187, 0         	JBSET	PFLAG,0
0004b0   a561     goto    0x561            	GOTO	_00193_DS_
                                           ;;genSkipc:3291: created from rifx:013B5EFC
                                           ;	.line	188; "MC32F7361.c"	g_timer_count = 0;
0004b1   7626     clrr    0x26             	CLRR	_g_timer_count
                                           ;	.line	189; "MC32F7361.c"	g_state = TX_SENDING_BIT;
0004b2   3c02     movai   0x2              	MOVAI	0x02
0004b3   5664     movra   0x64             	MOVRA	_g_state
                                           ;	.line	190; "MC32F7361.c"	set_pin_high();
0004b4   c794     bset    0x194, 0x3       	BSET	_IOP1bits,3
                                           ;	.line	192; "MC32F7361.c"	break;
0004b5   a561     goto    0x561            	GOTO	_00193_DS_
                                           _00164_DS_
                                           ;	.line	195; "MC32F7361.c"	if (g_data[g_byte_count] & SEND_SEND_BIT(g_bit_count))
0004b6   5824     movar   0x24             	MOVAR	_g_byte_count
0004b7   3f30     addai   0x30             	ADDAI	(_g_data + 0)
0004b8   560d     movra   0xd              	MOVRA	r0x1049
0004b9   3c00     movai   0                	MOVAI	high (_g_data + 0)
0004ba   f187     jbclr   0x187, 0         	JBCLR	PFLAG,0
0004bb   3f01     addai   0x1              	ADDAI	0x01
0004bc   560e     movra   0xe              	MOVRA	r0x104A
0004bd   580d     movar   0xd              	MOVAR	r0x1049
0004be   5784     movra   0x184            	MOVRA	FSR0
0004bf   580e     movar   0xe              	MOVAR	r0x104A
0004c0   5785     movra   0x185            	MOVRA	FSR1
0004c1   5982     movar   0x182            	MOVAR	INDF2
0004c2   560f     movra   0xf              	MOVRA	r0x104B
0004c3   5825     movar   0x25             	MOVAR	_g_bit_count
0004c4   3a07     isubai  0x7              	ISUBAI	0x07
0004c5   560d     movra   0xd              	MOVRA	r0x1049
0004c6   3c00     movai   0                	MOVAI	0x00
0004c7   5611     movra   0x11             	MOVRA	r0x104C
0004c8   3c01     movai   0x1              	MOVAI	0x01
0004c9   5610     movra   0x10             	MOVRA	r0x104D
0004ca   580d     movar   0xd              	MOVAR	r0x1049
0004cb   3a00     isubai  0                	ISUBAI	0x00
0004cc   f587     jbclr   0x187, 0x2       	JBCLR	PFLAG,2
0004cd   a4d3     goto    0x4d3            	GOTO	_00373_DS_
                                           _00372_DS_
0004ce   5210     rlr     0x10             	RLR	r0x104D
0004cf   5211     rlr     0x11             	RLR	r0x104C
0004d0   3f01     addai   0x1              	ADDAI	0x01
0004d1   e187     jbset   0x187, 0         	JBSET	PFLAG,0
0004d2   a4ce     goto    0x4ce            	GOTO	_00372_DS_
                                           _00373_DS_
0004d3   580f     movar   0xf              	MOVAR	r0x104B
0004d4   560d     movra   0xd              	MOVRA	r0x1049
0004d5   7612     clrr    0x12             	CLRR	r0x104E
0004d6   5810     movar   0x10             	MOVAR	r0x104D
0004d7   780d     andar   0xd              	ANDAR	r0x1049
0004d8   560f     movra   0xf              	MOVRA	r0x104B
0004d9   5811     movar   0x11             	MOVAR	r0x104C
0004da   7812     andar   0x12             	ANDAR	r0x104E
0004db   5613     movra   0x13             	MOVRA	r0x104F
0004dc   580f     movar   0xf              	MOVAR	r0x104B
0004dd   5c13     orar    0x13             	ORAR	r0x104F
0004de   f587     jbclr   0x187, 0x2       	JBCLR	PFLAG,2
0004df   a4ec     goto    0x4ec            	GOTO	_00170_DS_
                                           ;	.line	198; "MC32F7361.c"	if (++g_timer_count >= BIT1_HIGH_TIME)
0004e0   6426     incar   0x26             	INCAR	_g_timer_count
0004e1   5626     movra   0x26             	MOVRA	_g_timer_count
0004e2   560f     movra   0xf              	MOVRA	r0x104B
                                           ;;107	MOVAR	r0x104B
                                           ;;unsigned compare: left < lit(0xA=10), size=1
0004e3   3c0a     movai   0xa              	MOVAI	0x0a
0004e4   480f     rsubar  0xf              	RSUBAR	r0x104B
0004e5   e187     jbset   0x187, 0         	JBSET	PFLAG,0
0004e6   a561     goto    0x561            	GOTO	_00193_DS_
                                           ;;genSkipc:3291: created from rifx:013B5EFC
                                           ;	.line	200; "MC32F7361.c"	g_timer_count = 0;
0004e7   7626     clrr    0x26             	CLRR	_g_timer_count
                                           ;	.line	201; "MC32F7361.c"	g_state = TX_SENDING_LOW;
0004e8   3c03     movai   0x3              	MOVAI	0x03
0004e9   5664     movra   0x64             	MOVRA	_g_state
                                           ;	.line	202; "MC32F7361.c"	set_pin_low();
0004ea   d794     bclr    0x194, 0x3       	BCLR	_IOP1bits,3
0004eb   a561     goto    0x561            	GOTO	_00193_DS_
                                           _00170_DS_
                                           ;	.line	208; "MC32F7361.c"	if (++g_timer_count >= BIT0_HIGH_TIME)
0004ec   6426     incar   0x26             	INCAR	_g_timer_count
0004ed   5626     movra   0x26             	MOVRA	_g_timer_count
0004ee   560d     movra   0xd              	MOVRA	r0x1049
                                           ;;115	MOVAR	r0x1049
                                           ;;unsigned compare: left < lit(0x5=5), size=1
0004ef   3c05     movai   0x5              	MOVAI	0x05
0004f0   480d     rsubar  0xd              	RSUBAR	r0x1049
0004f1   e187     jbset   0x187, 0         	JBSET	PFLAG,0
0004f2   a561     goto    0x561            	GOTO	_00193_DS_
                                           ;;genSkipc:3291: created from rifx:013B5EFC
                                           ;	.line	210; "MC32F7361.c"	g_timer_count = 0;
0004f3   7626     clrr    0x26             	CLRR	_g_timer_count
                                           ;	.line	211; "MC32F7361.c"	g_state = TX_SENDING_LOW;
0004f4   3c03     movai   0x3              	MOVAI	0x03
0004f5   5664     movra   0x64             	MOVRA	_g_state
                                           ;	.line	212; "MC32F7361.c"	set_pin_low();
0004f6   d794     bclr    0x194, 0x3       	BCLR	_IOP1bits,3
                                           ;	.line	215; "MC32F7361.c"	break;
0004f7   a561     goto    0x561            	GOTO	_00193_DS_
                                           _00172_DS_
                                           ;	.line	218; "MC32F7361.c"	if (g_data[g_byte_count] & SEND_SEND_BIT(g_bit_count))
0004f8   5824     movar   0x24             	MOVAR	_g_byte_count
0004f9   3f30     addai   0x30             	ADDAI	(_g_data + 0)
0004fa   560d     movra   0xd              	MOVRA	r0x1049
0004fb   3c00     movai   0                	MOVAI	high (_g_data + 0)
0004fc   f187     jbclr   0x187, 0         	JBCLR	PFLAG,0
0004fd   3f01     addai   0x1              	ADDAI	0x01
0004fe   560f     movra   0xf              	MOVRA	r0x104B
0004ff   580d     movar   0xd              	MOVAR	r0x1049
000500   5784     movra   0x184            	MOVRA	FSR0
000501   580f     movar   0xf              	MOVAR	r0x104B
000502   5785     movra   0x185            	MOVRA	FSR1
000503   5982     movar   0x182            	MOVAR	INDF2
000504   5610     movra   0x10             	MOVRA	r0x104D
000505   5825     movar   0x25             	MOVAR	_g_bit_count
000506   3a07     isubai  0x7              	ISUBAI	0x07
000507   560d     movra   0xd              	MOVRA	r0x1049
000508   3c00     movai   0                	MOVAI	0x00
000509   5612     movra   0x12             	MOVRA	r0x104E
00050a   3c01     movai   0x1              	MOVAI	0x01
00050b   5611     movra   0x11             	MOVRA	r0x104C
00050c   580d     movar   0xd              	MOVAR	r0x1049
00050d   3a00     isubai  0                	ISUBAI	0x00
00050e   f587     jbclr   0x187, 0x2       	JBCLR	PFLAG,2
00050f   a515     goto    0x515            	GOTO	_00377_DS_
                                           _00376_DS_
000510   5211     rlr     0x11             	RLR	r0x104C
000511   5212     rlr     0x12             	RLR	r0x104E
000512   3f01     addai   0x1              	ADDAI	0x01
000513   e187     jbset   0x187, 0         	JBSET	PFLAG,0
000514   a510     goto    0x510            	GOTO	_00376_DS_
                                           _00377_DS_
000515   5810     movar   0x10             	MOVAR	r0x104D
000516   560d     movra   0xd              	MOVRA	r0x1049
000517   7614     clrr    0x14             	CLRR	r0x1050
000518   5811     movar   0x11             	MOVAR	r0x104C
000519   780d     andar   0xd              	ANDAR	r0x1049
00051a   5610     movra   0x10             	MOVRA	r0x104D
00051b   5812     movar   0x12             	MOVAR	r0x104E
00051c   7814     andar   0x14             	ANDAR	r0x1050
00051d   5615     movra   0x15             	MOVRA	r0x1051
00051e   5810     movar   0x10             	MOVAR	r0x104D
00051f   5c15     orar    0x15             	ORAR	r0x1051
000520   f587     jbclr   0x187, 0x2       	JBCLR	PFLAG,2
000521   a542     goto    0x542            	GOTO	_00190_DS_
                                           ;	.line	221; "MC32F7361.c"	if (++g_timer_count >= BIT1_LOW_TIME)
000522   6426     incar   0x26             	INCAR	_g_timer_count
000523   5626     movra   0x26             	MOVRA	_g_timer_count
000524   5610     movra   0x10             	MOVRA	r0x104D
                                           ;;108	MOVAR	r0x104D
                                           ;;unsigned compare: left < lit(0x5=5), size=1
000525   3c05     movai   0x5              	MOVAI	0x05
000526   4810     rsubar  0x10             	RSUBAR	r0x104D
000527   e187     jbset   0x187, 0         	JBSET	PFLAG,0
000528   a561     goto    0x561            	GOTO	_00193_DS_
                                           ;;genSkipc:3291: created from rifx:013B5EFC
                                           ;	.line	223; "MC32F7361.c"	g_timer_count = 0;
000529   7626     clrr    0x26             	CLRR	_g_timer_count
                                           ;	.line	224; "MC32F7361.c"	if (++g_bit_count >= 8)
00052a   6425     incar   0x25             	INCAR	_g_bit_count
00052b   5625     movra   0x25             	MOVRA	_g_bit_count
00052c   560d     movra   0xd              	MOVRA	r0x1049
                                           ;;114	MOVAR	r0x1049
                                           ;;unsigned compare: left < lit(0x8=8), size=1
00052d   3c08     movai   0x8              	MOVAI	0x08
00052e   480d     rsubar  0xd              	RSUBAR	r0x1049
00052f   e187     jbset   0x187, 0         	JBSET	PFLAG,0
000530   a53a     goto    0x53a            	GOTO	_00176_DS_
                                           ;;genSkipc:3291: created from rifx:013B5EFC
                                           ;	.line	226; "MC32F7361.c"	g_bit_count = 0;
000531   7625     clrr    0x25             	CLRR	_g_bit_count
                                           ;	.line	227; "MC32F7361.c"	if (++g_byte_count >= SEND_DATA_LEN)
000532   6424     incar   0x24             	INCAR	_g_byte_count
000533   5624     movra   0x24             	MOVRA	_g_byte_count
000534   560d     movra   0xd              	MOVRA	r0x1049
                                           ;;113	MOVAR	r0x1049
                                           ;;unsigned compare: left < lit(0x3=3), size=1
000535   3c03     movai   0x3              	MOVAI	0x03
000536   480d     rsubar  0xd              	RSUBAR	r0x1049
000537   e187     jbset   0x187, 0         	JBSET	PFLAG,0
000538   a53a     goto    0x53a            	GOTO	_00176_DS_
                                           ;;genSkipc:3291: created from rifx:013B5EFC
                                           ;	.line	229; "MC32F7361.c"	g_state = IDLE;
000539   7664     clrr    0x64             	CLRR	_g_state
                                           _00176_DS_
                                           ;	.line	232; "MC32F7361.c"	if (g_state != IDLE)
00053a   3c00     movai   0                	MOVAI	0x00
00053b   5c64     orar    0x64             	ORAR	_g_state
00053c   f587     jbclr   0x187, 0x2       	JBCLR	PFLAG,2
00053d   a561     goto    0x561            	GOTO	_00193_DS_
                                           ;	.line	234; "MC32F7361.c"	g_state = TX_SENDING_BIT;
00053e   3c02     movai   0x2              	MOVAI	0x02
00053f   5664     movra   0x64             	MOVRA	_g_state
                                           ;	.line	235; "MC32F7361.c"	set_pin_high();
000540   c794     bset    0x194, 0x3       	BSET	_IOP1bits,3
000541   a561     goto    0x561            	GOTO	_00193_DS_
                                           _00190_DS_
                                           ;	.line	242; "MC32F7361.c"	if (++g_timer_count >= BIT0_LOW_TIME)
000542   6426     incar   0x26             	INCAR	_g_timer_count
000543   5626     movra   0x26             	MOVRA	_g_timer_count
000544   560d     movra   0xd              	MOVRA	r0x1049
                                           ;;112	MOVAR	r0x1049
                                           ;;unsigned compare: left < lit(0xA=10), size=1
000545   3c0a     movai   0xa              	MOVAI	0x0a
000546   480d     rsubar  0xd              	RSUBAR	r0x1049
000547   e187     jbset   0x187, 0         	JBSET	PFLAG,0
000548   a561     goto    0x561            	GOTO	_00193_DS_
                                           ;;genSkipc:3291: created from rifx:013B5EFC
                                           ;	.line	244; "MC32F7361.c"	g_timer_count = 0;
000549   7626     clrr    0x26             	CLRR	_g_timer_count
                                           ;	.line	245; "MC32F7361.c"	if (++g_bit_count >= 8)
00054a   6425     incar   0x25             	INCAR	_g_bit_count
00054b   5625     movra   0x25             	MOVRA	_g_bit_count
00054c   560d     movra   0xd              	MOVRA	r0x1049
                                           ;;111	MOVAR	r0x1049
                                           ;;unsigned compare: left < lit(0x8=8), size=1
00054d   3c08     movai   0x8              	MOVAI	0x08
00054e   480d     rsubar  0xd              	RSUBAR	r0x1049
00054f   e187     jbset   0x187, 0         	JBSET	PFLAG,0
000550   a55a     goto    0x55a            	GOTO	_00184_DS_
                                           ;;genSkipc:3291: created from rifx:013B5EFC
                                           ;	.line	247; "MC32F7361.c"	g_bit_count = 0;
000551   7625     clrr    0x25             	CLRR	_g_bit_count
                                           ;	.line	248; "MC32F7361.c"	if (++g_byte_count >= SEND_DATA_LEN)
000552   6424     incar   0x24             	INCAR	_g_byte_count
000553   5624     movra   0x24             	MOVRA	_g_byte_count
000554   560d     movra   0xd              	MOVRA	r0x1049
                                           ;;106	MOVAR	r0x1049
                                           ;;unsigned compare: left < lit(0x3=3), size=1
000555   3c03     movai   0x3              	MOVAI	0x03
000556   480d     rsubar  0xd              	RSUBAR	r0x1049
000557   e187     jbset   0x187, 0         	JBSET	PFLAG,0
000558   a55a     goto    0x55a            	GOTO	_00184_DS_
                                           ;;genSkipc:3291: created from rifx:013B5EFC
                                           ;	.line	250; "MC32F7361.c"	g_state = IDLE;
000559   7664     clrr    0x64             	CLRR	_g_state
                                           _00184_DS_
                                           ;	.line	253; "MC32F7361.c"	if (g_state != IDLE)
00055a   3c00     movai   0                	MOVAI	0x00
00055b   5c64     orar    0x64             	ORAR	_g_state
00055c   f587     jbclr   0x187, 0x2       	JBCLR	PFLAG,2
00055d   a561     goto    0x561            	GOTO	_00193_DS_
                                           ;	.line	255; "MC32F7361.c"	g_state = TX_SENDING_BIT;
00055e   3c02     movai   0x2              	MOVAI	0x02
00055f   5664     movra   0x64             	MOVRA	_g_state
                                           ;	.line	256; "MC32F7361.c"	set_pin_high();
000560   c794     bset    0x194, 0x3       	BSET	_IOP1bits,3
                                           _00193_DS_
                                           ;	.line	266; "MC32F7361.c"	return;
000561   a627     goto    0x627            	GOTO	_00228_DS_
                                           _00195_DS_
                                           ;	.line	270; "MC32F7361.c"	set_pin_high();
000562   c794     bset    0x194, 0x3       	BSET	_IOP1bits,3
                                           ;	.line	274; "MC32F7361.c"	pin_state = get_pin_state();
000563   760d     clrr    0xd              	CLRR	r0x1049
000564   f1b8     jbclr   0x1b8, 0         	JBCLR	_IOP2bits,0
000565   660d     incr    0xd              	INCR	r0x1049
000566   580d     movar   0xd              	MOVAR	r0x1049
000567   5658     movra   0x58             	MOVRA	_pin_state
                                           ;	.line	276; "MC32F7361.c"	switch (g_state)
000568   5864     movar   0x64             	MOVAR	_g_state
000569   560d     movra   0xd              	MOVRA	r0x1049
00056a   580d     movar   0xd              	MOVAR	r0x1049
00056b   e587     jbset   0x187, 0x2       	JBSET	PFLAG,2
00056c   a56e     goto    0x56e            	GOTO	_00384_DS_
00056d   a57e     goto    0x57e            	GOTO	_00199_DS_
                                           _00384_DS_
00056e   580d     movar   0xd              	MOVAR	r0x1049
00056f   3904     xorai   0x4              	XORAI	0x04
000570   e587     jbset   0x187, 0x2       	JBSET	PFLAG,2
000571   a573     goto    0x573            	GOTO	_00385_DS_
000572   a59b     goto    0x59b            	GOTO	_00203_DS_
                                           _00385_DS_
000573   580d     movar   0xd              	MOVAR	r0x1049
000574   3905     xorai   0x5              	XORAI	0x05
000575   e587     jbset   0x187, 0x2       	JBSET	PFLAG,2
000576   a578     goto    0x578            	GOTO	_00386_DS_
000577   a5ae     goto    0x5ae            	GOTO	_00210_DS_
                                           _00386_DS_
000578   580d     movar   0xd              	MOVAR	r0x1049
000579   3906     xorai   0x6              	XORAI	0x06
00057a   e587     jbset   0x187, 0x2       	JBSET	PFLAG,2
00057b   a57d     goto    0x57d            	GOTO	_00387_DS_
00057c   a603     goto    0x603            	GOTO	_00222_DS_
                                           _00387_DS_
00057d   a625     goto    0x625            	GOTO	_00225_DS_
                                           _00199_DS_
                                           ;	.line	279; "MC32F7361.c"	if (pin_state == 0)
00057e   3c00     movai   0                	MOVAI	0x00
00057f   5c58     orar    0x58             	ORAR	_pin_state
000580   e587     jbset   0x187, 0x2       	JBSET	PFLAG,2
000581   a625     goto    0x625            	GOTO	_00225_DS_
                                           ;	.line	281; "MC32F7361.c"	g_timer_count = 0;
000582   7626     clrr    0x26             	CLRR	_g_timer_count
                                           ;	.line	282; "MC32F7361.c"	g_state = RX_START;
000583   3c04     movai   0x4              	MOVAI	0x04
000584   5664     movra   0x64             	MOVRA	_g_state
                                           ;	.line	283; "MC32F7361.c"	g_byte_count = 0;
000585   7624     clrr    0x24             	CLRR	_g_byte_count
                                           ;	.line	284; "MC32F7361.c"	g_bit_count = 0;
000586   7625     clrr    0x25             	CLRR	_g_bit_count
                                           ;	.line	286; "MC32F7361.c"	for (i = 0; i < 9; i++)
000587   7654     clrr    0x54             	CLRR	_i
                                           _00226_DS_
                                           ;	.line	288; "MC32F7361.c"	g_data[i] = 0;
000588   5854     movar   0x54             	MOVAR	_i
000589   3f30     addai   0x30             	ADDAI	(_g_data + 0)
00058a   560d     movra   0xd              	MOVRA	r0x1049
00058b   3c00     movai   0                	MOVAI	high (_g_data + 0)
00058c   f187     jbclr   0x187, 0         	JBCLR	PFLAG,0
00058d   3f01     addai   0x1              	ADDAI	0x01
00058e   5610     movra   0x10             	MOVRA	r0x104D
00058f   580d     movar   0xd              	MOVAR	r0x1049
000590   5784     movra   0x184            	MOVRA	FSR0
000591   5810     movar   0x10             	MOVAR	r0x104D
000592   5785     movra   0x185            	MOVRA	FSR1
000593   3c00     movai   0                	MOVAI	0x00
000594   5782     movra   0x182            	MOVRA	INDF2
                                           ;	.line	286; "MC32F7361.c"	for (i = 0; i < 9; i++)
000595   6654     incr    0x54             	INCR	_i
                                           ;;unsigned compare: left < lit(0x9=9), size=1
000596   3c09     movai   0x9              	MOVAI	0x09
000597   4854     rsubar  0x54             	RSUBAR	_i
000598   e187     jbset   0x187, 0         	JBSET	PFLAG,0
000599   a588     goto    0x588            	GOTO	_00226_DS_
                                           ;;genSkipc:3291: created from rifx:013B5EFC
                                           ;	.line	291; "MC32F7361.c"	break;
00059a   a625     goto    0x625            	GOTO	_00225_DS_
                                           _00203_DS_
                                           ;	.line	294; "MC32F7361.c"	g_timer_count++;
00059b   6626     incr    0x26             	INCR	_g_timer_count
                                           ;	.line	295; "MC32F7361.c"	if (pin_state == 1)
00059c   5858     movar   0x58             	MOVAR	_pin_state
00059d   3901     xorai   0x1              	XORAI	0x01
00059e   e587     jbset   0x187, 0x2       	JBSET	PFLAG,2
00059f   a625     goto    0x625            	GOTO	_00225_DS_
                                           ;;unsigned compare: left < lit(0x50=80), size=1
                                           ;	.line	298; "MC32F7361.c"	if (g_timer_count >= RX_START_MIN_TIME && g_timer_count <= RX_START_MAX_TIME)
0005a0   3c50     movai   0x50             	MOVAI	0x50
0005a1   4826     rsubar  0x26             	RSUBAR	_g_timer_count
0005a2   e187     jbset   0x187, 0         	JBSET	PFLAG,0
0005a3   a5ac     goto    0x5ac            	GOTO	_00205_DS_
                                           ;;genSkipc:3291: created from rifx:013B5EFC
                                           ;;swapping arguments (AOP_TYPEs 1/3)
                                           ;;unsigned compare: left >= lit(0x97=151), size=1
0005a4   3c97     movai   0x97             	MOVAI	0x97
0005a5   4826     rsubar  0x26             	RSUBAR	_g_timer_count
0005a6   f187     jbclr   0x187, 0         	JBCLR	PFLAG,0
0005a7   a5ac     goto    0x5ac            	GOTO	_00205_DS_
                                           ;;genSkipc:3291: created from rifx:013B5EFC
                                           ;	.line	300; "MC32F7361.c"	g_timer_count = 0;
0005a8   7626     clrr    0x26             	CLRR	_g_timer_count
                                           ;	.line	301; "MC32F7361.c"	g_state = RX_DATA;
0005a9   3c05     movai   0x5              	MOVAI	0x05
0005aa   5664     movra   0x64             	MOVRA	_g_state
0005ab   a625     goto    0x625            	GOTO	_00225_DS_
                                           _00205_DS_
                                           ;	.line	305; "MC32F7361.c"	g_state = IDLE;
0005ac   7664     clrr    0x64             	CLRR	_g_state
                                           ;	.line	308; "MC32F7361.c"	break;
0005ad   a625     goto    0x625            	GOTO	_00225_DS_
                                           _00210_DS_
                                           ;	.line	311; "MC32F7361.c"	g_timer_count++;
0005ae   6626     incr    0x26             	INCR	_g_timer_count
                                           ;	.line	312; "MC32F7361.c"	if (pin_state != g_last_pin_state)
0005af   5827     movar   0x27             	MOVAR	_g_last_pin_state
0005b0   4058     xorar   0x58             	XORAR	_pin_state
0005b1   e587     jbset   0x187, 0x2       	JBSET	PFLAG,2
0005b2   a5b4     goto    0x5b4            	GOTO	_00391_DS_
0005b3   a625     goto    0x625            	GOTO	_00225_DS_
                                           _00391_DS_
                                           ;	.line	314; "MC32F7361.c"	if (g_last_pin_state == 1)
0005b4   5827     movar   0x27             	MOVAR	_g_last_pin_state
0005b5   3901     xorai   0x1              	XORAI	0x01
0005b6   e587     jbset   0x187, 0x2       	JBSET	PFLAG,2
0005b7   a601     goto    0x601            	GOTO	_00219_DS_
                                           ;;unsigned compare: left < lit(0x8=8), size=1
                                           ;	.line	318; "MC32F7361.c"	if (g_timer_count >= RX_BIT1_MIN_TIME && g_timer_count <= RX_BIT1_MAX_TIME)
0005b8   3c08     movai   0x8              	MOVAI	0x08
0005b9   4826     rsubar  0x26             	RSUBAR	_g_timer_count
0005ba   e187     jbset   0x187, 0         	JBSET	PFLAG,0
0005bb   a5f4     goto    0x5f4            	GOTO	_00212_DS_
                                           ;;genSkipc:3291: created from rifx:013B5EFC
                                           ;;swapping arguments (AOP_TYPEs 1/3)
                                           ;;unsigned compare: left >= lit(0xD=13), size=1
0005bc   3c0d     movai   0xd              	MOVAI	0x0d
0005bd   4826     rsubar  0x26             	RSUBAR	_g_timer_count
0005be   f187     jbclr   0x187, 0         	JBCLR	PFLAG,0
0005bf   a5f4     goto    0x5f4            	GOTO	_00212_DS_
                                           ;;genSkipc:3291: created from rifx:013B5EFC
                                           ;	.line	320; "MC32F7361.c"	g_data[g_byte_count] |= RECV_RECV_BIT(g_bit_count);
0005c0   5824     movar   0x24             	MOVAR	_g_byte_count
0005c1   3f30     addai   0x30             	ADDAI	(_g_data + 0)
0005c2   560d     movra   0xd              	MOVRA	r0x1049
0005c3   3c00     movai   0                	MOVAI	high (_g_data + 0)
0005c4   f187     jbclr   0x187, 0         	JBCLR	PFLAG,0
0005c5   3f01     addai   0x1              	ADDAI	0x01
0005c6   5610     movra   0x10             	MOVRA	r0x104D
0005c7   5824     movar   0x24             	MOVAR	_g_byte_count
0005c8   3f30     addai   0x30             	ADDAI	(_g_data + 0)
0005c9   5611     movra   0x11             	MOVRA	r0x104C
0005ca   3c00     movai   0                	MOVAI	high (_g_data + 0)
0005cb   f187     jbclr   0x187, 0         	JBCLR	PFLAG,0
0005cc   3f01     addai   0x1              	ADDAI	0x01
0005cd   5612     movra   0x12             	MOVRA	r0x104E
0005ce   5811     movar   0x11             	MOVAR	r0x104C
0005cf   5784     movra   0x184            	MOVRA	FSR0
0005d0   5812     movar   0x12             	MOVAR	r0x104E
0005d1   5785     movra   0x185            	MOVRA	FSR1
0005d2   5982     movar   0x182            	MOVAR	INDF2
0005d3   5614     movra   0x14             	MOVRA	r0x1050
                                           ;;110	MOVAR	_g_bit_count
0005d4   3c01     movai   0x1              	MOVAI	0x01
0005d5   5616     movra   0x16             	MOVRA	r0x1052
                                           ;;109	MOVAR	r0x104C
0005d6   5825     movar   0x25             	MOVAR	_g_bit_count
0005d7   5611     movra   0x11             	MOVRA	r0x104C
0005d8   fe11     jbclr   0x11, 0x7        	JBCLR	r0x104C,7
0005d9   a5e2     goto    0x5e2            	GOTO	_00397_DS_
0005da   3a00     isubai  0                	ISUBAI	0x00
0005db   f587     jbclr   0x187, 0x2       	JBCLR	PFLAG,2
0005dc   a5e9     goto    0x5e9            	GOTO	_00395_DS_
                                           _00394_DS_
0005dd   5216     rlr     0x16             	RLR	r0x1052
0005de   3f01     addai   0x1              	ADDAI	0x01
0005df   e187     jbset   0x187, 0         	JBSET	PFLAG,0
0005e0   a5dd     goto    0x5dd            	GOTO	_00394_DS_
0005e1   a5e9     goto    0x5e9            	GOTO	_00395_DS_
                                           _00397_DS_
0005e2   d187     bclr    0x187, 0         	BCLR	PFLAG,0
0005e3   fe16     jbclr   0x16, 0x7        	JBCLR	r0x1052,7
0005e4   c187     bset    0x187, 0         	BSET	PFLAG,0
0005e5   4e16     rrr     0x16             	RRR	r0x1052
0005e6   3f01     addai   0x1              	ADDAI	0x01
0005e7   e187     jbset   0x187, 0         	JBSET	PFLAG,0
0005e8   a5e2     goto    0x5e2            	GOTO	_00397_DS_
                                           _00395_DS_
0005e9   5814     movar   0x14             	MOVAR	r0x1050
0005ea   5611     movra   0x11             	MOVRA	r0x104C
0005eb   5816     movar   0x16             	MOVAR	r0x1052
0005ec   5c11     orar    0x11             	ORAR	r0x104C
0005ed   5614     movra   0x14             	MOVRA	r0x1050
0005ee   580d     movar   0xd              	MOVAR	r0x1049
0005ef   5784     movra   0x184            	MOVRA	FSR0
0005f0   5810     movar   0x10             	MOVAR	r0x104D
0005f1   5785     movra   0x185            	MOVRA	FSR1
0005f2   5814     movar   0x14             	MOVAR	r0x1050
0005f3   5782     movra   0x182            	MOVRA	INDF2
                                           _00212_DS_
                                           ;	.line	323; "MC32F7361.c"	g_bit_count++;
0005f4   6625     incr    0x25             	INCR	_g_bit_count
                                           ;;unsigned compare: left < lit(0x8=8), size=1
                                           ;	.line	324; "MC32F7361.c"	if (g_bit_count >= 8)
0005f5   3c08     movai   0x8              	MOVAI	0x08
0005f6   4825     rsubar  0x25             	RSUBAR	_g_bit_count
0005f7   e187     jbset   0x187, 0         	JBSET	PFLAG,0
0005f8   a601     goto    0x601            	GOTO	_00219_DS_
                                           ;;genSkipc:3291: created from rifx:013B5EFC
                                           ;	.line	326; "MC32F7361.c"	g_bit_count = 0;
0005f9   7625     clrr    0x25             	CLRR	_g_bit_count
                                           ;	.line	327; "MC32F7361.c"	g_byte_count++;
0005fa   6624     incr    0x24             	INCR	_g_byte_count
                                           ;;unsigned compare: left < lit(0x6=6), size=1
                                           ;	.line	328; "MC32F7361.c"	if (g_byte_count >= RX_DATA_LEN)
0005fb   3c06     movai   0x6              	MOVAI	0x06
0005fc   4824     rsubar  0x24             	RSUBAR	_g_byte_count
0005fd   e187     jbset   0x187, 0         	JBSET	PFLAG,0
0005fe   a601     goto    0x601            	GOTO	_00219_DS_
                                           ;;genSkipc:3291: created from rifx:013B5EFC
                                           ;	.line	330; "MC32F7361.c"	g_state = RX_END; // 
0005ff   3c06     movai   0x6              	MOVAI	0x06
000600   5664     movra   0x64             	MOVRA	_g_state
                                           _00219_DS_
                                           ;	.line	334; "MC32F7361.c"	g_timer_count = 0;
000601   7626     clrr    0x26             	CLRR	_g_timer_count
                                           ;	.line	336; "MC32F7361.c"	break;
000602   a625     goto    0x625            	GOTO	_00225_DS_
                                           _00222_DS_
                                           ;	.line	341; "MC32F7361.c"	if (g_data[0] == 0xA6)
000603   5830     movar   0x30             	MOVAR	(_g_data + 0)
000604   560d     movra   0xd              	MOVRA	r0x1049
000605   580d     movar   0xd              	MOVAR	r0x1049
000606   39a6     xorai   0xa6             	XORAI	0xa6
000607   e587     jbset   0x187, 0x2       	JBSET	PFLAG,2
000608   a624     goto    0x624            	GOTO	_00224_DS_
                                           ;	.line	343; "MC32F7361.c"	thousand = g_data[1] >> 4 & 0x0F;
000609   5831     movar   0x31             	MOVAR	(_g_data + 1)
00060a   560d     movra   0xd              	MOVRA	r0x1049
00060b   440d     swapar  0xd              	SWAPAR	r0x1049
00060c   3e0f     andai   0xf              	ANDAI	0x0f
00060d   5610     movra   0x10             	MOVRA	r0x104D
00060e   3c0f     movai   0xf              	MOVAI	0x0f
00060f   7810     andar   0x10             	ANDAR	r0x104D
000610   565d     movra   0x5d             	MOVRA	_thousand
                                           ;	.line	344; "MC32F7361.c"	hundred = g_data[1] & 0x0F;
000611   5831     movar   0x31             	MOVAR	(_g_data + 1)
000612   560d     movra   0xd              	MOVRA	r0x1049
000613   3c0f     movai   0xf              	MOVAI	0x0f
000614   780d     andar   0xd              	ANDAR	r0x1049
000615   565e     movra   0x5e             	MOVRA	_hundred
                                           ;	.line	345; "MC32F7361.c"	decade = g_data[2] >> 4 & 0x0F;
000616   5832     movar   0x32             	MOVAR	(_g_data + 2)
000617   560d     movra   0xd              	MOVRA	r0x1049
000618   440d     swapar  0xd              	SWAPAR	r0x1049
000619   3e0f     andai   0xf              	ANDAI	0x0f
00061a   5610     movra   0x10             	MOVRA	r0x104D
00061b   3c0f     movai   0xf              	MOVAI	0x0f
00061c   7810     andar   0x10             	ANDAR	r0x104D
00061d   565f     movra   0x5f             	MOVRA	_decade
                                           ;	.line	346; "MC32F7361.c"	unit = g_data[2] & 0x0F;
00061e   5832     movar   0x32             	MOVAR	(_g_data + 2)
00061f   560d     movra   0xd              	MOVRA	r0x1049
000620   3c0f     movai   0xf              	MOVAI	0x0f
000621   780d     andar   0xd              	ANDAR	r0x1049
000622   5660     movra   0x60             	MOVRA	_unit
                                           ;	.line	347; "MC32F7361.c"	flag_recv_time_ack = 1;
000623   c661     bset    0x61, 0x3        	BSET	_flag1,3
                                           _00224_DS_
                                           ;	.line	350; "MC32F7361.c"	g_state = IDLE;
000624   7664     clrr    0x64             	CLRR	_g_state
                                           _00225_DS_
                                           ;	.line	353; "MC32F7361.c"	g_last_pin_state = pin_state;
000625   5858     movar   0x58             	MOVAR	_pin_state
000626   5627     movra   0x27             	MOVRA	_g_last_pin_state
                                           _00228_DS_
                                           ;	.line	354; "MC32F7361.c"	}
000627   000c     return                   	RETURN	
                                           ; exit point of _timer_100us_isr
                                           
                                           ;***
                                           ;  pBlock Stats: dbName = C
                                           ;***
                                           ;entry:  _start_send	;Function start
                                           ; 2 exit points
                                           ;has an exit
                                           ;5 compiler assigned registers:
                                           ;   r0x1038
                                           ;   r0x1039
                                           ;   r0x103A
                                           ;   r0x103B
                                           ;   r0x103C
                                           ;; Starting pCode block
                                           _start_send	;Function start
                                           ; 2 exit points
                                           ;	.line	159; "MC32F7361.c"	if (g_state != IDLE)
000628   3c00     movai   0                	MOVAI	0x00
000629   5c64     orar    0x64             	ORAR	_g_state
00062a   f587     jbclr   0x187, 0x2       	JBCLR	PFLAG,2
00062b   a62d     goto    0x62d            	GOTO	_00152_DS_
                                           ;	.line	160; "MC32F7361.c"	return; // 
00062c   a653     goto    0x653            	GOTO	_00156_DS_
                                           _00152_DS_
                                           ;	.line	163; "MC32F7361.c"	for (i = 0; i < SEND_DATA_LEN; i++)
00062d   7654     clrr    0x54             	CLRR	_i
                                           _00154_DS_
                                           ;	.line	166; "MC32F7361.c"	g_data[i] = send_buf[i];
00062e   5854     movar   0x54             	MOVAR	_i
00062f   3f30     addai   0x30             	ADDAI	(_g_data + 0)
000630   5608     movra   0x8              	MOVRA	r0x1038
000631   3c00     movai   0                	MOVAI	high (_g_data + 0)
000632   f187     jbclr   0x187, 0         	JBCLR	PFLAG,0
000633   3f01     addai   0x1              	ADDAI	0x01
000634   5607     movra   0x7              	MOVRA	r0x1039
000635   5854     movar   0x54             	MOVAR	_i
000636   3f3f     addai   0x3f             	ADDAI	(_send_buf + 0)
000637   5609     movra   0x9              	MOVRA	r0x103A
000638   3c00     movai   0                	MOVAI	high (_send_buf + 0)
000639   f187     jbclr   0x187, 0         	JBCLR	PFLAG,0
00063a   3f01     addai   0x1              	ADDAI	0x01
00063b   560a     movra   0xa              	MOVRA	r0x103B
00063c   5809     movar   0x9              	MOVAR	r0x103A
00063d   5784     movra   0x184            	MOVRA	FSR0
00063e   580a     movar   0xa              	MOVAR	r0x103B
00063f   5785     movra   0x185            	MOVRA	FSR1
000640   5982     movar   0x182            	MOVAR	INDF2
000641   560b     movra   0xb              	MOVRA	r0x103C
000642   5808     movar   0x8              	MOVAR	r0x1038
000643   5784     movra   0x184            	MOVRA	FSR0
000644   5807     movar   0x7              	MOVAR	r0x1039
000645   5785     movra   0x185            	MOVRA	FSR1
000646   580b     movar   0xb              	MOVAR	r0x103C
000647   5782     movra   0x182            	MOVRA	INDF2
                                           ;	.line	163; "MC32F7361.c"	for (i = 0; i < SEND_DATA_LEN; i++)
000648   6654     incr    0x54             	INCR	_i
                                           ;;unsigned compare: left < lit(0x3=3), size=1
000649   3c03     movai   0x3              	MOVAI	0x03
00064a   4854     rsubar  0x54             	RSUBAR	_i
00064b   e187     jbset   0x187, 0         	JBSET	PFLAG,0
00064c   a62e     goto    0x62e            	GOTO	_00154_DS_
                                           ;;genSkipc:3291: created from rifx:013B5EFC
                                           ;	.line	169; "MC32F7361.c"	g_byte_count = 0;
00064d   7624     clrr    0x24             	CLRR	_g_byte_count
                                           ;	.line	170; "MC32F7361.c"	g_bit_count = 0;
00064e   7625     clrr    0x25             	CLRR	_g_bit_count
                                           ;	.line	171; "MC32F7361.c"	g_timer_count = 0;
00064f   7626     clrr    0x26             	CLRR	_g_timer_count
                                           ;	.line	172; "MC32F7361.c"	g_state = TX_START;
000650   3c01     movai   0x1              	MOVAI	0x01
000651   5664     movra   0x64             	MOVRA	_g_state
                                           ;	.line	174; "MC32F7361.c"	set_pin_low(); // 
000652   d794     bclr    0x194, 0x3       	BCLR	_IOP1bits,3
                                           _00156_DS_
                                           ;	.line	175; "MC32F7361.c"	}
000653   000c     return                   	RETURN	
                                           ; exit point of _start_send
                                           
                                           ;***
                                           ;  pBlock Stats: dbName = C
                                           ;***
                                           ;entry:  _pwm_led_config	;Function start
                                           ; 2 exit points
                                           ;has an exit
                                           ;; Starting pCode block
                                           _pwm_led_config	;Function start
                                           ; 2 exit points
                                           ;	.line	139; "MC32F7361.c"	T0CR = DEF_SET_BIT6 | DEF_SET_BIT0 | DEF_SET_BIT1; // PWM,CPU,8
000654   3c43     movai   0x43             	MOVAI	0x43
000655   5798     movra   0x198            	MOVRA	_T0CR
                                           ;	.line	140; "MC32F7361.c"	T0CNT = 255 - 1;
000656   3cfe     movai   0xfe             	MOVAI	0xfe
000657   5799     movra   0x199            	MOVRA	_T0CNT
                                           ;	.line	141; "MC32F7361.c"	T0LOAD = 255 - 1; //
000658   3cfe     movai   0xfe             	MOVAI	0xfe
000659   579a     movra   0x19a            	MOVRA	_T0LOAD
                                           ;	.line	144; "MC32F7361.c"	T2CR = DEF_SET_BIT6 | DEF_SET_BIT0 | DEF_SET_BIT1; // PWM,CPU,8
00065a   3c43     movai   0x43             	MOVAI	0x43
00065b   57a0     movra   0x1a0            	MOVRA	_T2CR
                                           ;	.line	145; "MC32F7361.c"	T2CNT = 255 - 1;
00065c   3cfe     movai   0xfe             	MOVAI	0xfe
00065d   57a1     movra   0x1a1            	MOVRA	_T2CNT
                                           ;	.line	146; "MC32F7361.c"	T2LOAD = 255 - 1; //
00065e   3cfe     movai   0xfe             	MOVAI	0xfe
00065f   57a2     movra   0x1a2            	MOVRA	_T2LOAD
                                           ;	.line	149; "MC32F7361.c"	PWMCR1 = 0x00; // pwm
000660   77ad     clrr    0x1ad            	CLRR	_PWMCR1
                                           ;	.line	150; "MC32F7361.c"	PWMCR3 = 0x04; // PWM0P02
000661   3c04     movai   0x4              	MOVAI	0x04
000662   57bd     movra   0x1bd            	MOVRA	_PWMCR3
                                           ;	.line	151; "MC32F7361.c"	T0EN = 1;
000663   cf98     bset    0x198, 0x7       	BSET	_T0CRbits,7
                                           ;	.line	152; "MC32F7361.c"	T2EN = 1;
000664   cfa0     bset    0x1a0, 0x7       	BSET	_T2CRbits,7
                                           ;	.line	153; "MC32F7361.c"	}
000665   000c     return                   	RETURN	
                                           ; exit point of _pwm_led_config
                                           
                                           ;***
                                           ;  pBlock Stats: dbName = C
                                           ;***
                                           ;entry:  _timer3_config	;Function start
                                           ; 2 exit points
                                           ;has an exit
                                           ;; Starting pCode block
                                           _timer3_config	;Function start
                                           ; 2 exit points
                                           ;	.line	128; "MC32F7361.c"	T3CR = 0x03; // ,CPU,8
000666   3c03     movai   0x3              	MOVAI	0x03
000667   57a4     movra   0x1a4            	MOVRA	_T3CR
                                           ;	.line	130; "MC32F7361.c"	T3LOAD = 100 - 1; // 8100us
000668   3c63     movai   0x63             	MOVAI	0x63
000669   57a6     movra   0x1a6            	MOVRA	_T3LOAD
                                           ;	.line	131; "MC32F7361.c"	T3EN = 1;
00066a   cfa4     bset    0x1a4, 0x7       	BSET	_T3CRbits,7
                                           ;	.line	132; "MC32F7361.c"	T3IE = 1;
00066b   cf8a     bset    0x18a, 0x7       	BSET	_INTEbits,7
                                           ;	.line	133; "MC32F7361.c"	}
00066c   000c     return                   	RETURN	
                                           ; exit point of _timer3_config
                                           
                                           ;***
                                           ;  pBlock Stats: dbName = C
                                           ;***
                                           ;entry:  _timer1_config	;Function start
                                           ; 2 exit points
                                           ;has an exit
                                           ;; Starting pCode block
                                           _timer1_config	;Function start
                                           ; 2 exit points
                                           ;	.line	117; "MC32F7361.c"	T1CR = 0x15; // FLOSC3232Khz(32768) / 32  1Khz0.9765625ms
00066d   3c15     movai   0x15             	MOVAI	0x15
00066e   579c     movra   0x19c            	MOVRA	_T1CR
                                           ;	.line	119; "MC32F7361.c"	T1LOAD = 10 - 1; //
00066f   3c09     movai   0x9              	MOVAI	0x09
000670   579e     movra   0x19e            	MOVRA	_T1LOAD
                                           ;	.line	121; "MC32F7361.c"	T1EN = 1;
000671   cf9c     bset    0x19c, 0x7       	BSET	_T1CRbits,7
                                           ;	.line	122; "MC32F7361.c"	T1IE = 1;
000672   c38a     bset    0x18a, 0x1       	BSET	_INTEbits,1
                                           ;	.line	123; "MC32F7361.c"	}
000673   000c     return                   	RETURN	
                                           ; exit point of _timer1_config
                                           
                                           ;***
                                           ;  pBlock Stats: dbName = C
                                           ;***
                                           ;entry:  _adc_config	;Function start
                                           ; 2 exit points
                                           ;has an exit
                                           ;; Starting pCode block
                                           _adc_config	;Function start
                                           ; 2 exit points
                                           ;	.line	94; "MC32F7361.c"	P12OE = 0;    // 
000674   d595     bclr    0x195, 0x2       	BCLR	_OEP1bits,2
                                           ;	.line	95; "MC32F7361.c"	P12DC = 1;    // 
000675   c5b7     bset    0x1b7, 0x2       	BSET	_P1ADCRbits,2
                                           ;	.line	96; "MC32F7361.c"	ADCR0 = 0xFB; // ADC12H8L4
000676   3cfb     movai   0xfb             	MOVAI	0xfb
000677   57b0     movra   0x1b0            	MOVRA	_ADCR0
                                           ;	.line	99; "MC32F7361.c"	ADCR2 = 0xFF; // 15ADCLK
000678   3cff     movai   0xff             	MOVAI	0xff
000679   57b2     movra   0x1b2            	MOVRA	_ADCR2
                                           ;	.line	101; "MC32F7361.c"	ADEN = 1;
00067a   c1b0     bset    0x1b0, 0         	BSET	_ADCR0bits,0
                                           ;	.line	102; "MC32F7361.c"	}
00067b   000c     return                   	RETURN	
                                           ; exit point of _adc_config
                                           
                                           ;***
                                           ;  pBlock Stats: dbName = C
                                           ;***
                                           ;entry:  _IO_Init	;Function start
                                           ; 2 exit points
                                           ;has an exit
                                           ;; Starting pCode block
                                           _IO_Init	;Function start
                                           ; 2 exit points
                                           ;	.line	70; "MC32F7361.c"	IOP0 = 0x00;   // io
00067c   7790     clrr    0x190            	CLRR	_IOP0
                                           ;	.line	71; "MC32F7361.c"	OEP0 = 0x3F;   // io 1:out  0:in
00067d   3c3f     movai   0x3f             	MOVAI	0x3f
00067e   5791     movra   0x191            	MOVRA	_OEP0
                                           ;	.line	72; "MC32F7361.c"	PUP0 = 0x00;   // io   1:enable  0:disable
00067f   7792     clrr    0x192            	CLRR	_PUP0
                                           ;	.line	73; "MC32F7361.c"	PDP0 = 0x00;   // io   1:enable  0:disable
000680   7793     clrr    0x193            	CLRR	_PDP0
                                           ;	.line	74; "MC32F7361.c"	P0ADCR = 0x00; // io  1:  0:io
000681   77b6     clrr    0x1b6            	CLRR	_P0ADCR
                                           ;	.line	76; "MC32F7361.c"	IOP1 = 0x00;   // io
000682   7794     clrr    0x194            	CLRR	_IOP1
                                           ;	.line	77; "MC32F7361.c"	OEP1 = 0xFF;   // io 1:out  0:in
000683   3cff     movai   0xff             	MOVAI	0xff
000684   5795     movra   0x195            	MOVRA	_OEP1
                                           ;	.line	78; "MC32F7361.c"	PUP1 = 0x00;   // io   1:enable  0:disable
000685   7796     clrr    0x196            	CLRR	_PUP1
                                           ;	.line	79; "MC32F7361.c"	PDP1 = 0x00;   // io   1:enable  0:disable
000686   7797     clrr    0x197            	CLRR	_PDP1
                                           ;	.line	80; "MC32F7361.c"	P1ADCR = 0x00; // io  1:  0:io
000687   77b7     clrr    0x1b7            	CLRR	_P1ADCR
                                           ;	.line	82; "MC32F7361.c"	IOP2 = 0x00; // io
000688   77b8     clrr    0x1b8            	CLRR	_IOP2
                                           ;	.line	83; "MC32F7361.c"	OEP2 = 0x0F; // io 1:out  0:in
000689   3c0f     movai   0xf              	MOVAI	0x0f
00068a   57b9     movra   0x1b9            	MOVRA	_OEP2
                                           ;	.line	84; "MC32F7361.c"	PUP2 = 0x00; // io   1:enable  0:disable
00068b   77ba     clrr    0x1ba            	CLRR	_PUP2
                                           ;	.line	85; "MC32F7361.c"	PDP2 = 0x00; // io   1:enable  0:disablea
00068c   77bb     clrr    0x1bb            	CLRR	_PDP2
                                           ;	.line	87; "MC32F7361.c"	PMOD = 0x00;  // P00P01P13 io
00068d   77bc     clrr    0x1bc            	CLRR	_PMOD
                                           ;	.line	88; "MC32F7361.c"	DRVCR = 0x80; // 
00068e   3c80     movai   0x80             	MOVAI	0x80
00068f   578c     movra   0x18c            	MOVRA	_DRVCR
                                           ;	.line	89; "MC32F7361.c"	}
000690   000c     return                   	RETURN	
                                           ; exit point of _IO_Init
                                           
                                           ;***
                                           ;  pBlock Stats: dbName = C
                                           ;***
                                           ;entry:  _CLR_RAM	;Function start
                                           ; 2 exit points
                                           ;has an exit
                                           ;; Starting pCode block
                                           _CLR_RAM	;Function start
                                           ; 2 exit points
                                           ;	.line	55; "MC32F7361.c"	for (FSR0 = 0; FSR0 < 0xff; FSR0++)
000691   7784     clrr    0x184            	CLRR	_FSR0
                                           ;;unsigned compare: left < lit(0xFF=255), size=1
                                           _00126_DS_
000692   3cff     movai   0xff             	MOVAI	0xff
000693   4984     rsubar  0x184            	RSUBAR	_FSR0
000694   f187     jbclr   0x187, 0         	JBCLR	PFLAG,0
000695   a699     goto    0x699            	GOTO	_00124_DS_
                                           ;;genSkipc:3291: created from rifx:013B5EFC
                                           ;	.line	57; "MC32F7361.c"	INDF0 = 0x00;
000696   7780     clrr    0x180            	CLRR	_INDF0
                                           ;	.line	55; "MC32F7361.c"	for (FSR0 = 0; FSR0 < 0xff; FSR0++)
000697   6784     incr    0x184            	INCR	_FSR0
000698   a692     goto    0x692            	GOTO	_00126_DS_
                                           _00124_DS_
                                           ;	.line	59; "MC32F7361.c"	FSR0 = 0xFF;
000699   3cff     movai   0xff             	MOVAI	0xff
00069a   5784     movra   0x184            	MOVRA	_FSR0
                                           ;	.line	60; "MC32F7361.c"	INDF0 = 0x00;
00069b   7780     clrr    0x180            	CLRR	_INDF0
                                           ;	.line	61; "MC32F7361.c"	}
00069c   000c     return                   	RETURN	
                                           ; exit point of _CLR_RAM
                                           
                                           ;***
                                           ;  pBlock Stats: dbName = C
                                           ;***
                                           ;entry:  _delay_us	;Function start
                                           ; 2 exit points
                                           ;has an exit
                                           ;1 compiler assigned register :
                                           ;   r0x1038
                                           ;; Starting pCode block
                                           _delay_us	;Function start
                                           ; 2 exit points
                                           ;	.line	38; "MC32F7361.c"	void delay_us(u8 xus)
00069d   5608     movra   0x8              	MOVRA	r0x1038
                                           _00116_DS_
                                           ;	.line	40; "MC32F7361.c"	while (xus)
00069e   3c00     movai   0                	MOVAI	0x00
00069f   5c08     orar    0x8              	ORAR	r0x1038
0006a0   f587     jbclr   0x187, 0x2       	JBCLR	PFLAG,2
0006a1   a6a5     goto    0x6a5            	GOTO	_00119_DS_
                                           ;	.line	42; "MC32F7361.c"	Nop();
0006a2   0000     nop                      	nop	
                                           ;	.line	43; "MC32F7361.c"	xus--; //  --while()
0006a3   6e08     decr    0x8              	DECR	r0x1038
0006a4   a69e     goto    0x69e            	GOTO	_00116_DS_
                                           _00119_DS_
                                           ;	.line	45; "MC32F7361.c"	}
0006a5   000c     return                   	RETURN	
                                           ; exit point of _delay_us
                                           
                                           ;***
                                           ;  pBlock Stats: dbName = C
                                           ;***
                                           ;entry:  _delay_ms	;Function start
                                           ; 2 exit points
                                           ;has an exit
                                           ;7 compiler assigned registers:
                                           ;   r0x1038
                                           ;   STK00
                                           ;   r0x1039
                                           ;   r0x103A
                                           ;   r0x103B
                                           ;   r0x103C
                                           ;   r0x103D
                                           ;; Starting pCode block
                                           _delay_ms	;Function start
                                           ; 2 exit points
                                           ;	.line	20; "MC32F7361.c"	void delay_ms(u16 xms)
0006a6   5608     movra   0x8              	MOVRA	r0x1038
0006a7   5806     movar   0x6              	MOVAR	STK00
0006a8   5607     movra   0x7              	MOVRA	r0x1039
                                           _00108_DS_
                                           ;	.line	22; "MC32F7361.c"	while (xms)
0006a9   5807     movar   0x7              	MOVAR	r0x1039
0006aa   5c08     orar    0x8              	ORAR	r0x1038
0006ab   f587     jbclr   0x187, 0x2       	JBCLR	PFLAG,2
0006ac   a6c5     goto    0x6c5            	GOTO	_00111_DS_
                                           ;	.line	25; "MC32F7361.c"	while (i--)
0006ad   3c3c     movai   0x3c             	MOVAI	0x3c
0006ae   5609     movra   0x9              	MOVRA	r0x103A
0006af   3c02     movai   0x2              	MOVAI	0x02
0006b0   560a     movra   0xa              	MOVRA	r0x103B
                                           _00105_DS_
0006b1   5809     movar   0x9              	MOVAR	r0x103A
0006b2   560b     movra   0xb              	MOVRA	r0x103C
0006b3   580a     movar   0xa              	MOVAR	r0x103B
0006b4   560c     movra   0xc              	MOVRA	r0x103D
0006b5   3cff     movai   0xff             	MOVAI	0xff
0006b6   7e09     addra   0x9              	ADDRA	r0x103A
0006b7   e187     jbset   0x187, 0         	JBSET	PFLAG,0
0006b8   6e0a     decr    0xa              	DECR	r0x103B
0006b9   580b     movar   0xb              	MOVAR	r0x103C
0006ba   5c0c     orar    0xc              	ORAR	r0x103D
0006bb   f587     jbclr   0x187, 0x2       	JBCLR	PFLAG,2
0006bc   a6bf     goto    0x6bf            	GOTO	_00107_DS_
                                           ;	.line	27; "MC32F7361.c"	Nop();
0006bd   0000     nop                      	nop	
0006be   a6b1     goto    0x6b1            	GOTO	_00105_DS_
                                           _00107_DS_
                                           ;	.line	29; "MC32F7361.c"	xms--; //  --while()
0006bf   3cff     movai   0xff             	MOVAI	0xff
0006c0   7e07     addra   0x7              	ADDRA	r0x1039
0006c1   e187     jbset   0x187, 0         	JBSET	PFLAG,0
0006c2   6e08     decr    0x8              	DECR	r0x1038
                                           ;	.line	33; "MC32F7361.c"	__endasm;
                                           	;
0006c3   000e     clrwdt                   	clrwdt;
                                           	
0006c4   a6a9     goto    0x6a9            	GOTO	_00108_DS_
                                           _00111_DS_
                                           ;	.line	35; "MC32F7361.c"	}
0006c5   000c     return                   	RETURN	
                                           ; exit point of _delay_ms
                                           
                                           
                                           ;	code size estimation:
                                           ;	 1715+    0 =  1715 instructions ( 3430 byte)
                                           
                                           	end
                                           ;--------------------------------------------------------
                                           ; File Created by SN-SDCC : SinoMCU ANSI-C Compiler
                                           ; Version 2.0.0 (Dec 11 2019) (MINGW32)
                                           ; This file was generated Fri Dec 20 17:51:06 2024
                                           ;--------------------------------------------------------
                                           ; MC32 port for the RISC core
                                           ;--------------------------------------------------------
                                           ;	.file	"MC32F7361.c"
                                           	list	p=7361
                                           	radix dec
                                           	include "7361.inc"
                                           ;--------------------------------------------------------
                                           ; external declarations
                                           ;--------------------------------------------------------
                                           	extern	_INDF0bits
                                           	extern	_INDF1bits
                                           	extern	_INDF2bits
                                           	extern	_HIBYTEbits
                                           	extern	_FSR0bits
                                           	extern	_FSR1bits
                                           	extern	_PCLbits
                                           	extern	_PFLAGbits
                                           	extern	_MCRbits
                                           	extern	_INDF3bits
                                           	extern	_INTEbits
                                           	extern	_INTFbits
                                           	extern	_DRVCRbits
                                           	extern	_P0KBCRbits
                                           	extern	_P1KBCRbits
                                           	extern	_P2KBCRbits
                                           	extern	_IOP0bits
                                           	extern	_OEP0bits
                                           	extern	_PUP0bits
                                           	extern	_PDP0bits
                                           	extern	_IOP1bits
                                           	extern	_OEP1bits
                                           	extern	_PUP1bits
                                           	extern	_PDP1bits
                                           	extern	_T0CRbits
                                           	extern	_T0CNTbits
                                           	extern	_T0LOADbits
                                           	extern	_T0DATAbits
                                           	extern	_T1CRbits
                                           	extern	_T1CNTbits
                                           	extern	_T1LOADbits
                                           	extern	_T1DATAbits
                                           	extern	_T2CRbits
                                           	extern	_T2CNTbits
                                           	extern	_T2LOADbits
                                           	extern	_T2DATAbits
                                           	extern	_T3CRbits
                                           	extern	_T3CNTbits
                                           	extern	_T3LOADbits
                                           	extern	_PWM0DRbits
                                           	extern	_PWM1DRbits
                                           	extern	_PWM2DRbits
                                           	extern	_PWMCR0bits
                                           	extern	_PWMCR1bits
                                           	extern	_OSCMRbits
                                           	extern	_LVDCRbits
                                           	extern	_ADCR0bits
                                           	extern	_ADCR1bits
                                           	extern	_ADCR2bits
                                           	extern	_OSADJCRbits
                                           	extern	_ADRHbits
                                           	extern	_ADRLbits
                                           	extern	_P0ADCRbits
                                           	extern	_P1ADCRbits
                                           	extern	_IOP2bits
                                           	extern	_OEP2bits
                                           	extern	_PUP2bits
                                           	extern	_PDP2bits
                                           	extern	_PMODbits
                                           	extern	_PWMCR3bits
                                           	extern	_PWMCR2bits
                                           	extern	_PFRCCRbits
                                           	extern	_PFRCCALbits
                                           	extern	_EECRbits
                                           	extern	_EEPRbits
                                           	extern	_EEARbits
                                           	extern	_EEDRHbits
                                           	extern	_EEDRLbits
                                           	extern	_DBGCRbits
                                           	extern	_DBGPRbits
                                           	extern	_HIRCCALbits
                                           	extern	_INDF0
                                           	extern	_INDF1
                                           	extern	_INDF2
                                           	extern	_HIBYTE
                                           	extern	_FSR0
                                           	extern	_FSR1
                                           	extern	_PCL
                                           	extern	_PFLAG
                                           	extern	_MCR
                                           	extern	_INDF3
                                           	extern	_INTE
                                           	extern	_INTF
                                           	extern	_DRVCR
                                           	extern	_P0KBCR
                                           	extern	_P1KBCR
                                           	extern	_P2KBCR
                                           	extern	_IOP0
                                           	extern	_OEP0
                                           	extern	_PUP0
                                           	extern	_PDP0
                                           	extern	_IOP1
                                           	extern	_OEP1
                                           	extern	_PUP1
                                           	extern	_PDP1
                                           	extern	_T0CR
                                           	extern	_T0CNT
                                           	extern	_T0LOAD
                                           	extern	_T0DATA
                                           	extern	_T1CR
                                           	extern	_T1CNT
                                           	extern	_T1LOAD
                                           	extern	_T1DATA
                                           	extern	_T2CR
                                           	extern	_T2CNT
                                           	extern	_T2LOAD
                                           	extern	_T2DATA
                                           	extern	_T3CR
                                           	extern	_T3CNT
                                           	extern	_T3LOAD
                                           	extern	_PWM0DR
                                           	extern	_PWM1DR
                                           	extern	_PWM2DR
                                           	extern	_PWMCR0
                                           	extern	_PWMCR1
                                           	extern	_OSCMR
                                           	extern	_LVDCR
                                           	extern	_ADCR0
                                           	extern	_ADCR1
                                           	extern	_ADCR2
                                           	extern	_OSADJCR
                                           	extern	_ADRH
                                           	extern	_ADRL
                                           	extern	_P0ADCR
                                           	extern	_P1ADCR
                                           	extern	_IOP2
                                           	extern	_OEP2
                                           	extern	_PUP2
                                           	extern	_PDP2
                                           	extern	_PMOD
                                           	extern	_PWMCR3
                                           	extern	_PWMCR2
                                           	extern	_PFRCCR
                                           	extern	_PFRCCAL
                                           	extern	_EECR
                                           	extern	_EEPR
                                           	extern	_EEAR
                                           	extern	_EEDRH
                                           	extern	_EEDRL
                                           	extern	_DBGCR
                                           	extern	_DBGPR
                                           	extern	_HIRCCAL
                                           	extern	__gptrget1
                                           	extern	__mulchar
                                           ;--------------------------------------------------------
                                           ; global declarations
                                           ;--------------------------------------------------------
                                           	global	_TM1650_DisplayTime
                                           	global	_TM1650_Init
                                           	global	_TM1650_WriteByte
                                           	global	_bsp_i2c_rx_ack
                                           	global	_bsp_i2c_tx_byte
                                           	global	_key_ad_key_event_deal
                                           	global	_ad_key_event_10ms_isr
                                           	global	_get_key_id
                                           	global	_adc_get_val
                                           	global	_adc_single_convert
                                           	global	_adc_channel_sel
                                           	global	_Sys_Init
                                           	global	_timer_100us_isr
                                           	global	_start_send
                                           	global	_pwm_led_config
                                           	global	_timer3_config
                                           	global	_timer1_config
                                           	global	_adc_config
                                           	global	_IO_Init
                                           	global	_CLR_RAM
                                           	global	_delay_us
                                           	global	_delay_ms
                                           	global	_main
                                           	global	_int_isr
                                           	global	_low_power_time_cnt
                                           	global	_battery_status
                                           	global	_keep_time_cnt
                                           	global	_abuf
                                           	global	_statusbuf
                                           	global	_i
                                           	global	_cur_w_pwm_duty
                                           	global	_cur_y_pwm_duty
                                           	global	_cur_light_status
                                           	global	_send_buf
                                           	global	_g_data
                                           	global	_g_state
                                           	global	_pin_state
                                           	global	_adc_val_tmp
                                           	global	_adc_val_sum
                                           	global	_get_adcmax
                                           	global	_get_adcmin
                                           	global	_adc_val
                                           	global	_ad_key_event
                                           	global	_cur_key_id
                                           	global	_set_time_hold_cnt
                                           	global	_cur_set_time_status
                                           	global	_set_time_delay_cnt
                                           	global	_set_time_done_cnt
                                           	global	_thousand
                                           	global	_hundred
                                           	global	_decade
                                           	global	_unit
                                           	global	_flag1
                                           	global	_flag2
                                           	global	_cur_dev_use
                                           	global	_id_table
                                           	global	_key_event_table
                                           	global	_NUM_TABLE
                                           
                                           	global STK06
                                           	global STK05
                                           	global STK04
                                           	global STK03
                                           	global STK02
                                           	global STK01
                                           	global STK00
                                           
                                           sharebank udata_ovr 0x0000
                                           STK06	res 1
                                           STK05	res 1
                                           STK04	res 1
                                           STK03	res 1
                                           STK02	res 1
                                           STK01	res 1
                                           STK00	res 1
                                           
                                           ;--------------------------------------------------------
                                           ; global definitions
                                           ;--------------------------------------------------------
                                           UD_MC32F7361_0	udata
                                           _low_power_time_cnt	res	2
                                           
                                           UD_MC32F7361_1	udata
                                           _battery_status	res	1
                                           
                                           UD_MC32F7361_2	udata
                                           _keep_time_cnt	res	1
                                           
                                           UD_MC32F7361_3	udata
                                           _abuf	res	1
                                           
                                           UD_MC32F7361_4	udata
                                           _statusbuf	res	1
                                           
                                           UD_MC32F7361_5	udata
                                           _i	res	1
                                           
                                           UD_MC32F7361_6	udata
                                           _cur_w_pwm_duty	res	1
                                           
                                           UD_MC32F7361_7	udata
                                           _cur_y_pwm_duty	res	1
                                           
                                           UD_MC32F7361_8	udata
                                           _cur_light_status	res	1
                                           
                                           UD_MC32F7361_9	udata
                                           _send_buf	res	3
                                           
                                           UD_MC32F7361_10	udata
                                           _g_data	res	6
                                           
                                           UD_MC32F7361_11	udata
                                           _pin_state	res	1
                                           
                                           UD_MC32F7361_12	udata
                                           _adc_val_tmp	res	2
                                           
                                           UD_MC32F7361_13	udata
                                           _adc_val_sum	res	4
                                           
                                           UD_MC32F7361_14	udata
                                           _get_adcmax	res	2
                                           
                                           UD_MC32F7361_15	udata
                                           _get_adcmin	res	2
                                           
                                           UD_MC32F7361_16	udata
                                           _adc_val	res	2
                                           
                                           UD_MC32F7361_17	udata
                                           _ad_key_event	res	1
                                           
                                           UD_MC32F7361_18	udata
                                           _cur_key_id	res	1
                                           
                                           UD_MC32F7361_19	udata
                                           _set_time_hold_cnt	res	1
                                           
                                           UD_MC32F7361_20	udata
                                           _cur_set_time_status	res	1
                                           
                                           UD_MC32F7361_21	udata
                                           _set_time_delay_cnt	res	2
                                           
                                           UD_MC32F7361_22	udata
                                           _set_time_done_cnt	res	2
                                           
                                           UD_MC32F7361_23	udata
                                           _thousand	res	1
                                           
                                           UD_MC32F7361_24	udata
                                           _hundred	res	1
                                           
                                           UD_MC32F7361_25	udata
                                           _decade	res	1
                                           
                                           UD_MC32F7361_26	udata
                                           _unit	res	1
                                           
                                           UD_MC32F7361_27	udata
                                           _flag1	res	1
                                           
                                           UD_MC32F7361_28	udata
                                           _flag2	res	1
                                           
                                           UD_MC32F7361_29	udata
                                           _cur_dev_use	res	1
                                           
                                           ;--------------------------------------------------------
                                           ; absolute symbol definitions
                                           ;--------------------------------------------------------
                                           ;--------------------------------------------------------
                                           ; compiler-defined variables
                                           ;--------------------------------------------------------
                                           UDL_MC32F7361_0	udata
                                           r0x1039	res	1
                                           r0x1038	res	1
                                           r0x103A	res	1
                                           r0x103B	res	1
                                           r0x103C	res	1
                                           r0x103D	res	1
                                           r0x1049	res	1
                                           r0x104A	res	1
                                           r0x104B	res	1
                                           r0x104D	res	1
                                           r0x104C	res	1
                                           r0x104E	res	1
                                           r0x104F	res	1
                                           r0x1050	res	1
                                           r0x1051	res	1
                                           r0x1052	res	1
                                           r0x103E	res	1
                                           r0x1045	res	1
                                           r0x1046	res	1
                                           r0x1047	res	1
                                           r0x1048	res	1
                                           r0x103F	res	1
                                           r0x1041	res	1
                                           r0x1042	res	1
                                           r0x1043	res	1
                                           r0x1040	res	1
                                           r0x1044	res	1
                                           r0x1053	res	1
                                           r0x1054	res	1
                                           _g_byte_count	res	1
                                           _g_bit_count	res	1
                                           _g_timer_count	res	1
                                           _g_last_pin_state	res	1
                                           _ad_key_event_10ms_isr_filter_cnt_65536_97	res	1
                                           _ad_key_event_10ms_isr_filter_key_id_65536_97	res	1
                                           _ad_key_event_10ms_isr_count_65536_97	res	1
                                           _ad_key_event_10ms_isr_last_key_id_65536_97	res	1
                                           _int_isr_timer1_cnt_131072_201	res	2
                                           _int_isr_ad_key_scan_time_cnt_196608_211	res	1
                                           _int_isr___set_time_cnt_196608_213	res	1
                                           ;--------------------------------------------------------
                                           ; initialized data
                                           ;--------------------------------------------------------
                                           
                                           ID_MC32F7361_0	idata
                                           _g_state
                                           	db	0x00
                                           
                                           
                                           ID_MC32F7361_1	code
                                           _id_table
                                           	dw 0x17
                                           	dw 0x40
                                           	dw 0x60
                                           	dw 0x84
                                           	dw 0xb7
                                           	dw 0xe9
                                           
                                           
                                           ID_MC32F7361_2	code
                                           _key_event_table
                                           	dw 0x00
                                           	dw 0x01
                                           	dw 0x02
                                           	dw 0x03
                                           	dw 0x04
                                           	dw 0x05
                                           	dw 0x06
                                           	dw 0x07
                                           	dw 0x08
                                           	dw 0x09
                                           	dw 0x0a
                                           	dw 0x0b
                                           	dw 0x0c
                                           	dw 0x0d
                                           	dw 0x0e
                                           	dw 0x0f
                                           	dw 0x10
                                           	dw 0x11
                                           
                                           
                                           ID_MC32F7361_3	code
                                           _NUM_TABLE
                                           	dw 0xeb
                                           	dw 0x88
                                           	dw 0xb3
                                           	dw 0xba
                                           	dw 0xd8
                                           	dw 0x7a
                                           	dw 0x7b
                                           	dw 0xa8
                                           	dw 0xfb
                                           	dw 0xfa
                                           
                                           
                                           ;@Allocation info for local variables in function 'delay_ms'
                                           ;@delay_ms Sys_Init                  Allocated to registers ;size:2
                                           ;@delay_ms CLR_RAM                   Allocated to registers ;size:2
                                           ;@delay_ms IO_Init                   Allocated to registers ;size:2
                                           ;@delay_ms delay_us                  Allocated to registers ;size:2
                                           ;@delay_ms adc_config                Allocated to registers ;size:2
                                           ;@delay_ms timer1_config             Allocated to registers ;size:2
                                           ;@delay_ms timer3_config             Allocated to registers ;size:2
                                           ;@delay_ms pwm_led_config            Allocated to registers ;size:2
                                           ;@delay_ms start_send                Allocated to registers ;size:2
                                           ;@delay_ms timer_100us_isr           Allocated to registers ;size:2
                                           ;@delay_ms adc_channel_sel           Allocated to registers ;size:2
                                           ;@delay_ms adc_single_convert        Allocated to registers ;size:2
                                           ;@delay_ms adc_get_val               Allocated to registers ;size:2
                                           ;@delay_ms get_key_id                Allocated to registers ;size:2
                                           ;@delay_ms ad_key_event_10ms_isr     Allocated to registers ;size:2
                                           ;@delay_ms key_ad_key_event_deal     Allocated to registers ;size:2
                                           ;@delay_ms bsp_i2c_tx_byte           Allocated to registers ;size:2
                                           ;@delay_ms bsp_i2c_rx_ack            Allocated to registers ;size:2
                                           ;@delay_ms TM1650_WriteByte          Allocated to registers ;size:2
                                           ;@delay_ms TM1650_Init               Allocated to registers ;size:2
                                           ;@delay_ms TM1650_DisplayTime        Allocated to registers ;size:2
                                           ;@delay_ms INDF0bits                 Allocated to registers ;size:1
                                           ;@delay_ms INDF1bits                 Allocated to registers ;size:1
                                           ;@delay_ms INDF2bits                 Allocated to registers ;size:1
                                           ;@delay_ms HIBYTEbits                Allocated to registers ;size:1
                                           ;@delay_ms FSR0bits                  Allocated to registers ;size:1
                                           ;@delay_ms FSR1bits                  Allocated to registers ;size:1
                                           ;@delay_ms PCLbits                   Allocated to registers ;size:1
                                           ;@delay_ms PFLAGbits                 Allocated to registers ;size:1
                                           ;@delay_ms MCRbits                   Allocated to registers ;size:1
                                           ;@delay_ms INDF3bits                 Allocated to registers ;size:1
                                           ;@delay_ms INTEbits                  Allocated to registers ;size:1
                                           ;@delay_ms INTFbits                  Allocated to registers ;size:1
                                           ;@delay_ms DRVCRbits                 Allocated to registers ;size:1
                                           ;@delay_ms P0KBCRbits                Allocated to registers ;size:1
                                           ;@delay_ms P1KBCRbits                Allocated to registers ;size:1
                                           ;@delay_ms P2KBCRbits                Allocated to registers ;size:1
                                           ;@delay_ms IOP0bits                  Allocated to registers ;size:1
                                           ;@delay_ms OEP0bits                  Allocated to registers ;size:1
                                           ;@delay_ms PUP0bits                  Allocated to registers ;size:1
                                           ;@delay_ms PDP0bits                  Allocated to registers ;size:1
                                           ;@delay_ms IOP1bits                  Allocated to registers ;size:1
                                           ;@delay_ms OEP1bits                  Allocated to registers ;size:1
                                           ;@delay_ms PUP1bits                  Allocated to registers ;size:1
                                           ;@delay_ms PDP1bits                  Allocated to registers ;size:1
                                           ;@delay_ms T0CRbits                  Allocated to registers ;size:1
                                           ;@delay_ms T0CNTbits                 Allocated to registers ;size:1
                                           ;@delay_ms T0LOADbits                Allocated to registers ;size:1
                                           ;@delay_ms T0DATAbits                Allocated to registers ;size:1
                                           ;@delay_ms T1CRbits                  Allocated to registers ;size:1
                                           ;@delay_ms T1CNTbits                 Allocated to registers ;size:1
                                           ;@delay_ms T1LOADbits                Allocated to registers ;size:1
                                           ;@delay_ms T1DATAbits                Allocated to registers ;size:1
                                           ;@delay_ms T2CRbits                  Allocated to registers ;size:1
                                           ;@delay_ms T2CNTbits                 Allocated to registers ;size:1
                                           ;@delay_ms T2LOADbits                Allocated to registers ;size:1
                                           ;@delay_ms T2DATAbits                Allocated to registers ;size:1
                                           ;@delay_ms T3CRbits                  Allocated to registers ;size:1
                                           ;@delay_ms T3CNTbits                 Allocated to registers ;size:1
                                           ;@delay_ms T3LOADbits                Allocated to registers ;size:1
                                           ;@delay_ms PWM0DRbits                Allocated to registers ;size:1
                                           ;@delay_ms PWM1DRbits                Allocated to registers ;size:1
                                           ;@delay_ms PWM2DRbits                Allocated to registers ;size:1
                                           ;@delay_ms PWMCR0bits                Allocated to registers ;size:1
                                           ;@delay_ms PWMCR1bits                Allocated to registers ;size:1
                                           ;@delay_ms OSCMRbits                 Allocated to registers ;size:1
                                           ;@delay_ms LVDCRbits                 Allocated to registers ;size:1
                                           ;@delay_ms ADCR0bits                 Allocated to registers ;size:1
                                           ;@delay_ms ADCR1bits                 Allocated to registers ;size:1
                                           ;@delay_ms ADCR2bits                 Allocated to registers ;size:1
                                           ;@delay_ms OSADJCRbits               Allocated to registers ;size:1
                                           ;@delay_ms ADRHbits                  Allocated to registers ;size:1
                                           ;@delay_ms ADRLbits                  Allocated to registers ;size:1
                                           ;@delay_ms P0ADCRbits                Allocated to registers ;size:1
                                           ;@delay_ms P1ADCRbits                Allocated to registers ;size:1
                                           ;@delay_ms IOP2bits                  Allocated to registers ;size:1
                                           ;@delay_ms OEP2bits                  Allocated to registers ;size:1
                                           ;@delay_ms PUP2bits                  Allocated to registers ;size:1
                                           ;@delay_ms PDP2bits                  Allocated to registers ;size:1
                                           ;@delay_ms PMODbits                  Allocated to registers ;size:1
                                           ;@delay_ms PWMCR3bits                Allocated to registers ;size:1
                                           ;@delay_ms PWMCR2bits                Allocated to registers ;size:1
                                           ;@delay_ms PFRCCRbits                Allocated to registers ;size:1
                                           ;@delay_ms PFRCCALbits               Allocated to registers ;size:1
                                           ;@delay_ms EECRbits                  Allocated to registers ;size:1
                                           ;@delay_ms EEPRbits                  Allocated to registers ;size:1
                                           ;@delay_ms EEARbits                  Allocated to registers ;size:1
                                           ;@delay_ms EEDRHbits                 Allocated to registers ;size:1
                                           ;@delay_ms EEDRLbits                 Allocated to registers ;size:1
                                           ;@delay_ms DBGCRbits                 Allocated to registers ;size:1
                                           ;@delay_ms DBGPRbits                 Allocated to registers ;size:1
                                           ;@delay_ms HIRCCALbits               Allocated to registers ;size:1
                                           ;@delay_ms low_power_time_cnt        Allocated to registers ;size:2
                                           ;@delay_ms battery_status            Allocated to registers ;size:1
                                           ;@delay_ms keep_time_cnt             Allocated to registers ;size:1
                                           ;@delay_ms abuf                      Allocated to registers ;size:1
                                           ;@delay_ms statusbuf                 Allocated to registers ;size:1
                                           ;@delay_ms i                         Allocated to registers ;size:1
                                           ;@delay_ms cur_w_pwm_duty            Allocated to registers ;size:1
                                           ;@delay_ms cur_y_pwm_duty            Allocated to registers ;size:1
                                           ;@delay_ms cur_light_status          Allocated to registers ;size:1
                                           ;@delay_ms send_buf                  Allocated to registers ;size:3
                                           ;@delay_ms g_data                    Allocated to registers ;size:6
                                           ;@delay_ms g_byte_count              Allocated to registers ;size:1
                                           ;@delay_ms g_bit_count               Allocated to registers ;size:1
                                           ;@delay_ms g_timer_count             Allocated to registers ;size:1
                                           ;@delay_ms g_state                   Allocated to registers ;size:1
                                           ;@delay_ms g_last_pin_state          Allocated to registers ;size:1
                                           ;@delay_ms pin_state                 Allocated to registers ;size:1
                                           ;@delay_ms adc_val_tmp               Allocated to registers ;size:2
                                           ;@delay_ms adc_val_sum               Allocated to registers ;size:4
                                           ;@delay_ms get_adcmax                Allocated to registers ;size:2
                                           ;@delay_ms get_adcmin                Allocated to registers ;size:2
                                           ;@delay_ms adc_val                   Allocated to registers ;size:2
                                           ;@delay_ms ad_key_event              Allocated to registers ;size:1
                                           ;@delay_ms cur_key_id                Allocated to registers ;size:1
                                           ;@delay_ms set_time_hold_cnt         Allocated to registers ;size:1
                                           ;@delay_ms cur_set_time_status       Allocated to registers ;size:1
                                           ;@delay_ms set_time_delay_cnt        Allocated to registers ;size:2
                                           ;@delay_ms set_time_done_cnt         Allocated to registers ;size:2
                                           ;@delay_ms thousand                  Allocated to registers ;size:1
                                           ;@delay_ms hundred                   Allocated to registers ;size:1
                                           ;@delay_ms decade                    Allocated to registers ;size:1
                                           ;@delay_ms unit                      Allocated to registers ;size:1
                                           ;@delay_ms flag1                     Allocated to registers ;size:1
                                           ;@delay_ms flag2                     Allocated to registers ;size:1
                                           ;@delay_ms cur_dev_use               Allocated to registers ;size:1
                                           ;@delay_ms xms                       Allocated to registers ;size:2
                                           ;@delay_ms i                         Allocated to registers r0x103A r0x103B ;size:2
                                           ;@delay_ms INDF0                     Allocated to registers ;size:1
                                           ;@delay_ms INDF1                     Allocated to registers ;size:1
                                           ;@delay_ms INDF2                     Allocated to registers ;size:1
                                           ;@delay_ms HIBYTE                    Allocated to registers ;size:1
                                           ;@delay_ms FSR0                      Allocated to registers ;size:1
                                           ;@delay_ms FSR1                      Allocated to registers ;size:1
                                           ;@delay_ms PCL                       Allocated to registers ;size:1
                                           ;@delay_ms PFLAG                     Allocated to registers ;size:1
                                           ;@delay_ms MCR                       Allocated to registers ;size:1
                                           ;@delay_ms INDF3                     Allocated to registers ;size:1
                                           ;@delay_ms INTE                      Allocated to registers ;size:1
                                           ;@delay_ms INTF                      Allocated to registers ;size:1
                                           ;@delay_ms DRVCR                     Allocated to registers ;size:1
                                           ;@delay_ms P0KBCR                    Allocated to registers ;size:1
                                           ;@delay_ms P1KBCR                    Allocated to registers ;size:1
                                           ;@delay_ms P2KBCR                    Allocated to registers ;size:1
                                           ;@delay_ms IOP0                      Allocated to registers ;size:1
                                           ;@delay_ms OEP0                      Allocated to registers ;size:1
                                           ;@delay_ms PUP0                      Allocated to registers ;size:1
                                           ;@delay_ms PDP0                      Allocated to registers ;size:1
                                           ;@delay_ms IOP1                      Allocated to registers ;size:1
                                           ;@delay_ms OEP1                      Allocated to registers ;size:1
                                           ;@delay_ms PUP1                      Allocated to registers ;size:1
                                           ;@delay_ms PDP1                      Allocated to registers ;size:1
                                           ;@delay_ms T0CR                      Allocated to registers ;size:1
                                           ;@delay_ms T0CNT                     Allocated to registers ;size:1
                                           ;@delay_ms T0LOAD                    Allocated to registers ;size:1
                                           ;@delay_ms T0DATA                    Allocated to registers ;size:1
                                           ;@delay_ms T1CR                      Allocated to registers ;size:1
                                           ;@delay_ms T1CNT                     Allocated to registers ;size:1
                                           ;@delay_ms T1LOAD                    Allocated to registers ;size:1
                                           ;@delay_ms T1DATA                    Allocated to registers ;size:1
                                           ;@delay_ms T2CR                      Allocated to registers ;size:1
                                           ;@delay_ms T2CNT                     Allocated to registers ;size:1
                                           ;@delay_ms T2LOAD                    Allocated to registers ;size:1
                                           ;@delay_ms T2DATA                    Allocated to registers ;size:1
                                           ;@delay_ms T3CR                      Allocated to registers ;size:1
                                           ;@delay_ms T3CNT                     Allocated to registers ;size:1
                                           ;@delay_ms T3LOAD                    Allocated to registers ;size:1
                                           ;@delay_ms PWM0DR                    Allocated to registers ;size:1
                                           ;@delay_ms PWM1DR                    Allocated to registers ;size:1
                                           ;@delay_ms PWM2DR                    Allocated to registers ;size:1
                                           ;@delay_ms PWMCR0                    Allocated to registers ;size:1
                                           ;@delay_ms PWMCR1                    Allocated to registers ;size:1
                                           ;@delay_ms OSCMR                     Allocated to registers ;size:1
                                           ;@delay_ms LVDCR                     Allocated to registers ;size:1
                                           ;@delay_ms ADCR0                     Allocated to registers ;size:1
                                           ;@delay_ms ADCR1                     Allocated to registers ;size:1
                                           ;@delay_ms ADCR2                     Allocated to registers ;size:1
                                           ;@delay_ms OSADJCR                   Allocated to registers ;size:1
                                           ;@delay_ms ADRH                      Allocated to registers ;size:1
                                           ;@delay_ms ADRL                      Allocated to registers ;size:1
                                           ;@delay_ms P0ADCR                    Allocated to registers ;size:1
                                           ;@delay_ms P1ADCR                    Allocated to registers ;size:1
                                           ;@delay_ms IOP2                      Allocated to registers ;size:1
                                           ;@delay_ms OEP2                      Allocated to registers ;size:1
                                           ;@delay_ms PUP2                      Allocated to registers ;size:1
                                           ;@delay_ms PDP2                      Allocated to registers ;size:1
                                           ;@delay_ms PMOD                      Allocated to registers ;size:1
                                           ;@delay_ms PWMCR3                    Allocated to registers ;size:1
                                           ;@delay_ms PWMCR2                    Allocated to registers ;size:1
                                           ;@delay_ms PFRCCR                    Allocated to registers ;size:1
                                           ;@delay_ms PFRCCAL                   Allocated to registers ;size:1
                                           ;@delay_ms EECR                      Allocated to registers ;size:1
                                           ;@delay_ms EEPR                      Allocated to registers ;size:1
                                           ;@delay_ms EEAR                      Allocated to registers ;size:1
                                           ;@delay_ms EEDRH                     Allocated to registers ;size:1
                                           ;@delay_ms EEDRL                     Allocated to registers ;size:1
                                           ;@delay_ms DBGCR                     Allocated to registers ;size:1
                                           ;@delay_ms DBGPR                     Allocated to registers ;size:1
                                           ;@delay_ms HIRCCAL                   Allocated to registers ;size:1
                                           ;@end Allocation info for local variables in function 'delay_ms';
                                           ;@Allocation info for local variables in function 'delay_us'
                                           ;@delay_us xus                       Allocated to registers ;size:1
                                           ;@end Allocation info for local variables in function 'delay_us';
                                           ;@Allocation info for local variables in function 'CLR_RAM'
                                           ;@end Allocation info for local variables in function 'CLR_RAM';
                                           ;@Allocation info for local variables in function 'IO_Init'
                                           ;@end Allocation info for local variables in function 'IO_Init';
                                           ;@Allocation info for local variables in function 'adc_config'
                                           ;@end Allocation info for local variables in function 'adc_config';
                                           ;@Allocation info for local variables in function 'timer1_config'
                                           ;@end Allocation info for local variables in function 'timer1_config';
                                           ;@Allocation info for local variables in function 'timer3_config'
                                           ;@end Allocation info for local variables in function 'timer3_config';
                                           ;@Allocation info for local variables in function 'pwm_led_config'
                                           ;@end Allocation info for local variables in function 'pwm_led_config';
                                           ;@Allocation info for local variables in function 'start_send'
                                           ;@end Allocation info for local variables in function 'start_send';
                                           ;@Allocation info for local variables in function 'timer_100us_isr'
                                           ;@end Allocation info for local variables in function 'timer_100us_isr';
                                           ;@Allocation info for local variables in function 'Sys_Init'
                                           ;@end Allocation info for local variables in function 'Sys_Init';
                                           ;@Allocation info for local variables in function 'adc_channel_sel'
                                           ;@adc_channel_sel adc_channel               Allocated to registers r0x103E ;size:1
                                           ;@end Allocation info for local variables in function 'adc_channel_sel';
                                           ;@Allocation info for local variables in function 'adc_single_convert'
                                           ;@end Allocation info for local variables in function 'adc_single_convert';
                                           ;@Allocation info for local variables in function 'adc_get_val'
                                           ;@end Allocation info for local variables in function 'adc_get_val';
                                           ;@Allocation info for local variables in function 'get_key_id'
                                           ;@end Allocation info for local variables in function 'get_key_id';
                                           ;@Allocation info for local variables in function 'ad_key_event_10ms_isr'
                                           ;@ad_key_event_10ms_isr last_key_id               Allocated to registers ;size:1
                                           ;@ad_key_event_10ms_isr count                     Allocated to registers ;size:1
                                           ;@ad_key_event_10ms_isr filter_cnt                Allocated to registers ;size:1
                                           ;@ad_key_event_10ms_isr filter_key_id             Allocated to registers ;size:1
                                           ;@end Allocation info for local variables in function 'ad_key_event_10ms_isr';
                                           ;@Allocation info for local variables in function 'ad_key_event_10ms_isr'
                                           ;@ad_key_event_10ms_isr last_key_id               Allocated to registers ;size:1
                                           ;@ad_key_event_10ms_isr count                     Allocated to registers ;size:1
                                           ;@ad_key_event_10ms_isr filter_cnt                Allocated to registers ;size:1
                                           ;@ad_key_event_10ms_isr filter_key_id             Allocated to registers ;size:1
                                           ;@end Allocation info for local variables in function 'ad_key_event_10ms_isr';
                                           ;@Allocation info for local variables in function 'key_ad_key_event_deal'
                                           ;@end Allocation info for local variables in function 'key_ad_key_event_deal';
                                           ;@Allocation info for local variables in function 'bsp_i2c_tx_byte'
                                           ;@bsp_i2c_tx_byte dat                       Allocated to registers r0x1039 ;size:1
                                           ;@end Allocation info for local variables in function 'bsp_i2c_tx_byte';
                                           ;@Allocation info for local variables in function 'bsp_i2c_rx_ack'
                                           ;@bsp_i2c_rx_ack ret                       Allocated to registers r0x1039 ;size:1
                                           ;@end Allocation info for local variables in function 'bsp_i2c_rx_ack';
                                           ;@Allocation info for local variables in function 'TM1650_WriteByte'
                                           ;@TM1650_WriteByte data                      Allocated to registers r0x103C ;size:1
                                           ;@TM1650_WriteByte addr                      Allocated to registers r0x103B ;size:1
                                           ;@end Allocation info for local variables in function 'TM1650_WriteByte';
                                           ;@Allocation info for local variables in function 'TM1650_Init'
                                           ;@end Allocation info for local variables in function 'TM1650_Init';
                                           ;@Allocation info for local variables in function 'TM1650_DisplayTime'
                                           ;@end Allocation info for local variables in function 'TM1650_DisplayTime';
                                           ;@Allocation info for local variables in function 'main'
                                           ;@end Allocation info for local variables in function 'main';
                                           ;@Allocation info for local variables in function 'int_isr'
                                           ;@int_isr timer1_cnt                Allocated to registers ;size:2
                                           ;@int_isr ad_key_scan_time_cnt      Allocated to registers ;size:1
                                           ;@int_isr __set_time_cnt            Allocated to registers ;size:1
                                           ;@end Allocation info for local variables in function 'int_isr';
                                           ;@Allocation info for local variables in function 'int_isr'
                                           ;@int_isr timer1_cnt                Allocated to registers ;size:2
                                           ;@int_isr ad_key_scan_time_cnt      Allocated to registers ;size:1
                                           ;@int_isr __set_time_cnt            Allocated to registers ;size:1
                                           ;@end Allocation info for local variables in function 'int_isr';
                                           
                                           ;--------------------------------------------------------
                                           ; overlayable items in internal ram 
                                           ;--------------------------------------------------------
                                           ;	udata_ovr
                                           ;--------------------------------------------------------
                                           ; reset vector 
                                           ;--------------------------------------------------------
                                           STARTUP	code 0x0000
                                           	goto	_main
                                           ;--------------------------------------------------------
                                           ; interrupt and initialization code
                                           ;--------------------------------------------------------
                                           c_interrupt	code	0x8
                                           __sdcc_interrupt
                                           ;***
                                           ;  pBlock Stats: dbName = I
                                           ;***
                                           ;entry:  _int_isr	;Function start
                                           ; 0 exit points
                                           ;functions called:
                                           ;   _timer_100us_isr
                                           ;   _timer_100us_isr
                                           ;2 compiler assigned registers:
                                           ;   r0x1053
                                           ;   r0x1054
                                           ;; Starting pCode block
                                           _int_isr	;Function start
                                           ; 0 exit points
                                           ;	.line	1213; "MC32F7361.c"	__endasm;
                                           	;
                                           	movra	_abuf;
                                           	swapar	_PFLAG;
                                           	movra	_statusbuf;
                                           	
                                           ;	.line	1216; "MC32F7361.c"	if (T1IF & T1IE)
                                           	CLRR	r0x1053
                                           	JBCLR	_INTFbits,1
                                           	INCR	r0x1053
                                           	CLRR	r0x1054
                                           	JBCLR	_INTEbits,1
                                           	INCR	r0x1054
                                           	MOVAR	r0x1054
                                           	ANDRA	r0x1053
                                           	MOVAI	0x00
                                           	ORAR	r0x1053
                                           	JBCLR	PFLAG,2
                                           	GOTO	_01022_DS_
                                           ;	.line	1219; "MC32F7361.c"	timer1_cnt++;
                                           	INCR	_int_isr_timer1_cnt_131072_201
                                           	JBCLR	PFLAG,2
                                           	INCR	(_int_isr_timer1_cnt_131072_201 + 1)
                                           ;;unsigned compare: left < lit(0x400=1024), size=2
                                           ;	.line	1220; "MC32F7361.c"	if (timer1_cnt >= 1024)
                                           	MOVAI	0x04
                                           	RSUBAR	(_int_isr_timer1_cnt_131072_201 + 1)
                                           	JBSET	PFLAG,2
                                           	GOTO	_01089_DS_
                                           	MOVAI	0x00
                                           	RSUBAR	_int_isr_timer1_cnt_131072_201
                                           _01089_DS_
                                           	JBSET	PFLAG,0
                                           	GOTO	_01020_DS_
                                           ;;genSkipc:3291: created from rifx:013B5EFC
                                           ;	.line	1227; "MC32F7361.c"	timer1_cnt = 0;
                                           	CLRR	_int_isr_timer1_cnt_131072_201
                                           	CLRR	(_int_isr_timer1_cnt_131072_201 + 1)
                                           ;	.line	1229; "MC32F7361.c"	keep_time_cnt++;
                                           	INCR	_keep_time_cnt
                                           ;;unsigned compare: left < lit(0x6=6), size=1
                                           ;	.line	1230; "MC32F7361.c"	if (keep_time_cnt >= 6)
                                           	MOVAI	0x06
                                           	RSUBAR	_keep_time_cnt
                                           	JBSET	PFLAG,0
                                           	GOTO	_01020_DS_
                                           ;;genSkipc:3291: created from rifx:013B5EFC
                                           ;	.line	1232; "MC32F7361.c"	keep_time_cnt = 0; // 
                                           	CLRR	_keep_time_cnt
                                           ;	.line	1234; "MC32F7361.c"	unit++;
                                           	INCR	_unit
                                           ;;unsigned compare: left < lit(0xA=10), size=1
                                           ;	.line	1235; "MC32F7361.c"	if (unit >= 10)
                                           	MOVAI	0x0a
                                           	RSUBAR	_unit
                                           	JBSET	PFLAG,0
                                           	GOTO	_01020_DS_
                                           ;;genSkipc:3291: created from rifx:013B5EFC
                                           ;	.line	1237; "MC32F7361.c"	unit = 0;
                                           	CLRR	_unit
                                           ;	.line	1238; "MC32F7361.c"	decade++;
                                           	INCR	_decade
                                           ;;unsigned compare: left < lit(0x6=6), size=1
                                           ;	.line	1239; "MC32F7361.c"	if (decade >= 6)
                                           	MOVAI	0x06
                                           	RSUBAR	_decade
                                           	JBSET	PFLAG,0
                                           	GOTO	_01020_DS_
                                           ;;genSkipc:3291: created from rifx:013B5EFC
                                           ;	.line	1241; "MC32F7361.c"	decade = 0;
                                           	CLRR	_decade
                                           ;	.line	1242; "MC32F7361.c"	hundred++;
                                           	INCR	_hundred
                                           ;;unsigned compare: left < lit(0x2=2), size=1
                                           ;	.line	1243; "MC32F7361.c"	if (thousand < 2)
                                           	MOVAI	0x02
                                           	RSUBAR	_thousand
                                           	JBCLR	PFLAG,0
                                           	GOTO	_01011_DS_
                                           ;;genSkipc:3291: created from rifx:013B5EFC
                                           ;;unsigned compare: left < lit(0xA=10), size=1
                                           ;	.line	1245; "MC32F7361.c"	if (hundred >= 10)
                                           	MOVAI	0x0a
                                           	RSUBAR	_hundred
                                           	JBSET	PFLAG,0
                                           	GOTO	_01020_DS_
                                           ;;genSkipc:3291: created from rifx:013B5EFC
                                           ;	.line	1247; "MC32F7361.c"	hundred = 0;
                                           	CLRR	_hundred
                                           ;	.line	1248; "MC32F7361.c"	thousand++;
                                           	INCR	_thousand
                                           	GOTO	_01020_DS_
                                           ;;unsigned compare: left < lit(0x4=4), size=1
                                           _01011_DS_
                                           ;	.line	1253; "MC32F7361.c"	if (hundred >= 4)
                                           	MOVAI	0x04
                                           	RSUBAR	_hundred
                                           	JBSET	PFLAG,0
                                           	GOTO	_01020_DS_
                                           ;;genSkipc:3291: created from rifx:013B5EFC
                                           ;	.line	1255; "MC32F7361.c"	thousand = 0;
                                           	CLRR	_thousand
                                           ;	.line	1256; "MC32F7361.c"	hundred = 0;
                                           	CLRR	_hundred
                                           ;	.line	1257; "MC32F7361.c"	decade = 0;
                                           	CLRR	_decade
                                           ;	.line	1258; "MC32F7361.c"	unit = 0;
                                           	CLRR	_unit
                                           _01020_DS_
                                           ;	.line	1265; "MC32F7361.c"	T1IF = 0;
                                           	BCLR	_INTFbits,1
                                           _01022_DS_
                                           ;	.line	1268; "MC32F7361.c"	if (T3IF & T3IE)
                                           	CLRR	r0x1053
                                           	JBCLR	_INTFbits,7
                                           	INCR	r0x1053
                                           	CLRR	r0x1054
                                           	JBCLR	_INTEbits,7
                                           	INCR	r0x1054
                                           	MOVAR	r0x1054
                                           	ANDRA	r0x1053
                                           	MOVAI	0x00
                                           	ORAR	r0x1053
                                           	JBCLR	PFLAG,2
                                           	GOTO	_01034_DS_
                                           ;	.line	1274; "MC32F7361.c"	ad_key_scan_time_cnt++;
                                           	INCR	_int_isr_ad_key_scan_time_cnt_196608_211
                                           ;;unsigned compare: left < lit(0x64=100), size=1
                                           ;	.line	1275; "MC32F7361.c"	if (ad_key_scan_time_cnt >= 100) // 100us * 100 == 10ms
                                           	MOVAI	0x64
                                           	RSUBAR	_int_isr_ad_key_scan_time_cnt_196608_211
                                           	JBSET	PFLAG,0
                                           	GOTO	_01024_DS_
                                           ;;genSkipc:3291: created from rifx:013B5EFC
                                           ;	.line	1277; "MC32F7361.c"	flag_10ms = 1; // ad
                                           	BSET	_flag1,0
                                           ;	.line	1278; "MC32F7361.c"	ad_key_scan_time_cnt = 0;
                                           	CLRR	_int_isr_ad_key_scan_time_cnt_196608_211
                                           _01024_DS_
                                           ;	.line	1284; "MC32F7361.c"	__set_time_cnt++;
                                           	INCR	_int_isr___set_time_cnt_196608_213
                                           ;;unsigned compare: left < lit(0xA=10), size=1
                                           ;	.line	1286; "MC32F7361.c"	if (__set_time_cnt >= 10) // 1ms
                                           	MOVAI	0x0a
                                           	RSUBAR	_int_isr___set_time_cnt_196608_213
                                           	JBSET	PFLAG,0
                                           	GOTO	_01030_DS_
                                           ;;genSkipc:3291: created from rifx:013B5EFC
                                           ;	.line	1288; "MC32F7361.c"	__set_time_cnt = 0;
                                           	CLRR	_int_isr___set_time_cnt_196608_213
                                           ;	.line	1289; "MC32F7361.c"	if (STATUS_SET_TIME_HOUR == cur_set_time_status ||
                                           	MOVAR	_cur_set_time_status
                                           	XORAI	0x01
                                           	JBSET	PFLAG,2
                                           	GOTO	_01098_DS_
                                           	GOTO	_01025_DS_
                                           _01098_DS_
                                           ;	.line	1290; "MC32F7361.c"	STATUS_SET_TIME_MIN == cur_set_time_status)
                                           	MOVAR	_cur_set_time_status
                                           	XORAI	0x02
                                           	JBSET	PFLAG,2
                                           	GOTO	_01026_DS_
                                           _01025_DS_
                                           ;	.line	1292; "MC32F7361.c"	set_time_delay_cnt++;
                                           	INCR	_set_time_delay_cnt
                                           	JBCLR	PFLAG,2
                                           	INCR	(_set_time_delay_cnt + 1)
                                           ;	.line	1293; "MC32F7361.c"	set_time_done_cnt++;
                                           	INCR	_set_time_done_cnt
                                           	JBCLR	PFLAG,2
                                           	INCR	(_set_time_done_cnt + 1)
                                           	GOTO	_01030_DS_
                                           _01026_DS_
                                           ;	.line	1297; "MC32F7361.c"	set_time_delay_cnt = 0;
                                           	CLRR	_set_time_delay_cnt
                                           	CLRR	(_set_time_delay_cnt + 1)
                                           ;	.line	1298; "MC32F7361.c"	set_time_done_cnt = 0;
                                           	CLRR	_set_time_done_cnt
                                           	CLRR	(_set_time_done_cnt + 1)
                                           _01030_DS_
                                           ;	.line	1327; "MC32F7361.c"	low_power_time_cnt++;
                                           	INCR	_low_power_time_cnt
                                           	JBCLR	PFLAG,2
                                           	INCR	(_low_power_time_cnt + 1)
                                           ;;unsigned compare: left < lit(0x3E8=1000), size=2
                                           ;	.line	1328; "MC32F7361.c"	if (low_power_time_cnt >= ENTER_LOW_POWER_PERIOD_TIME)
                                           	MOVAI	0x03
                                           	RSUBAR	(_low_power_time_cnt + 1)
                                           	JBSET	PFLAG,2
                                           	GOTO	_01099_DS_
                                           	MOVAI	0xe8
                                           	RSUBAR	_low_power_time_cnt
                                           _01099_DS_
                                           	JBSET	PFLAG,0
                                           	GOTO	_01032_DS_
                                           ;;genSkipc:3291: created from rifx:013B5EFC
                                           ;	.line	1330; "MC32F7361.c"	flag_is_enter_low_power = 1;
                                           	BSET	_flag1,6
                                           ;	.line	1331; "MC32F7361.c"	low_power_time_cnt = 0;
                                           	CLRR	_low_power_time_cnt
                                           	CLRR	(_low_power_time_cnt + 1)
                                           _01032_DS_
                                           ;	.line	1341; "MC32F7361.c"	timer_100us_isr();
                                           	CALL	_timer_100us_isr
                                           ;	.line	1343; "MC32F7361.c"	T3IF = 0;
                                           	BCLR	_INTFbits,7
                                           _01034_DS_
                                           ;	.line	1351; "MC32F7361.c"	__endasm;
                                           	;
                                           	swapar	_statusbuf;
                                           	movra	_PFLAG;
                                           	swapr	_abuf;
                                           	swapar	_abuf;
                                           	
                                           END_OF_INTERRUPT
                                           ;	.line	1352; "MC32F7361.c"	}
                                           	RETIE	
                                           
                                           ;--------------------------------------------------------
                                           ; code
                                           ;--------------------------------------------------------
                                           code_MC32F7361	code
                                           ;***
                                           ;  pBlock Stats: dbName = M
                                           ;***
                                           ;entry:  _main	;Function start
                                           ; 2 exit points
                                           ;has an exit
                                           ;functions called:
                                           ;   _Sys_Init
                                           ;   _adc_channel_sel
                                           ;   _key_ad_key_event_deal
                                           ;   _TM1650_DisplayTime
                                           ;   _TM1650_WriteByte
                                           ;   _TM1650_WriteByte
                                           ;   _TM1650_DisplayTime
                                           ;   _TM1650_WriteByte
                                           ;   _TM1650_WriteByte
                                           ;   _TM1650_DisplayTime
                                           ;   _start_send
                                           ;   _start_send
                                           ;   _Sys_Init
                                           ;   _adc_channel_sel
                                           ;   _key_ad_key_event_deal
                                           ;   _TM1650_DisplayTime
                                           ;   _TM1650_WriteByte
                                           ;   _TM1650_WriteByte
                                           ;   _TM1650_DisplayTime
                                           ;   _TM1650_WriteByte
                                           ;   _TM1650_WriteByte
                                           ;   _TM1650_DisplayTime
                                           ;   _start_send
                                           ;   _start_send
                                           ;2 compiler assigned registers:
                                           ;   STK00
                                           ;   r0x1044
                                           ;; Starting pCode block
                                           _main	;Function start
                                           ; 2 exit points
                                           ;	.line	1013; "MC32F7361.c"	Sys_Init();
                                           	CALL	_Sys_Init
                                           ;	.line	1015; "MC32F7361.c"	ad_key_event = KEY_EVENT_NONE;
                                           	MOVAI	0x04
                                           	MOVRA	_ad_key_event
                                           ;	.line	1016; "MC32F7361.c"	cur_key_id = AD_KEY_ID_NONE;
                                           	MOVAI	0x06
                                           	MOVRA	_cur_key_id
                                           ;	.line	1017; "MC32F7361.c"	cur_w_pwm_duty = 255;
                                           	MOVAI	0xff
                                           	MOVRA	_cur_w_pwm_duty
                                           ;	.line	1018; "MC32F7361.c"	cur_y_pwm_duty = 255;
                                           	MOVAI	0xff
                                           	MOVRA	_cur_y_pwm_duty
                                           ;;gen.c:6570: size=0, offset=0, AOP_TYPE(res)=8
                                           ;	.line	1020; "MC32F7361.c"	send_buf[0] = 0xA5;
                                           	MOVAI	0xa5
                                           	MOVRA	(_send_buf + 0)
                                           _00948_DS_
                                           ;	.line	1026; "MC32F7361.c"	adc_channel_sel(ADC_CHANNEL_KEY);
                                           	MOVAI	0x01
                                           	CALL	_adc_channel_sel
                                           ;	.line	1027; "MC32F7361.c"	key_ad_key_event_deal();
                                           	CALL	_key_ad_key_event_deal
                                           ;	.line	1086; "MC32F7361.c"	if (STATUS_SET_TIME_HOUR == cur_set_time_status)
                                           	MOVAR	_cur_set_time_status
                                           	XORAI	0x01
                                           	JBSET	PFLAG,2
                                           	GOTO	_00940_DS_
                                           ;;unsigned compare: left < lit(0x1F4=500), size=2
                                           ;	.line	1088; "MC32F7361.c"	if (set_time_delay_cnt < 500)
                                           	MOVAI	0x01
                                           	RSUBAR	(_set_time_delay_cnt + 1)
                                           	JBSET	PFLAG,2
                                           	GOTO	_00996_DS_
                                           	MOVAI	0xf4
                                           	RSUBAR	_set_time_delay_cnt
                                           _00996_DS_
                                           	JBCLR	PFLAG,0
                                           	GOTO	_00925_DS_
                                           ;;genSkipc:3291: created from rifx:013B5EFC
                                           ;	.line	1090; "MC32F7361.c"	TM1650_DisplayTime();
                                           	CALL	_TM1650_DisplayTime
                                           	GOTO	_00926_DS_
                                           _00925_DS_
                                           ;	.line	1094; "MC32F7361.c"	TM1650_WriteByte(0x6E, 0x00);        // 4
                                           	MOVAI	0x00
                                           	MOVRA	STK00
                                           	MOVAI	0x6e
                                           	CALL	_TM1650_WriteByte
                                           ;	.line	1095; "MC32F7361.c"	TM1650_WriteByte(0x6C, 0x00 | 0x04); // 3
                                           	MOVAI	0x04
                                           	MOVRA	STK00
                                           	MOVAI	0x6c
                                           	CALL	_TM1650_WriteByte
                                           ;;unsigned compare: left < lit(0x3E7=999), size=2
                                           ;	.line	1097; "MC32F7361.c"	if (set_time_delay_cnt >= 1000 - 1)
                                           	MOVAI	0x03
                                           	RSUBAR	(_set_time_delay_cnt + 1)
                                           	JBSET	PFLAG,2
                                           	GOTO	_00997_DS_
                                           	MOVAI	0xe7
                                           	RSUBAR	_set_time_delay_cnt
                                           _00997_DS_
                                           	JBSET	PFLAG,0
                                           	GOTO	_00926_DS_
                                           ;;genSkipc:3291: created from rifx:013B5EFC
                                           ;	.line	1099; "MC32F7361.c"	set_time_delay_cnt = 0;
                                           	CLRR	_set_time_delay_cnt
                                           	CLRR	(_set_time_delay_cnt + 1)
                                           ;;unsigned compare: left < lit(0x1388=5000), size=2
                                           _00926_DS_
                                           ;	.line	1103; "MC32F7361.c"	if (set_time_done_cnt >= 5000)
                                           	MOVAI	0x13
                                           	RSUBAR	(_set_time_done_cnt + 1)
                                           	JBSET	PFLAG,2
                                           	GOTO	_00998_DS_
                                           	MOVAI	0x88
                                           	RSUBAR	_set_time_done_cnt
                                           _00998_DS_
                                           	JBSET	PFLAG,0
                                           	GOTO	_00941_DS_
                                           ;;genSkipc:3291: created from rifx:013B5EFC
                                           ;	.line	1105; "MC32F7361.c"	cur_set_time_status = STATUS_SET_TIME_MIN;
                                           	MOVAI	0x02
                                           	MOVRA	_cur_set_time_status
                                           ;	.line	1106; "MC32F7361.c"	set_time_done_cnt = 0;
                                           	CLRR	_set_time_done_cnt
                                           	CLRR	(_set_time_done_cnt + 1)
                                           	GOTO	_00941_DS_
                                           _00940_DS_
                                           ;	.line	1109; "MC32F7361.c"	else if (STATUS_SET_TIME_MIN == cur_set_time_status)
                                           	MOVAR	_cur_set_time_status
                                           	XORAI	0x02
                                           	JBSET	PFLAG,2
                                           	GOTO	_00937_DS_
                                           ;;unsigned compare: left < lit(0x1F4=500), size=2
                                           ;	.line	1111; "MC32F7361.c"	if (set_time_delay_cnt < 500)
                                           	MOVAI	0x01
                                           	RSUBAR	(_set_time_delay_cnt + 1)
                                           	JBSET	PFLAG,2
                                           	GOTO	_00999_DS_
                                           	MOVAI	0xf4
                                           	RSUBAR	_set_time_delay_cnt
                                           _00999_DS_
                                           	JBCLR	PFLAG,0
                                           	GOTO	_00932_DS_
                                           ;;genSkipc:3291: created from rifx:013B5EFC
                                           ;	.line	1113; "MC32F7361.c"	TM1650_DisplayTime();
                                           	CALL	_TM1650_DisplayTime
                                           	GOTO	_00933_DS_
                                           _00932_DS_
                                           ;	.line	1117; "MC32F7361.c"	TM1650_WriteByte(0x6A, 0x00); // 2
                                           	MOVAI	0x00
                                           	MOVRA	STK00
                                           	MOVAI	0x6a
                                           	CALL	_TM1650_WriteByte
                                           ;	.line	1118; "MC32F7361.c"	TM1650_WriteByte(0x68, 0x00); // 1
                                           	MOVAI	0x00
                                           	MOVRA	STK00
                                           	MOVAI	0x68
                                           	CALL	_TM1650_WriteByte
                                           ;;unsigned compare: left < lit(0x3E7=999), size=2
                                           ;	.line	1120; "MC32F7361.c"	if (set_time_delay_cnt >= 1000 - 1)
                                           	MOVAI	0x03
                                           	RSUBAR	(_set_time_delay_cnt + 1)
                                           	JBSET	PFLAG,2
                                           	GOTO	_01000_DS_
                                           	MOVAI	0xe7
                                           	RSUBAR	_set_time_delay_cnt
                                           _01000_DS_
                                           	JBSET	PFLAG,0
                                           	GOTO	_00933_DS_
                                           ;;genSkipc:3291: created from rifx:013B5EFC
                                           ;	.line	1122; "MC32F7361.c"	set_time_delay_cnt = 0;
                                           	CLRR	_set_time_delay_cnt
                                           	CLRR	(_set_time_delay_cnt + 1)
                                           ;;unsigned compare: left < lit(0x1388=5000), size=2
                                           _00933_DS_
                                           ;	.line	1126; "MC32F7361.c"	if (set_time_done_cnt >= 5000)
                                           	MOVAI	0x13
                                           	RSUBAR	(_set_time_done_cnt + 1)
                                           	JBSET	PFLAG,2
                                           	GOTO	_01001_DS_
                                           	MOVAI	0x88
                                           	RSUBAR	_set_time_done_cnt
                                           _01001_DS_
                                           	JBSET	PFLAG,0
                                           	GOTO	_00941_DS_
                                           ;;genSkipc:3291: created from rifx:013B5EFC
                                           ;	.line	1128; "MC32F7361.c"	cur_set_time_status = STATUS_NONE;
                                           	CLRR	_cur_set_time_status
                                           ;	.line	1129; "MC32F7361.c"	set_time_done_cnt = 0;
                                           	CLRR	_set_time_done_cnt
                                           	CLRR	(_set_time_done_cnt + 1)
                                           	GOTO	_00941_DS_
                                           _00937_DS_
                                           ;	.line	1134; "MC32F7361.c"	TM1650_DisplayTime(); // 
                                           	CALL	_TM1650_DisplayTime
                                           _00941_DS_
                                           ;	.line	1137; "MC32F7361.c"	if (flag_is_send_data)
                                           	JBSET	_flag1,4
                                           	GOTO	_00945_DS_
                                           ;	.line	1139; "MC32F7361.c"	send_buf[2] = ~send_buf[1];
                                           	MOVAR	(_send_buf + 1)
                                           	MOVRA	r0x1044
                                           	COMAR	r0x1044
                                           	MOVRA	r0x1044
                                           ;;gen.c:6570: size=0, offset=0, AOP_TYPE(res)=8
                                           	MOVAR	r0x1044
                                           	MOVRA	(_send_buf + 2)
                                           ;	.line	1140; "MC32F7361.c"	start_send();
                                           	CALL	_start_send
                                           ;	.line	1141; "MC32F7361.c"	flag_is_send_data = 0;
                                           	BCLR	_flag1,4
                                           	GOTO	_00946_DS_
                                           _00945_DS_
                                           ;	.line	1143; "MC32F7361.c"	else if (flag_recv_time_ack)
                                           	JBSET	_flag1,3
                                           	GOTO	_00946_DS_
                                           ;;gen.c:6570: size=0, offset=0, AOP_TYPE(res)=8
                                           ;	.line	1145; "MC32F7361.c"	send_buf[1] = 0x83;
                                           	MOVAI	0x83
                                           	MOVRA	(_send_buf + 1)
                                           ;;gen.c:6570: size=0, offset=0, AOP_TYPE(res)=8
                                           ;	.line	1146; "MC32F7361.c"	send_buf[2] = 0x7C;
                                           	MOVAI	0x7c
                                           	MOVRA	(_send_buf + 2)
                                           ;	.line	1147; "MC32F7361.c"	start_send();
                                           	CALL	_start_send
                                           ;	.line	1148; "MC32F7361.c"	flag_recv_time_ack = 0;
                                           	BCLR	_flag1,3
                                           _00946_DS_
                                           ;	.line	1197; "MC32F7361.c"	__endasm;
                                           	;
                                           	clrwdt;
                                           	
                                           	GOTO	_00948_DS_
                                           ;	.line	1200; "MC32F7361.c"	}
                                           	RETURN	
                                           ; exit point of _main
                                           
                                           ;***
                                           ;  pBlock Stats: dbName = C
                                           ;***
                                           ;entry:  _TM1650_DisplayTime	;Function start
                                           ; 2 exit points
                                           ;has an exit
                                           ;functions called:
                                           ;   __gptrget1
                                           ;   _TM1650_WriteByte
                                           ;   __gptrget1
                                           ;   _TM1650_WriteByte
                                           ;   __gptrget1
                                           ;   _TM1650_WriteByte
                                           ;   __gptrget1
                                           ;   _TM1650_WriteByte
                                           ;   __gptrget1
                                           ;   _TM1650_WriteByte
                                           ;   __gptrget1
                                           ;   _TM1650_WriteByte
                                           ;   __gptrget1
                                           ;   _TM1650_WriteByte
                                           ;   __gptrget1
                                           ;   _TM1650_WriteByte
                                           ;6 compiler assigned registers:
                                           ;   r0x103D
                                           ;   r0x103E
                                           ;   STK01
                                           ;   STK00
                                           ;   r0x103F
                                           ;   r0x1040
                                           ;; Starting pCode block
                                           _TM1650_DisplayTime	;Function start
                                           ; 2 exit points
                                           ;	.line	999; "MC32F7361.c"	TM1650_WriteByte(0x68, NUM_TABLE[unit]);           // 1
                                           	MOVAR	_unit
                                           	ADDAI	(_NUM_TABLE + 0)
                                           	MOVRA	r0x103D
                                           	MOVAI	high (_NUM_TABLE + 0)
                                           	JBCLR	PFLAG,0
                                           	ADDAI	0x01
                                           	MOVRA	r0x103E
                                           	MOVAR	r0x103D
                                           	MOVRA	STK01
                                           	MOVAR	r0x103E
                                           	MOVRA	STK00
                                           	MOVAI	0x80
                                           	CALL	__gptrget1
                                           	MOVRA	r0x103F
                                           	MOVAR	r0x103F
                                           	MOVRA	STK00
                                           	MOVAI	0x68
                                           	CALL	_TM1650_WriteByte
                                           ;	.line	1000; "MC32F7361.c"	TM1650_WriteByte(0x6A, NUM_TABLE[decade]);         // 2
                                           	MOVAR	_decade
                                           	ADDAI	(_NUM_TABLE + 0)
                                           	MOVRA	r0x103D
                                           	MOVAI	high (_NUM_TABLE + 0)
                                           	JBCLR	PFLAG,0
                                           	ADDAI	0x01
                                           	MOVRA	r0x103E
                                           	MOVAR	r0x103D
                                           	MOVRA	STK01
                                           	MOVAR	r0x103E
                                           	MOVRA	STK00
                                           	MOVAI	0x80
                                           	CALL	__gptrget1
                                           	MOVRA	r0x103F
                                           	MOVAR	r0x103F
                                           	MOVRA	STK00
                                           	MOVAI	0x6a
                                           	CALL	_TM1650_WriteByte
                                           ;	.line	1001; "MC32F7361.c"	TM1650_WriteByte(0x6C, NUM_TABLE[hundred] | 0x04); // 3
                                           	MOVAR	_hundred
                                           	ADDAI	(_NUM_TABLE + 0)
                                           	MOVRA	r0x103D
                                           	MOVAI	high (_NUM_TABLE + 0)
                                           	JBCLR	PFLAG,0
                                           	ADDAI	0x01
                                           	MOVRA	r0x103E
                                           	MOVAR	r0x103D
                                           	MOVRA	STK01
                                           	MOVAR	r0x103E
                                           	MOVRA	STK00
                                           	MOVAI	0x80
                                           	CALL	__gptrget1
                                           	MOVRA	r0x103F
                                           	MOVAI	0x04
                                           	ORAR	r0x103F
                                           	MOVRA	r0x103D
                                           	MOVAR	r0x103D
                                           	MOVRA	STK00
                                           	MOVAI	0x6c
                                           	CALL	_TM1650_WriteByte
                                           ;	.line	1002; "MC32F7361.c"	TM1650_WriteByte(0x6E, NUM_TABLE[thousand]);       // 4
                                           	MOVAR	_thousand
                                           	ADDAI	(_NUM_TABLE + 0)
                                           	MOVRA	r0x103D
                                           	MOVAI	high (_NUM_TABLE + 0)
                                           	JBCLR	PFLAG,0
                                           	ADDAI	0x01
                                           	MOVRA	r0x103F
                                           	MOVAR	r0x103D
                                           	MOVRA	STK01
                                           	MOVAR	r0x103F
                                           	MOVRA	STK00
                                           	MOVAI	0x80
                                           	CALL	__gptrget1
                                           	MOVRA	r0x1040
                                           	MOVAR	r0x1040
                                           	MOVRA	STK00
                                           	MOVAI	0x6e
                                           	CALL	_TM1650_WriteByte
                                           ;	.line	1003; "MC32F7361.c"	}
                                           	RETURN	
                                           ; exit point of _TM1650_DisplayTime
                                           
                                           ;***
                                           ;  pBlock Stats: dbName = C
                                           ;***
                                           ;entry:  _TM1650_Init	;Function start
                                           ; 2 exit points
                                           ;has an exit
                                           ;functions called:
                                           ;   _delay_ms
                                           ;   _TM1650_WriteByte
                                           ;   _delay_ms
                                           ;   _TM1650_WriteByte
                                           ;1 compiler assigned register :
                                           ;   STK00
                                           ;; Starting pCode block
                                           _TM1650_Init	;Function start
                                           ; 2 exit points
                                           ;	.line	980; "MC32F7361.c"	I2C_SDA_OUT();
                                           	BSET	_OEP0bits,4
                                           ;	.line	981; "MC32F7361.c"	I2C_SCL_OUT();
                                           	BSET	_OEP1bits,1
                                           ;	.line	982; "MC32F7361.c"	I2C_SDA_H();
                                           	BSET	_IOP0bits,4
                                           ;	.line	983; "MC32F7361.c"	delay_ms(5);
                                           	MOVAI	0x05
                                           	MOVRA	STK00
                                           	MOVAI	0x00
                                           	CALL	_delay_ms
                                           ;	.line	989; "MC32F7361.c"	TM1650_WriteByte(0x48, TM1650_DISPLAY_ON | TM1650_BRIGHT_MAX);
                                           	MOVAI	0x71
                                           	MOVRA	STK00
                                           	MOVAI	0x48
                                           	CALL	_TM1650_WriteByte
                                           ;	.line	993; "MC32F7361.c"	}
                                           	RETURN	
                                           ; exit point of _TM1650_Init
                                           
                                           ;***
                                           ;  pBlock Stats: dbName = C
                                           ;***
                                           ;entry:  _TM1650_WriteByte	;Function start
                                           ; 2 exit points
                                           ;has an exit
                                           ;functions called:
                                           ;   _delay_us
                                           ;   _delay_us
                                           ;   _bsp_i2c_tx_byte
                                           ;   _bsp_i2c_rx_ack
                                           ;   _bsp_i2c_tx_byte
                                           ;   _bsp_i2c_rx_ack
                                           ;   _delay_us
                                           ;   _delay_us
                                           ;   _delay_us
                                           ;   _delay_us
                                           ;   _bsp_i2c_tx_byte
                                           ;   _bsp_i2c_rx_ack
                                           ;   _bsp_i2c_tx_byte
                                           ;   _bsp_i2c_rx_ack
                                           ;   _delay_us
                                           ;   _delay_us
                                           ;3 compiler assigned registers:
                                           ;   r0x103B
                                           ;   STK00
                                           ;   r0x103C
                                           ;; Starting pCode block
                                           _TM1650_WriteByte	;Function start
                                           ; 2 exit points
                                           ;	.line	949; "MC32F7361.c"	void TM1650_WriteByte(uint8_t addr, uint8_t data)
                                           	MOVRA	r0x103B
                                           	MOVAR	STK00
                                           	MOVRA	r0x103C
                                           ;	.line	951; "MC32F7361.c"	cur_dev_use = DEV_USE_TM1650;
                                           	MOVAI	0x01
                                           	MOVRA	_cur_dev_use
                                           ;	.line	953; "MC32F7361.c"	I2C_SDA_OUT();
                                           	BSET	_OEP0bits,4
                                           ;	.line	954; "MC32F7361.c"	I2C_SCL_OUT();
                                           	BSET	_OEP1bits,1
                                           ;	.line	955; "MC32F7361.c"	I2C_SDA_H();
                                           	BSET	_IOP0bits,4
                                           ;	.line	956; "MC32F7361.c"	I2C_SCL_H();
                                           	BSET	_IOP1bits,1
                                           ;	.line	957; "MC32F7361.c"	delay_us(5);
                                           	MOVAI	0x05
                                           	CALL	_delay_us
                                           ;	.line	958; "MC32F7361.c"	I2C_SDA_L();
                                           	BCLR	_IOP0bits,4
                                           ;	.line	959; "MC32F7361.c"	delay_us(5);
                                           	MOVAI	0x05
                                           	CALL	_delay_us
                                           ;	.line	960; "MC32F7361.c"	I2C_SCL_L();
                                           	BCLR	_IOP1bits,1
                                           ;	.line	962; "MC32F7361.c"	bsp_i2c_tx_byte(addr);
                                           	MOVAR	r0x103B
                                           	CALL	_bsp_i2c_tx_byte
                                           ;	.line	963; "MC32F7361.c"	bsp_i2c_rx_ack();
                                           	CALL	_bsp_i2c_rx_ack
                                           ;	.line	964; "MC32F7361.c"	bsp_i2c_tx_byte(data);
                                           	MOVAR	r0x103C
                                           	CALL	_bsp_i2c_tx_byte
                                           ;	.line	965; "MC32F7361.c"	bsp_i2c_rx_ack();
                                           	CALL	_bsp_i2c_rx_ack
                                           ;	.line	967; "MC32F7361.c"	I2C_SDA_OUT();
                                           	BSET	_OEP0bits,4
                                           ;	.line	968; "MC32F7361.c"	I2C_SDA_L();
                                           	BCLR	_IOP0bits,4
                                           ;	.line	969; "MC32F7361.c"	delay_us(5);
                                           	MOVAI	0x05
                                           	CALL	_delay_us
                                           ;	.line	970; "MC32F7361.c"	I2C_SCL_H();
                                           	BSET	_IOP1bits,1
                                           ;	.line	971; "MC32F7361.c"	delay_us(5);
                                           	MOVAI	0x05
                                           	CALL	_delay_us
                                           ;	.line	972; "MC32F7361.c"	I2C_SDA_H();
                                           	BSET	_IOP0bits,4
                                           ;	.line	973; "MC32F7361.c"	cur_dev_use = DEV_USE_NONE;
                                           	CLRR	_cur_dev_use
                                           ;	.line	974; "MC32F7361.c"	}
                                           	RETURN	
                                           ; exit point of _TM1650_WriteByte
                                           
                                           ;***
                                           ;  pBlock Stats: dbName = C
                                           ;***
                                           ;entry:  _bsp_i2c_rx_ack	;Function start
                                           ; 2 exit points
                                           ;has an exit
                                           ;functions called:
                                           ;   _delay_us
                                           ;   _delay_us
                                           ;   _delay_us
                                           ;   _delay_us
                                           ;1 compiler assigned register :
                                           ;   r0x1039
                                           ;; Starting pCode block
                                           _bsp_i2c_rx_ack	;Function start
                                           ; 2 exit points
                                           ;	.line	925; "MC32F7361.c"	u8 ret = 0;
                                           	CLRR	r0x1039
                                           ;	.line	926; "MC32F7361.c"	I2C_SDA_IN();
                                           	BCLR	_OEP0bits,4
                                           ;	.line	927; "MC32F7361.c"	delay_us(5);
                                           	MOVAI	0x05
                                           	CALL	_delay_us
                                           ;	.line	928; "MC32F7361.c"	I2C_SCL_H();
                                           	BSET	_IOP1bits,1
                                           ;	.line	929; "MC32F7361.c"	delay_us(5);
                                           	MOVAI	0x05
                                           	CALL	_delay_us
                                           ;	.line	930; "MC32F7361.c"	if (!I2C_SDA_IS_H())
                                           	JBCLR	_IOP0bits,4
                                           	GOTO	_00905_DS_
                                           ;	.line	933; "MC32F7361.c"	ret = 1;
                                           	MOVAI	0x01
                                           	MOVRA	r0x1039
                                           _00905_DS_
                                           ;	.line	935; "MC32F7361.c"	I2C_SCL_L();
                                           	BCLR	_IOP1bits,1
                                           ;	.line	936; "MC32F7361.c"	return ret;
                                           	MOVAR	r0x1039
                                           ;	.line	937; "MC32F7361.c"	}
                                           	RETURN	
                                           ; exit point of _bsp_i2c_rx_ack
                                           
                                           ;***
                                           ;  pBlock Stats: dbName = C
                                           ;***
                                           ;entry:  _bsp_i2c_tx_byte	;Function start
                                           ; 2 exit points
                                           ;has an exit
                                           ;functions called:
                                           ;   _delay_us
                                           ;   _delay_us
                                           ;   _delay_us
                                           ;   _delay_us
                                           ;2 compiler assigned registers:
                                           ;   r0x1039
                                           ;   r0x103A
                                           ;; Starting pCode block
                                           _bsp_i2c_tx_byte	;Function start
                                           ; 2 exit points
                                           ;	.line	901; "MC32F7361.c"	void bsp_i2c_tx_byte(uint8_t dat)
                                           	MOVRA	r0x1039
                                           ;	.line	904; "MC32F7361.c"	I2C_SDA_OUT();
                                           	BSET	_OEP0bits,4
                                           ;	.line	905; "MC32F7361.c"	for (i = 0; i < 8; i++)
                                           	CLRR	_i
                                           _00899_DS_
                                           ;	.line	907; "MC32F7361.c"	if (dat & 0x80)
                                           	JBSET	r0x1039,7
                                           	GOTO	_00896_DS_
                                           ;	.line	909; "MC32F7361.c"	I2C_SDA_H();
                                           	BSET	_IOP0bits,4
                                           	GOTO	_00897_DS_
                                           _00896_DS_
                                           ;	.line	913; "MC32F7361.c"	I2C_SDA_L();
                                           	BCLR	_IOP0bits,4
                                           _00897_DS_
                                           ;	.line	915; "MC32F7361.c"	delay_us(5);
                                           	MOVAI	0x05
                                           	CALL	_delay_us
                                           ;	.line	916; "MC32F7361.c"	I2C_SCL_H();
                                           	BSET	_IOP1bits,1
                                           ;	.line	917; "MC32F7361.c"	delay_us(5);
                                           	MOVAI	0x05
                                           	CALL	_delay_us
                                           ;	.line	918; "MC32F7361.c"	I2C_SCL_L();
                                           	BCLR	_IOP1bits,1
                                           ;	.line	919; "MC32F7361.c"	dat <<= 1;
                                           	MOVAR	r0x1039
                                           	MOVRA	r0x103A
                                           	BCLR	PFLAG,0
                                           	RLAR	r0x103A
                                           	MOVRA	r0x1039
                                           ;	.line	905; "MC32F7361.c"	for (i = 0; i < 8; i++)
                                           	INCR	_i
                                           ;;unsigned compare: left < lit(0x8=8), size=1
                                           	MOVAI	0x08
                                           	RSUBAR	_i
                                           	JBSET	PFLAG,0
                                           	GOTO	_00899_DS_
                                           ;;genSkipc:3291: created from rifx:013B5EFC
                                           ;	.line	921; "MC32F7361.c"	}
                                           	RETURN	
                                           ; exit point of _bsp_i2c_tx_byte
                                           
                                           ;***
                                           ;  pBlock Stats: dbName = C
                                           ;***
                                           ;entry:  _key_ad_key_event_deal	;Function start
                                           ; 2 exit points
                                           ;has an exit
                                           ;functions called:
                                           ;   _ad_key_event_10ms_isr
                                           ;   __mulchar
                                           ;   __gptrget1
                                           ;   _TM1650_DisplayTime
                                           ;   _TM1650_DisplayTime
                                           ;   _TM1650_DisplayTime
                                           ;   _TM1650_DisplayTime
                                           ;   _ad_key_event_10ms_isr
                                           ;   __mulchar
                                           ;   __gptrget1
                                           ;   _TM1650_DisplayTime
                                           ;   _TM1650_DisplayTime
                                           ;   _TM1650_DisplayTime
                                           ;   _TM1650_DisplayTime
                                           ;5 compiler assigned registers:
                                           ;   STK00
                                           ;   r0x1041
                                           ;   r0x1042
                                           ;   STK01
                                           ;   r0x1043
                                           ;; Starting pCode block
                                           _key_ad_key_event_deal	;Function start
                                           ; 2 exit points
                                           ;	.line	572; "MC32F7361.c"	if (!flag_10ms)
                                           	JBCLR	_flag1,0
                                           	GOTO	_00613_DS_
                                           ;	.line	573; "MC32F7361.c"	return;
                                           	GOTO	_00724_DS_
                                           _00613_DS_
                                           ;	.line	575; "MC32F7361.c"	flag_10ms = 0;
                                           	BCLR	_flag1,0
                                           ;	.line	577; "MC32F7361.c"	ad_key_event_10ms_isr();
                                           	CALL	_ad_key_event_10ms_isr
                                           ;;unsigned compare: left < lit(0x6=6), size=1
                                           ;	.line	579; "MC32F7361.c"	if (cur_key_id < AD_KEY_ID_NONE &&
                                           	MOVAI	0x06
                                           	RSUBAR	_cur_key_id
                                           	JBCLR	PFLAG,0
                                           	GOTO	_00724_DS_
                                           ;;genSkipc:3291: created from rifx:013B5EFC
                                           ;	.line	580; "MC32F7361.c"	ad_key_event != KEY_EVENT_NONE &&
                                           	MOVAR	_ad_key_event
                                           	XORAI	0x04
                                           	JBSET	PFLAG,2
                                           	GOTO	_00879_DS_
                                           	GOTO	_00724_DS_
                                           _00879_DS_
                                           ;	.line	581; "MC32F7361.c"	ad_key_event != 0)
                                           	MOVAI	0x00
                                           	ORAR	_ad_key_event
                                           	JBCLR	PFLAG,2
                                           	GOTO	_00724_DS_
                                           ;	.line	586; "MC32F7361.c"	switch (key_event_table[cur_key_id][ad_key_event])
                                           	MOVAI	0x03
                                           	MOVRA	STK00
                                           	MOVAR	_cur_key_id
                                           	CALL	__mulchar
                                           	MOVRA	r0x1041
                                           	MOVAR	r0x1041
                                           	ADDAI	(_key_event_table + 0)
                                           	MOVRA	r0x1041
                                           	MOVAI	high (_key_event_table + 0)
                                           	JBCLR	PFLAG,0
                                           	ADDAI	0x01
                                           	MOVRA	r0x1042
                                           	MOVAR	_ad_key_event
                                           	ADDRA	r0x1041
                                           	MOVAR	r0x1042
                                           	JBCLR	PFLAG,0
                                           	ADDAI	0x01
                                           	MOVRA	r0x1042
                                           	MOVAR	r0x1041
                                           	MOVRA	STK01
                                           	MOVAR	r0x1042
                                           	MOVRA	STK00
                                           	MOVAI	0x80
                                           	CALL	__gptrget1
                                           	MOVRA	r0x1043
                                           ;;swapping arguments (AOP_TYPEs 1/2)
                                           ;;unsigned compare: left >= lit(0x12=18), size=1
                                           	MOVAI	0x12
                                           	RSUBAR	r0x1043
                                           	JBCLR	PFLAG,0
                                           	GOTO	_00719_DS_
                                           ;;genSkipc:3291: created from rifx:013B5EFC
                                           	MOVAR	r0x1043
                                           	ADDRA	PCL
                                           	GOTO	_00614_DS_
                                           	GOTO	_00615_DS_
                                           	GOTO	_00719_DS_
                                           	GOTO	_00620_DS_
                                           	GOTO	_00719_DS_
                                           	GOTO	_00626_DS_
                                           	GOTO	_00719_DS_
                                           	GOTO	_00719_DS_
                                           	GOTO	_00654_DS_
                                           	GOTO	_00657_DS_
                                           	GOTO	_00678_DS_
                                           	GOTO	_00681_DS_
                                           	GOTO	_00684_DS_
                                           	GOTO	_00685_DS_
                                           	GOTO	_00686_DS_
                                           	GOTO	_00687_DS_
                                           	GOTO	_00712_DS_
                                           	GOTO	_00715_DS_
                                           ;;gen.c:6570: size=0, offset=0, AOP_TYPE(res)=8
                                           _00614_DS_
                                           ;	.line	589; "MC32F7361.c"	send_buf[1] = 0x41;
                                           	MOVAI	0x41
                                           	MOVRA	(_send_buf + 1)
                                           ;	.line	590; "MC32F7361.c"	flag_is_send_data = 1;
                                           	BSET	_flag1,4
                                           ;	.line	591; "MC32F7361.c"	break;
                                           	GOTO	_00719_DS_
                                           _00615_DS_
                                           ;	.line	594; "MC32F7361.c"	if (flag_is_ble_open)
                                           	JBSET	_flag1,1
                                           	GOTO	_00617_DS_
                                           ;	.line	596; "MC32F7361.c"	BLE_CTL_PIN_IN();
                                           	BCLR	_OEP2bits,1
                                           ;	.line	597; "MC32F7361.c"	flag_is_ble_open = 0;
                                           	BCLR	_flag1,1
                                           	GOTO	_00719_DS_
                                           _00617_DS_
                                           ;	.line	601; "MC32F7361.c"	BLE_CTL_PIN_OUT();
                                           	BSET	_OEP2bits,1
                                           ;	.line	602; "MC32F7361.c"	BLE_CTL_PIN_LOW(); // 
                                           	BCLR	_IOP2bits,1
                                           ;	.line	603; "MC32F7361.c"	flag_is_ble_open = 1;
                                           	BSET	_flag1,1
                                           ;	.line	606; "MC32F7361.c"	break;
                                           	GOTO	_00719_DS_
                                           _00620_DS_
                                           ;	.line	614; "MC32F7361.c"	switch (cur_light_status)
                                           	MOVAR	_cur_light_status
                                           	MOVRA	r0x1041
                                           ;;swapping arguments (AOP_TYPEs 1/2)
                                           ;;unsigned compare: left >= lit(0x3=3), size=1
                                           	MOVAI	0x03
                                           	RSUBAR	r0x1041
                                           	JBCLR	PFLAG,0
                                           	GOTO	_00624_DS_
                                           ;;genSkipc:3291: created from rifx:013B5EFC
                                           	MOVAR	r0x1041
                                           	ADDRA	PCL
                                           	GOTO	_00621_DS_
                                           	GOTO	_00622_DS_
                                           	GOTO	_00623_DS_
                                           _00621_DS_
                                           ;	.line	618; "MC32F7361.c"	WHITE_PWM_DUTY_REG = cur_w_pwm_duty;
                                           	MOVAR	_cur_w_pwm_duty
                                           	MOVRA	_T2DATA
                                           ;	.line	619; "MC32F7361.c"	cur_light_status = CUR_LIGHT_STATUS_WHITE;
                                           	MOVAI	0x01
                                           	MOVRA	_cur_light_status
                                           ;	.line	620; "MC32F7361.c"	break;
                                           	GOTO	_00719_DS_
                                           _00622_DS_
                                           ;	.line	622; "MC32F7361.c"	WHITE_PWM_DUTY_REG = 0;
                                           	CLRR	_T2DATA
                                           ;	.line	623; "MC32F7361.c"	YELLOW_PWM_DUTY_REG = cur_y_pwm_duty;
                                           	MOVAR	_cur_y_pwm_duty
                                           	MOVRA	_T0DATA
                                           ;	.line	624; "MC32F7361.c"	cur_light_status = CUR_LIGHT_STATUS_YELLOW;
                                           	MOVAI	0x02
                                           	MOVRA	_cur_light_status
                                           ;	.line	625; "MC32F7361.c"	break;
                                           	GOTO	_00719_DS_
                                           _00623_DS_
                                           ;	.line	627; "MC32F7361.c"	WHITE_PWM_DUTY_REG = cur_w_pwm_duty;
                                           	MOVAR	_cur_w_pwm_duty
                                           	MOVRA	_T2DATA
                                           ;	.line	628; "MC32F7361.c"	YELLOW_PWM_DUTY_REG = cur_y_pwm_duty;
                                           	MOVAR	_cur_y_pwm_duty
                                           	MOVRA	_T0DATA
                                           ;	.line	629; "MC32F7361.c"	cur_light_status = CUR_LIGHT_STATUS_WHITE_YELLOW;
                                           	MOVAI	0x03
                                           	MOVRA	_cur_light_status
                                           ;	.line	630; "MC32F7361.c"	break;
                                           	GOTO	_00719_DS_
                                           _00624_DS_
                                           ;	.line	632; "MC32F7361.c"	WHITE_PWM_DUTY_REG = 0;
                                           	CLRR	_T2DATA
                                           ;	.line	633; "MC32F7361.c"	YELLOW_PWM_DUTY_REG = 0;
                                           	CLRR	_T0DATA
                                           ;	.line	634; "MC32F7361.c"	cur_light_status = CUR_LIGHT_STATUS_OFF;
                                           	CLRR	_cur_light_status
                                           ;	.line	638; "MC32F7361.c"	break;
                                           	GOTO	_00719_DS_
                                           _00626_DS_
                                           ;	.line	642; "MC32F7361.c"	if (adjust_pwm_dir)
                                           	JBSET	_flag1,2
                                           	GOTO	_00652_DS_
                                           ;	.line	644; "MC32F7361.c"	if (CUR_LIGHT_STATUS_WHITE == cur_light_status ||
                                           	MOVAR	_cur_light_status
                                           	XORAI	0x01
                                           	JBSET	PFLAG,2
                                           	GOTO	_00884_DS_
                                           	GOTO	_00630_DS_
                                           _00884_DS_
                                           ;	.line	645; "MC32F7361.c"	CUR_LIGHT_STATUS_WHITE_YELLOW == cur_light_status)
                                           	MOVAR	_cur_light_status
                                           	XORAI	0x03
                                           	JBSET	PFLAG,2
                                           	GOTO	_00631_DS_
                                           ;;unsigned compare: left < lit(0xEC=236), size=1
                                           _00630_DS_
                                           ;	.line	648; "MC32F7361.c"	if (cur_w_pwm_duty < 255 - 19)
                                           	MOVAI	0xec
                                           	RSUBAR	_cur_w_pwm_duty
                                           	JBCLR	PFLAG,0
                                           	GOTO	_00628_DS_
                                           ;;genSkipc:3291: created from rifx:013B5EFC
                                           ;	.line	650; "MC32F7361.c"	cur_w_pwm_duty += 18;
                                           	MOVAR	_cur_w_pwm_duty
                                           	MOVRA	r0x1041
                                           	MOVAI	0x12
                                           	ADDAR	r0x1041
                                           	MOVRA	_cur_w_pwm_duty
                                           	GOTO	_00629_DS_
                                           _00628_DS_
                                           ;	.line	654; "MC32F7361.c"	cur_w_pwm_duty = 255;
                                           	MOVAI	0xff
                                           	MOVRA	_cur_w_pwm_duty
                                           _00629_DS_
                                           ;	.line	657; "MC32F7361.c"	WHITE_PWM_DUTY_REG = cur_w_pwm_duty;
                                           	MOVAR	_cur_w_pwm_duty
                                           	MOVRA	_T2DATA
                                           _00631_DS_
                                           ;	.line	660; "MC32F7361.c"	if (CUR_LIGHT_STATUS_YELLOW == cur_light_status ||
                                           	MOVAR	_cur_light_status
                                           	XORAI	0x02
                                           	JBSET	PFLAG,2
                                           	GOTO	_00886_DS_
                                           	GOTO	_00636_DS_
                                           _00886_DS_
                                           ;	.line	661; "MC32F7361.c"	CUR_LIGHT_STATUS_WHITE_YELLOW == cur_light_status)
                                           	MOVAR	_cur_light_status
                                           	XORAI	0x03
                                           	JBSET	PFLAG,2
                                           	GOTO	_00719_DS_
                                           ;;unsigned compare: left < lit(0xEC=236), size=1
                                           _00636_DS_
                                           ;	.line	663; "MC32F7361.c"	if (cur_y_pwm_duty < 255 - 19)
                                           	MOVAI	0xec
                                           	RSUBAR	_cur_y_pwm_duty
                                           	JBCLR	PFLAG,0
                                           	GOTO	_00634_DS_
                                           ;;genSkipc:3291: created from rifx:013B5EFC
                                           ;	.line	665; "MC32F7361.c"	cur_y_pwm_duty += 18;
                                           	MOVAR	_cur_y_pwm_duty
                                           	MOVRA	r0x1041
                                           	MOVAI	0x12
                                           	ADDAR	r0x1041
                                           	MOVRA	_cur_y_pwm_duty
                                           	GOTO	_00635_DS_
                                           _00634_DS_
                                           ;	.line	669; "MC32F7361.c"	cur_y_pwm_duty = 255;
                                           	MOVAI	0xff
                                           	MOVRA	_cur_y_pwm_duty
                                           _00635_DS_
                                           ;	.line	672; "MC32F7361.c"	YELLOW_PWM_DUTY_REG = cur_y_pwm_duty;
                                           	MOVAR	_cur_y_pwm_duty
                                           	MOVRA	_T0DATA
                                           	GOTO	_00719_DS_
                                           _00652_DS_
                                           ;	.line	677; "MC32F7361.c"	if (CUR_LIGHT_STATUS_WHITE == cur_light_status ||
                                           	MOVAR	_cur_light_status
                                           	XORAI	0x01
                                           	JBSET	PFLAG,2
                                           	GOTO	_00888_DS_
                                           	GOTO	_00642_DS_
                                           _00888_DS_
                                           ;	.line	678; "MC32F7361.c"	CUR_LIGHT_STATUS_WHITE_YELLOW == cur_light_status)
                                           	MOVAR	_cur_light_status
                                           	XORAI	0x03
                                           	JBSET	PFLAG,2
                                           	GOTO	_00643_DS_
                                           ;;swapping arguments (AOP_TYPEs 1/3)
                                           ;;unsigned compare: left >= lit(0x2D=45), size=1
                                           _00642_DS_
                                           ;	.line	681; "MC32F7361.c"	if (cur_w_pwm_duty > 25 + 19)
                                           	MOVAI	0x2d
                                           	RSUBAR	_cur_w_pwm_duty
                                           	JBSET	PFLAG,0
                                           	GOTO	_00640_DS_
                                           ;;genSkipc:3291: created from rifx:013B5EFC
                                           ;	.line	683; "MC32F7361.c"	cur_w_pwm_duty -= 18;
                                           	MOVAR	_cur_w_pwm_duty
                                           	MOVRA	r0x1041
                                           	MOVAI	0xee
                                           	ADDAR	r0x1041
                                           	MOVRA	_cur_w_pwm_duty
                                           	GOTO	_00641_DS_
                                           _00640_DS_
                                           ;	.line	687; "MC32F7361.c"	cur_w_pwm_duty = 25;
                                           	MOVAI	0x19
                                           	MOVRA	_cur_w_pwm_duty
                                           _00641_DS_
                                           ;	.line	690; "MC32F7361.c"	WHITE_PWM_DUTY_REG = cur_w_pwm_duty;
                                           	MOVAR	_cur_w_pwm_duty
                                           	MOVRA	_T2DATA
                                           _00643_DS_
                                           ;	.line	693; "MC32F7361.c"	if (CUR_LIGHT_STATUS_YELLOW == cur_light_status ||
                                           	MOVAR	_cur_light_status
                                           	XORAI	0x02
                                           	JBSET	PFLAG,2
                                           	GOTO	_00890_DS_
                                           	GOTO	_00648_DS_
                                           _00890_DS_
                                           ;	.line	694; "MC32F7361.c"	CUR_LIGHT_STATUS_WHITE_YELLOW == cur_light_status)
                                           	MOVAR	_cur_light_status
                                           	XORAI	0x03
                                           	JBSET	PFLAG,2
                                           	GOTO	_00719_DS_
                                           ;;swapping arguments (AOP_TYPEs 1/3)
                                           ;;unsigned compare: left >= lit(0x2D=45), size=1
                                           _00648_DS_
                                           ;	.line	696; "MC32F7361.c"	if (cur_y_pwm_duty > 25 + 19)
                                           	MOVAI	0x2d
                                           	RSUBAR	_cur_y_pwm_duty
                                           	JBSET	PFLAG,0
                                           	GOTO	_00646_DS_
                                           ;;genSkipc:3291: created from rifx:013B5EFC
                                           ;	.line	698; "MC32F7361.c"	cur_y_pwm_duty -= 18;
                                           	MOVAR	_cur_y_pwm_duty
                                           	MOVRA	r0x1041
                                           	MOVAI	0xee
                                           	ADDAR	r0x1041
                                           	MOVRA	_cur_y_pwm_duty
                                           	GOTO	_00647_DS_
                                           _00646_DS_
                                           ;	.line	702; "MC32F7361.c"	cur_y_pwm_duty = 25;
                                           	MOVAI	0x19
                                           	MOVRA	_cur_y_pwm_duty
                                           _00647_DS_
                                           ;	.line	705; "MC32F7361.c"	YELLOW_PWM_DUTY_REG = cur_y_pwm_duty;
                                           	MOVAR	_cur_y_pwm_duty
                                           	MOVRA	_T0DATA
                                           ;	.line	709; "MC32F7361.c"	break;
                                           	GOTO	_00719_DS_
                                           _00654_DS_
                                           ;	.line	714; "MC32F7361.c"	set_time_hold_cnt++;
                                           	INCR	_set_time_hold_cnt
                                           ;;unsigned compare: left < lit(0xE=14), size=1
                                           ;	.line	715; "MC32F7361.c"	if (set_time_hold_cnt >= 14) // 14 * 150ms == 2100ms
                                           	MOVAI	0x0e
                                           	RSUBAR	_set_time_hold_cnt
                                           	JBSET	PFLAG,0
                                           	GOTO	_00719_DS_
                                           ;;genSkipc:3291: created from rifx:013B5EFC
                                           ;	.line	717; "MC32F7361.c"	set_time_hold_cnt = 0;
                                           	CLRR	_set_time_hold_cnt
                                           ;	.line	718; "MC32F7361.c"	cur_set_time_status = STATUS_SET_TIME_HOUR;
                                           	MOVAI	0x01
                                           	MOVRA	_cur_set_time_status
                                           ;	.line	721; "MC32F7361.c"	break;
                                           	GOTO	_00719_DS_
                                           _00657_DS_
                                           ;	.line	725; "MC32F7361.c"	if (STATUS_NONE != cur_set_time_status)
                                           	MOVAI	0x00
                                           	ORAR	_cur_set_time_status
                                           	JBCLR	PFLAG,2
                                           	GOTO	_00676_DS_
                                           ;	.line	727; "MC32F7361.c"	set_time_done_cnt = 0;
                                           	CLRR	_set_time_done_cnt
                                           	CLRR	(_set_time_done_cnt + 1)
                                           ;	.line	728; "MC32F7361.c"	set_time_delay_cnt = 0;
                                           	CLRR	_set_time_delay_cnt
                                           	CLRR	(_set_time_delay_cnt + 1)
                                           ;	.line	729; "MC32F7361.c"	if (STATUS_SET_TIME_HOUR == cur_set_time_status)
                                           	MOVAR	_cur_set_time_status
                                           	XORAI	0x01
                                           	JBSET	PFLAG,2
                                           	GOTO	_00673_DS_
                                           ;	.line	731; "MC32F7361.c"	hundred++;
                                           	INCR	_hundred
                                           ;;unsigned compare: left < lit(0x2=2), size=1
                                           ;	.line	732; "MC32F7361.c"	if (thousand < 2) // 0~9H,10~19H
                                           	MOVAI	0x02
                                           	RSUBAR	_thousand
                                           	JBCLR	PFLAG,0
                                           	GOTO	_00663_DS_
                                           ;;genSkipc:3291: created from rifx:013B5EFC
                                           ;;unsigned compare: left < lit(0xA=10), size=1
                                           ;	.line	734; "MC32F7361.c"	if (hundred >= 10)
                                           	MOVAI	0x0a
                                           	RSUBAR	_hundred
                                           	JBSET	PFLAG,0
                                           	GOTO	_00664_DS_
                                           ;;genSkipc:3291: created from rifx:013B5EFC
                                           ;	.line	736; "MC32F7361.c"	hundred = 0;
                                           	CLRR	_hundred
                                           ;	.line	737; "MC32F7361.c"	thousand++;
                                           	INCR	_thousand
                                           	GOTO	_00664_DS_
                                           ;;unsigned compare: left < lit(0x4=4), size=1
                                           _00663_DS_
                                           ;	.line	742; "MC32F7361.c"	if (hundred >= 4)
                                           	MOVAI	0x04
                                           	RSUBAR	_hundred
                                           	JBSET	PFLAG,0
                                           	GOTO	_00664_DS_
                                           ;;genSkipc:3291: created from rifx:013B5EFC
                                           ;	.line	744; "MC32F7361.c"	hundred--;
                                           	DECR	_hundred
                                           _00664_DS_
                                           ;	.line	748; "MC32F7361.c"	TM1650_DisplayTime();
                                           	CALL	_TM1650_DisplayTime
                                           	GOTO	_00719_DS_
                                           _00673_DS_
                                           ;	.line	750; "MC32F7361.c"	else if (STATUS_SET_TIME_MIN == cur_set_time_status)
                                           	MOVAR	_cur_set_time_status
                                           	XORAI	0x02
                                           	JBSET	PFLAG,2
                                           	GOTO	_00719_DS_
                                           ;	.line	752; "MC32F7361.c"	unit++;
                                           	INCR	_unit
                                           ;;unsigned compare: left < lit(0xA=10), size=1
                                           ;	.line	753; "MC32F7361.c"	if (unit >= 10)
                                           	MOVAI	0x0a
                                           	RSUBAR	_unit
                                           	JBSET	PFLAG,0
                                           	GOTO	_00669_DS_
                                           ;;genSkipc:3291: created from rifx:013B5EFC
                                           ;;unsigned compare: left < lit(0x5=5), size=1
                                           ;	.line	755; "MC32F7361.c"	if (decade < 5)
                                           	MOVAI	0x05
                                           	RSUBAR	_decade
                                           	JBCLR	PFLAG,0
                                           	GOTO	_00666_DS_
                                           ;;genSkipc:3291: created from rifx:013B5EFC
                                           ;	.line	757; "MC32F7361.c"	unit = 0;
                                           	CLRR	_unit
                                           ;	.line	758; "MC32F7361.c"	decade++;
                                           	INCR	_decade
                                           	GOTO	_00669_DS_
                                           _00666_DS_
                                           ;	.line	762; "MC32F7361.c"	unit--;
                                           	DECR	_unit
                                           _00669_DS_
                                           ;	.line	766; "MC32F7361.c"	TM1650_DisplayTime();
                                           	CALL	_TM1650_DisplayTime
                                           	GOTO	_00719_DS_
                                           ;;gen.c:6570: size=0, offset=0, AOP_TYPE(res)=8
                                           _00676_DS_
                                           ;	.line	771; "MC32F7361.c"	send_buf[1] = 0x61;
                                           	MOVAI	0x61
                                           	MOVRA	(_send_buf + 1)
                                           ;	.line	772; "MC32F7361.c"	flag_is_send_data = 1;
                                           	BSET	_flag1,4
                                           ;	.line	775; "MC32F7361.c"	break;
                                           	GOTO	_00719_DS_
                                           _00678_DS_
                                           ;	.line	778; "MC32F7361.c"	if (STATUS_NONE == cur_set_time_status)
                                           	MOVAI	0x00
                                           	ORAR	_cur_set_time_status
                                           	JBSET	PFLAG,2
                                           	GOTO	_00719_DS_
                                           ;;gen.c:6570: size=0, offset=0, AOP_TYPE(res)=8
                                           ;	.line	780; "MC32F7361.c"	send_buf[1] = 0x62;
                                           	MOVAI	0x62
                                           	MOVRA	(_send_buf + 1)
                                           ;	.line	781; "MC32F7361.c"	flag_is_send_data = 1;
                                           	BSET	_flag1,4
                                           ;	.line	783; "MC32F7361.c"	break;
                                           	GOTO	_00719_DS_
                                           _00681_DS_
                                           ;	.line	786; "MC32F7361.c"	if (STATUS_NONE == cur_set_time_status)
                                           	MOVAI	0x00
                                           	ORAR	_cur_set_time_status
                                           	JBSET	PFLAG,2
                                           	GOTO	_00719_DS_
                                           ;;gen.c:6570: size=0, offset=0, AOP_TYPE(res)=8
                                           ;	.line	788; "MC32F7361.c"	send_buf[1] = 0x63;
                                           	MOVAI	0x63
                                           	MOVRA	(_send_buf + 1)
                                           ;	.line	789; "MC32F7361.c"	flag_is_send_data = 1;
                                           	BSET	_flag1,4
                                           ;	.line	791; "MC32F7361.c"	break;
                                           	GOTO	_00719_DS_
                                           ;;gen.c:6570: size=0, offset=0, AOP_TYPE(res)=8
                                           _00684_DS_
                                           ;	.line	794; "MC32F7361.c"	send_buf[1] = 0x11;
                                           	MOVAI	0x11
                                           	MOVRA	(_send_buf + 1)
                                           ;	.line	795; "MC32F7361.c"	flag_is_send_data = 1;
                                           	BSET	_flag1,4
                                           ;	.line	796; "MC32F7361.c"	break;
                                           	GOTO	_00719_DS_
                                           ;;gen.c:6570: size=0, offset=0, AOP_TYPE(res)=8
                                           _00685_DS_
                                           ;	.line	799; "MC32F7361.c"	send_buf[1] = 0x12;
                                           	MOVAI	0x12
                                           	MOVRA	(_send_buf + 1)
                                           ;	.line	800; "MC32F7361.c"	flag_is_send_data = 1;
                                           	BSET	_flag1,4
                                           ;	.line	801; "MC32F7361.c"	break;
                                           	GOTO	_00719_DS_
                                           ;;gen.c:6570: size=0, offset=0, AOP_TYPE(res)=8
                                           _00686_DS_
                                           ;	.line	804; "MC32F7361.c"	send_buf[1] = 0x13;
                                           	MOVAI	0x13
                                           	MOVRA	(_send_buf + 1)
                                           ;	.line	805; "MC32F7361.c"	flag_is_send_data = 1;
                                           	BSET	_flag1,4
                                           ;	.line	806; "MC32F7361.c"	break;
                                           	GOTO	_00719_DS_
                                           _00687_DS_
                                           ;	.line	810; "MC32F7361.c"	if (STATUS_NONE != cur_set_time_status)
                                           	MOVAI	0x00
                                           	ORAR	_cur_set_time_status
                                           	JBCLR	PFLAG,2
                                           	GOTO	_00710_DS_
                                           ;	.line	812; "MC32F7361.c"	set_time_done_cnt = 0;
                                           	CLRR	_set_time_done_cnt
                                           	CLRR	(_set_time_done_cnt + 1)
                                           ;	.line	813; "MC32F7361.c"	set_time_delay_cnt = 0;
                                           	CLRR	_set_time_delay_cnt
                                           	CLRR	(_set_time_delay_cnt + 1)
                                           ;	.line	814; "MC32F7361.c"	if (STATUS_SET_TIME_HOUR == cur_set_time_status)
                                           	MOVAR	_cur_set_time_status
                                           	XORAI	0x01
                                           	JBSET	PFLAG,2
                                           	GOTO	_00707_DS_
                                           ;	.line	816; "MC32F7361.c"	if (thousand > 0) // 10H
                                           	MOVAI	0x00
                                           	ORAR	_thousand
                                           	JBCLR	PFLAG,2
                                           	GOTO	_00694_DS_
                                           ;	.line	818; "MC32F7361.c"	if (hundred > 0)
                                           	MOVAI	0x00
                                           	ORAR	_hundred
                                           	JBCLR	PFLAG,2
                                           	GOTO	_00689_DS_
                                           ;	.line	820; "MC32F7361.c"	hundred--;
                                           	DECR	_hundred
                                           	GOTO	_00695_DS_
                                           _00689_DS_
                                           ;	.line	824; "MC32F7361.c"	thousand--;
                                           	DECR	_thousand
                                           ;	.line	825; "MC32F7361.c"	hundred = 9;
                                           	MOVAI	0x09
                                           	MOVRA	_hundred
                                           	GOTO	_00695_DS_
                                           _00694_DS_
                                           ;	.line	830; "MC32F7361.c"	if (hundred > 0)
                                           	MOVAI	0x00
                                           	ORAR	_hundred
                                           	JBCLR	PFLAG,2
                                           	GOTO	_00695_DS_
                                           ;	.line	832; "MC32F7361.c"	hundred--;
                                           	DECR	_hundred
                                           _00695_DS_
                                           ;	.line	836; "MC32F7361.c"	TM1650_DisplayTime();
                                           	CALL	_TM1650_DisplayTime
                                           	GOTO	_00719_DS_
                                           _00707_DS_
                                           ;	.line	838; "MC32F7361.c"	else if (STATUS_SET_TIME_MIN == cur_set_time_status)
                                           	MOVAR	_cur_set_time_status
                                           	XORAI	0x02
                                           	JBSET	PFLAG,2
                                           	GOTO	_00719_DS_
                                           ;	.line	840; "MC32F7361.c"	if (decade > 0) // 10min
                                           	MOVAI	0x00
                                           	ORAR	_decade
                                           	JBCLR	PFLAG,2
                                           	GOTO	_00702_DS_
                                           ;	.line	842; "MC32F7361.c"	if (unit > 0)
                                           	MOVAI	0x00
                                           	ORAR	_unit
                                           	JBCLR	PFLAG,2
                                           	GOTO	_00697_DS_
                                           ;	.line	844; "MC32F7361.c"	unit--;
                                           	DECR	_unit
                                           	GOTO	_00703_DS_
                                           _00697_DS_
                                           ;	.line	848; "MC32F7361.c"	decade--;
                                           	DECR	_decade
                                           ;	.line	849; "MC32F7361.c"	unit = 9;
                                           	MOVAI	0x09
                                           	MOVRA	_unit
                                           	GOTO	_00703_DS_
                                           _00702_DS_
                                           ;	.line	854; "MC32F7361.c"	if (unit > 0)
                                           	MOVAI	0x00
                                           	ORAR	_unit
                                           	JBCLR	PFLAG,2
                                           	GOTO	_00703_DS_
                                           ;	.line	856; "MC32F7361.c"	unit--;
                                           	DECR	_unit
                                           _00703_DS_
                                           ;	.line	860; "MC32F7361.c"	TM1650_DisplayTime();
                                           	CALL	_TM1650_DisplayTime
                                           	GOTO	_00719_DS_
                                           ;;gen.c:6570: size=0, offset=0, AOP_TYPE(res)=8
                                           _00710_DS_
                                           ;	.line	865; "MC32F7361.c"	send_buf[1] = 0x51;
                                           	MOVAI	0x51
                                           	MOVRA	(_send_buf + 1)
                                           ;	.line	866; "MC32F7361.c"	flag_is_send_data = 1;
                                           	BSET	_flag1,4
                                           ;	.line	869; "MC32F7361.c"	break;
                                           	GOTO	_00719_DS_
                                           _00712_DS_
                                           ;	.line	872; "MC32F7361.c"	if (STATUS_NONE == cur_set_time_status)
                                           	MOVAI	0x00
                                           	ORAR	_cur_set_time_status
                                           	JBSET	PFLAG,2
                                           	GOTO	_00719_DS_
                                           ;;gen.c:6570: size=0, offset=0, AOP_TYPE(res)=8
                                           ;	.line	874; "MC32F7361.c"	send_buf[1] = 0x52;
                                           	MOVAI	0x52
                                           	MOVRA	(_send_buf + 1)
                                           ;	.line	875; "MC32F7361.c"	flag_is_send_data = 1;
                                           	BSET	_flag1,4
                                           ;	.line	877; "MC32F7361.c"	break;
                                           	GOTO	_00719_DS_
                                           _00715_DS_
                                           ;	.line	880; "MC32F7361.c"	if (STATUS_NONE == cur_set_time_status)
                                           	MOVAI	0x00
                                           	ORAR	_cur_set_time_status
                                           	JBSET	PFLAG,2
                                           	GOTO	_00719_DS_
                                           ;;gen.c:6570: size=0, offset=0, AOP_TYPE(res)=8
                                           ;	.line	882; "MC32F7361.c"	send_buf[1] = 0x53;
                                           	MOVAI	0x53
                                           	MOVRA	(_send_buf + 1)
                                           ;	.line	883; "MC32F7361.c"	flag_is_send_data = 1;
                                           	BSET	_flag1,4
                                           _00719_DS_
                                           ;	.line	891; "MC32F7361.c"	ad_key_event = KEY_EVENT_NONE; // 
                                           	MOVAI	0x04
                                           	MOVRA	_ad_key_event
                                           _00724_DS_
                                           ;	.line	893; "MC32F7361.c"	}
                                           	RETURN	
                                           ; exit point of _key_ad_key_event_deal
                                           
                                           ;***
                                           ;  pBlock Stats: dbName = C
                                           ;***
                                           ;entry:  _ad_key_event_10ms_isr	;Function start
                                           ; 2 exit points
                                           ;has an exit
                                           ;functions called:
                                           ;   _get_key_id
                                           ;   _get_key_id
                                           ;; Starting pCode block
                                           _ad_key_event_10ms_isr	;Function start
                                           ; 2 exit points
                                           ;	.line	476; "MC32F7361.c"	cur_key_id = get_key_id();
                                           	CALL	_get_key_id
                                           	MOVRA	_cur_key_id
                                           ;	.line	478; "MC32F7361.c"	if (cur_key_id != filter_key_id && filter_cnt)
                                           	MOVAR	_ad_key_event_10ms_isr_filter_key_id_65536_97
                                           	XORAR	_cur_key_id
                                           	JBSET	PFLAG,2
                                           	GOTO	_00603_DS_
                                           	GOTO	_00493_DS_
                                           _00603_DS_
                                           	MOVAI	0x00
                                           	ORAR	_ad_key_event_10ms_isr_filter_cnt_65536_97
                                           	JBCLR	PFLAG,2
                                           	GOTO	_00493_DS_
                                           ;	.line	480; "MC32F7361.c"	filter_cnt = 0;
                                           	CLRR	_ad_key_event_10ms_isr_filter_cnt_65536_97
                                           ;	.line	481; "MC32F7361.c"	filter_key_id = cur_key_id;
                                           	MOVAR	_cur_key_id
                                           	MOVRA	_ad_key_event_10ms_isr_filter_key_id_65536_97
                                           ;	.line	482; "MC32F7361.c"	return;
                                           	GOTO	_00533_DS_
                                           ;;unsigned compare: left < lit(0x2=2), size=1
                                           _00493_DS_
                                           ;	.line	485; "MC32F7361.c"	if (filter_cnt < 2)
                                           	MOVAI	0x02
                                           	RSUBAR	_ad_key_event_10ms_isr_filter_cnt_65536_97
                                           	JBCLR	PFLAG,0
                                           	GOTO	_00496_DS_
                                           ;;genSkipc:3291: created from rifx:013B5EFC
                                           ;	.line	488; "MC32F7361.c"	filter_cnt++;
                                           	INCR	_ad_key_event_10ms_isr_filter_cnt_65536_97
                                           ;	.line	489; "MC32F7361.c"	return;
                                           	GOTO	_00533_DS_
                                           _00496_DS_
                                           ;	.line	495; "MC32F7361.c"	if (last_key_id != cur_key_id) //  / 
                                           	MOVAR	_cur_key_id
                                           	XORAR	_ad_key_event_10ms_isr_last_key_id_65536_97
                                           	JBSET	PFLAG,2
                                           	GOTO	_00605_DS_
                                           	GOTO	_00531_DS_
                                           _00605_DS_
                                           ;	.line	497; "MC32F7361.c"	if (last_key_id == AD_KEY_ID_NONE)
                                           	MOVAR	_ad_key_event_10ms_isr_last_key_id_65536_97
                                           	XORAI	0x06
                                           	JBSET	PFLAG,2
                                           	GOTO	_00521_DS_
                                           ;	.line	499; "MC32F7361.c"	count = 0;
                                           	CLRR	_ad_key_event_10ms_isr_count_65536_97
                                           	GOTO	_00532_DS_
                                           _00521_DS_
                                           ;	.line	501; "MC32F7361.c"	else if (cur_key_id == AD_KEY_ID_NONE)
                                           	MOVAR	_cur_key_id
                                           	XORAI	0x06
                                           	JBSET	PFLAG,2
                                           	GOTO	_00532_DS_
                                           ;;unsigned compare: left < lit(0x4B=75), size=1
                                           ;	.line	503; "MC32F7361.c"	if (count < 75)
                                           	MOVAI	0x4b
                                           	RSUBAR	_ad_key_event_10ms_isr_count_65536_97
                                           	JBCLR	PFLAG,0
                                           	GOTO	_00516_DS_
                                           ;;genSkipc:3291: created from rifx:013B5EFC
                                           ;	.line	506; "MC32F7361.c"	ad_key_event = KEY_EVENT_CLICK;
                                           	MOVAI	0x01
                                           	MOVRA	_ad_key_event
                                           	GOTO	_00532_DS_
                                           _00516_DS_
                                           ;	.line	512; "MC32F7361.c"	if (AD_KEY_ID_MID == last_key_id)
                                           	MOVAR	_ad_key_event_10ms_isr_last_key_id_65536_97
                                           	XORAI	0x01
                                           	JBSET	PFLAG,2
                                           	GOTO	_00513_DS_
                                           ;	.line	516; "MC32F7361.c"	if (adjust_pwm_dir)
                                           	JBSET	_flag1,2
                                           	GOTO	_00498_DS_
                                           ;	.line	518; "MC32F7361.c"	adjust_pwm_dir = 0;
                                           	BCLR	_flag1,2
                                           	GOTO	_00532_DS_
                                           _00498_DS_
                                           ;	.line	522; "MC32F7361.c"	adjust_pwm_dir = 1;
                                           	BSET	_flag1,2
                                           	GOTO	_00532_DS_
                                           _00513_DS_
                                           ;	.line	525; "MC32F7361.c"	else if (AD_KEY_ID_RIGHT == last_key_id)
                                           	MOVAR	_ad_key_event_10ms_isr_last_key_id_65536_97
                                           	XORAI	0x03
                                           	JBSET	PFLAG,2
                                           	GOTO	_00510_DS_
                                           ;	.line	527; "MC32F7361.c"	if (STATUS_NONE == cur_set_time_status)
                                           	MOVAI	0x00
                                           	ORAR	_cur_set_time_status
                                           	JBSET	PFLAG,2
                                           	GOTO	_00532_DS_
                                           ;;gen.c:6570: size=0, offset=0, AOP_TYPE(res)=8
                                           ;	.line	529; "MC32F7361.c"	send_buf[1] = 0x64;
                                           	MOVAI	0x64
                                           	MOVRA	(_send_buf + 1)
                                           ;	.line	530; "MC32F7361.c"	flag_is_send_data = 1;
                                           	BSET	_flag1,4
                                           	GOTO	_00532_DS_
                                           _00510_DS_
                                           ;	.line	533; "MC32F7361.c"	else if (AD_KEY_ID_LEFT == last_key_id)
                                           	MOVAR	_ad_key_event_10ms_isr_last_key_id_65536_97
                                           	XORAI	0x05
                                           	JBSET	PFLAG,2
                                           	GOTO	_00507_DS_
                                           ;	.line	535; "MC32F7361.c"	if (STATUS_NONE == cur_set_time_status)
                                           	MOVAI	0x00
                                           	ORAR	_cur_set_time_status
                                           	JBSET	PFLAG,2
                                           	GOTO	_00532_DS_
                                           ;;gen.c:6570: size=0, offset=0, AOP_TYPE(res)=8
                                           ;	.line	537; "MC32F7361.c"	send_buf[1] = 0x54;
                                           	MOVAI	0x54
                                           	MOVRA	(_send_buf + 1)
                                           ;	.line	538; "MC32F7361.c"	flag_is_send_data = 1;
                                           	BSET	_flag1,4
                                           	GOTO	_00532_DS_
                                           _00507_DS_
                                           ;	.line	541; "MC32F7361.c"	else if (AD_KEY_ID_DOWN == last_key_id)
                                           	MOVAR	_ad_key_event_10ms_isr_last_key_id_65536_97
                                           	XORAI	0x04
                                           	JBSET	PFLAG,2
                                           	GOTO	_00532_DS_
                                           ;;gen.c:6570: size=0, offset=0, AOP_TYPE(res)=8
                                           ;	.line	543; "MC32F7361.c"	send_buf[1] = 0x14;
                                           	MOVAI	0x14
                                           	MOVRA	(_send_buf + 1)
                                           ;	.line	544; "MC32F7361.c"	flag_is_send_data = 1;
                                           	BSET	_flag1,4
                                           	GOTO	_00532_DS_
                                           _00531_DS_
                                           ;	.line	553; "MC32F7361.c"	else if (cur_key_id != AD_KEY_ID_NONE)
                                           	MOVAR	_cur_key_id
                                           	XORAI	0x06
                                           	JBSET	PFLAG,2
                                           	GOTO	_00607_DS_
                                           	GOTO	_00532_DS_
                                           _00607_DS_
                                           ;	.line	555; "MC32F7361.c"	count++;
                                           	INCR	_ad_key_event_10ms_isr_count_65536_97
                                           ;	.line	556; "MC32F7361.c"	if (count == 75)
                                           	MOVAR	_ad_key_event_10ms_isr_count_65536_97
                                           	XORAI	0x4b
                                           	JBSET	PFLAG,2
                                           	GOTO	_00526_DS_
                                           ;	.line	558; "MC32F7361.c"	ad_key_event = KEY_EVENT_LONG;
                                           	MOVAI	0x02
                                           	MOVRA	_ad_key_event
                                           	GOTO	_00532_DS_
                                           ;;unsigned compare: left < lit(0x5A=90), size=1
                                           _00526_DS_
                                           ;	.line	560; "MC32F7361.c"	else if (count >= 75 + 15)
                                           	MOVAI	0x5a
                                           	RSUBAR	_ad_key_event_10ms_isr_count_65536_97
                                           	JBSET	PFLAG,0
                                           	GOTO	_00532_DS_
                                           ;;genSkipc:3291: created from rifx:013B5EFC
                                           ;	.line	562; "MC32F7361.c"	ad_key_event = KEY_EVENT_HOLD;
                                           	MOVAI	0x03
                                           	MOVRA	_ad_key_event
                                           ;	.line	563; "MC32F7361.c"	count = 75;
                                           	MOVAI	0x4b
                                           	MOVRA	_ad_key_event_10ms_isr_count_65536_97
                                           _00532_DS_
                                           ;	.line	567; "MC32F7361.c"	last_key_id = cur_key_id;
                                           	MOVAR	_cur_key_id
                                           	MOVRA	_ad_key_event_10ms_isr_last_key_id_65536_97
                                           _00533_DS_
                                           ;	.line	568; "MC32F7361.c"	}
                                           	RETURN	
                                           ; exit point of _ad_key_event_10ms_isr
                                           
                                           ;***
                                           ;  pBlock Stats: dbName = C
                                           ;***
                                           ;entry:  _get_key_id	;Function start
                                           ; 2 exit points
                                           ;has an exit
                                           ;functions called:
                                           ;   _adc_single_convert
                                           ;   __gptrget1
                                           ;   _adc_single_convert
                                           ;   __gptrget1
                                           ;5 compiler assigned registers:
                                           ;   r0x103E
                                           ;   STK00
                                           ;   r0x103F
                                           ;   STK01
                                           ;   r0x1040
                                           ;; Starting pCode block
                                           _get_key_id	;Function start
                                           ; 2 exit points
                                           ;	.line	459; "MC32F7361.c"	adc_val = adc_single_convert() >> 4;
                                           	CALL	_adc_single_convert
                                           	MOVRA	r0x103E
                                           	MOVAR	STK00
                                           	MOVRA	r0x103F
                                           	SWAPAR	r0x103F
                                           	ANDAI	0x0f
                                           	MOVRA	_adc_val
                                           	SWAPAR	r0x103E
                                           	MOVRA	(_adc_val + 1)
                                           	ANDAI	0xf0
                                           	ORRA	_adc_val
                                           	XORRA	(_adc_val + 1)
                                           ;	.line	460; "MC32F7361.c"	for (i = 0; i < AD_KEY_ID_NONE; i++)
                                           	CLRR	_i
                                           _00471_DS_
                                           ;	.line	462; "MC32F7361.c"	if (adc_val <= id_table[i])
                                           	MOVAR	_i
                                           	ADDAI	(_id_table + 0)
                                           	MOVRA	r0x103F
                                           	MOVAI	high (_id_table + 0)
                                           	JBCLR	PFLAG,0
                                           	ADDAI	0x01
                                           	MOVRA	r0x103E
                                           	MOVAR	r0x103F
                                           	MOVRA	STK01
                                           	MOVAR	r0x103E
                                           	MOVRA	STK00
                                           	MOVAI	0x80
                                           	CALL	__gptrget1
                                           	MOVRA	r0x103F
                                           ;;1	MOVRA	r0x1040
                                           ;;105	MOVAR	r0x1040
                                           	CLRR	r0x103E
                                           	MOVAR	(_adc_val + 1)
                                           	RSUBAR	r0x103E
                                           	JBSET	PFLAG,2
                                           	GOTO	_00487_DS_
                                           	MOVAR	_adc_val
                                           	RSUBAR	r0x103F
                                           _00487_DS_
                                           	JBSET	PFLAG,0
                                           	GOTO	_00472_DS_
                                           ;;genSkipc:3291: created from rifx:013B5EFC
                                           ;	.line	463; "MC32F7361.c"	return i;
                                           	MOVAR	_i
                                           	GOTO	_00473_DS_
                                           _00472_DS_
                                           ;	.line	460; "MC32F7361.c"	for (i = 0; i < AD_KEY_ID_NONE; i++)
                                           	INCR	_i
                                           ;;unsigned compare: left < lit(0x6=6), size=1
                                           	MOVAI	0x06
                                           	RSUBAR	_i
                                           	JBSET	PFLAG,0
                                           	GOTO	_00471_DS_
                                           ;;genSkipc:3291: created from rifx:013B5EFC
                                           ;	.line	465; "MC32F7361.c"	return AD_KEY_ID_NONE;
                                           	MOVAI	0x06
                                           _00473_DS_
                                           ;	.line	466; "MC32F7361.c"	}
                                           	RETURN	
                                           ; exit point of _get_key_id
                                           
                                           ;***
                                           ;  pBlock Stats: dbName = C
                                           ;***
                                           ;entry:  _adc_get_val	;Function start
                                           ; 2 exit points
                                           ;has an exit
                                           ;functions called:
                                           ;   _adc_single_convert
                                           ;   _adc_single_convert
                                           ;5 compiler assigned registers:
                                           ;   STK00
                                           ;   r0x1045
                                           ;   r0x1046
                                           ;   r0x1047
                                           ;   r0x1048
                                           ;; Starting pCode block
                                           _adc_get_val	;Function start
                                           ; 2 exit points
                                           ;	.line	433; "MC32F7361.c"	adc_val_sum = 0;
                                           	CLRR	_adc_val_sum
                                           	CLRR	(_adc_val_sum + 1)
                                           	CLRR	(_adc_val_sum + 2)
                                           	CLRR	(_adc_val_sum + 3)
                                           ;	.line	434; "MC32F7361.c"	get_adcmax = 0;
                                           	CLRR	_get_adcmax
                                           	CLRR	(_get_adcmax + 1)
                                           ;	.line	435; "MC32F7361.c"	get_adcmin = 0xFFFF;
                                           	MOVAI	0xff
                                           	MOVRA	_get_adcmin
                                           	MOVRA	(_get_adcmin + 1)
                                           ;	.line	437; "MC32F7361.c"	for (i = 0; i < 20; i++)
                                           	CLRR	_i
                                           _00438_DS_
                                           ;	.line	439; "MC32F7361.c"	adc_val_tmp = adc_single_convert(); // adc
                                           	CALL	_adc_single_convert
                                           	MOVRA	(_adc_val_tmp + 1)
                                           	MOVAR	STK00
                                           	MOVRA	_adc_val_tmp
                                           ;;unsigned compare: left < lit(0x2=2), size=1
                                           ;	.line	440; "MC32F7361.c"	if (i < 2)
                                           	MOVAI	0x02
                                           	RSUBAR	_i
                                           	JBSET	PFLAG,0
                                           	GOTO	_00436_DS_
                                           ;;genSkipc:3291: created from rifx:013B5EFC
                                           ;	.line	442; "MC32F7361.c"	if (adc_val_tmp > get_adcmax)
                                           	MOVAR	(_adc_val_tmp + 1)
                                           	RSUBAR	(_get_adcmax + 1)
                                           	JBSET	PFLAG,2
                                           	GOTO	_00462_DS_
                                           	MOVAR	_adc_val_tmp
                                           	RSUBAR	_get_adcmax
                                           _00462_DS_
                                           	JBCLR	PFLAG,0
                                           	GOTO	_00433_DS_
                                           ;;genSkipc:3291: created from rifx:013B5EFC
                                           ;	.line	443; "MC32F7361.c"	get_adcmax = adc_val_tmp; // 
                                           	MOVAR	_adc_val_tmp
                                           	MOVRA	_get_adcmax
                                           	MOVAR	(_adc_val_tmp + 1)
                                           	MOVRA	(_get_adcmax + 1)
                                           _00433_DS_
                                           ;	.line	444; "MC32F7361.c"	if (adc_val_tmp < get_adcmin)
                                           	MOVAR	(_get_adcmin + 1)
                                           	RSUBAR	(_adc_val_tmp + 1)
                                           	JBSET	PFLAG,2
                                           	GOTO	_00463_DS_
                                           	MOVAR	_get_adcmin
                                           	RSUBAR	_adc_val_tmp
                                           _00463_DS_
                                           	JBCLR	PFLAG,0
                                           	GOTO	_00435_DS_
                                           ;;genSkipc:3291: created from rifx:013B5EFC
                                           ;	.line	445; "MC32F7361.c"	get_adcmin = adc_val_tmp; // 
                                           	MOVAR	_adc_val_tmp
                                           	MOVRA	_get_adcmin
                                           	MOVAR	(_adc_val_tmp + 1)
                                           	MOVRA	(_get_adcmin + 1)
                                           _00435_DS_
                                           ;	.line	446; "MC32F7361.c"	adc_val_sum += adc_val_tmp;
                                           	MOVAR	_adc_val_tmp
                                           	MOVRA	r0x1045
                                           	MOVAR	(_adc_val_tmp + 1)
                                           	MOVRA	r0x1046
                                           	CLRR	r0x1047
                                           	CLRR	r0x1048
                                           	MOVAR	r0x1045
                                           	ADDRA	_adc_val_sum
                                           	MOVAR	r0x1046
                                           	JBCLR	PFLAG,0
                                           	JZAR	r0x1046
                                           	ADDRA	(_adc_val_sum + 1)
                                           	MOVAR	r0x1047
                                           	JBCLR	PFLAG,0
                                           	JZAR	r0x1047
                                           	ADDRA	(_adc_val_sum + 2)
                                           	MOVAR	r0x1048
                                           	JBCLR	PFLAG,0
                                           	JZAR	r0x1048
                                           	ADDRA	(_adc_val_sum + 3)
                                           _00436_DS_
                                           ;	.line	437; "MC32F7361.c"	for (i = 0; i < 20; i++)
                                           	INCR	_i
                                           ;;unsigned compare: left < lit(0x14=20), size=1
                                           	MOVAI	0x14
                                           	RSUBAR	_i
                                           	JBSET	PFLAG,0
                                           	GOTO	_00438_DS_
                                           ;;genSkipc:3291: created from rifx:013B5EFC
                                           ;	.line	449; "MC32F7361.c"	adc_val_sum -= get_adcmax;        // 
                                           	MOVAR	_get_adcmax
                                           	MOVRA	r0x1045
                                           	MOVAR	(_get_adcmax + 1)
                                           	MOVRA	r0x1046
                                           	CLRR	r0x1047
                                           	CLRR	r0x1048
                                           	MOVAR	r0x1045
                                           	RSUBRA	_adc_val_sum
                                           	MOVAR	r0x1046
                                           	JBSET	PFLAG,0
                                           	JZAR	r0x1046
                                           	RSUBRA	(_adc_val_sum + 1)
                                           	MOVAR	r0x1047
                                           	JBSET	PFLAG,0
                                           	JZAR	r0x1047
                                           	RSUBRA	(_adc_val_sum + 2)
                                           	MOVAR	r0x1048
                                           	JBSET	PFLAG,0
                                           	JZAR	r0x1048
                                           	RSUBRA	(_adc_val_sum + 3)
                                           ;	.line	450; "MC32F7361.c"	adc_val_sum -= get_adcmin;        // 
                                           	MOVAR	_get_adcmin
                                           	MOVRA	r0x1045
                                           	MOVAR	(_get_adcmin + 1)
                                           	MOVRA	r0x1046
                                           	CLRR	r0x1047
                                           	CLRR	r0x1048
                                           	MOVAR	r0x1045
                                           	RSUBRA	_adc_val_sum
                                           	MOVAR	r0x1046
                                           	JBSET	PFLAG,0
                                           	JZAR	r0x1046
                                           	RSUBRA	(_adc_val_sum + 1)
                                           	MOVAR	r0x1047
                                           	JBSET	PFLAG,0
                                           	JZAR	r0x1047
                                           	RSUBRA	(_adc_val_sum + 2)
                                           	MOVAR	r0x1048
                                           	JBSET	PFLAG,0
                                           	JZAR	r0x1048
                                           	RSUBRA	(_adc_val_sum + 3)
                                           ;	.line	451; "MC32F7361.c"	adc_val_tmp = (adc_val_sum >> 4); // 16
                                           	SWAPAR	_adc_val_sum
                                           	ANDAI	0x0f
                                           	MOVRA	r0x1045
                                           	SWAPAR	(_adc_val_sum + 1)
                                           	MOVRA	r0x1046
                                           	ANDAI	0xf0
                                           	ORRA	r0x1045
                                           	XORRA	r0x1046
                                           	SWAPAR	(_adc_val_sum + 2)
                                           	MOVRA	r0x1047
                                           	ANDAI	0xf0
                                           	ORRA	r0x1046
                                           	XORRA	r0x1047
                                           	SWAPAR	(_adc_val_sum + 3)
                                           	MOVRA	r0x1048
                                           	ANDAI	0xf0
                                           	ORRA	r0x1047
                                           	XORRA	r0x1048
                                           	MOVAR	r0x1045
                                           	MOVRA	_adc_val_tmp
                                           	MOVAR	r0x1046
                                           	MOVRA	(_adc_val_tmp + 1)
                                           ;	.line	453; "MC32F7361.c"	return adc_val_tmp;
                                           	MOVAR	_adc_val_tmp
                                           	MOVRA	STK00
                                           	MOVAR	(_adc_val_tmp + 1)
                                           ;	.line	454; "MC32F7361.c"	}
                                           	RETURN	
                                           ; exit point of _adc_get_val
                                           
                                           ;***
                                           ;  pBlock Stats: dbName = C
                                           ;***
                                           ;entry:  _adc_single_convert	;Function start
                                           ; 2 exit points
                                           ;has an exit
                                           ;7 compiler assigned registers:
                                           ;   r0x1038
                                           ;   r0x1039
                                           ;   r0x103A
                                           ;   r0x103B
                                           ;   r0x103C
                                           ;   r0x103D
                                           ;   STK00
                                           ;; Starting pCode block
                                           _adc_single_convert	;Function start
                                           ; 2 exit points
                                           ;	.line	423; "MC32F7361.c"	ADEOC = 0;
                                           	BCLR	_ADCR0bits,1
                                           _00425_DS_
                                           ;	.line	424; "MC32F7361.c"	while (!ADEOC)
                                           	JBSET	_ADCR0bits,1
                                           	GOTO	_00425_DS_
                                           ;	.line	426; "MC32F7361.c"	adc_val_tmp = ADRH;
                                           	MOVAR	_ADRH
                                           	MOVRA	_adc_val_tmp
                                           	CLRR	(_adc_val_tmp + 1)
                                           ;	.line	427; "MC32F7361.c"	adc_val_tmp = adc_val_tmp << 4 | (ADRL & 0x0F);
                                           	SWAPAR	(_adc_val_tmp + 1)
                                           	ANDAI	0xf0
                                           	MOVRA	r0x1038
                                           	SWAPAR	_adc_val_tmp
                                           	MOVRA	r0x1039
                                           	ANDAI	0x0f
                                           	ORRA	r0x1038
                                           	XORRA	r0x1039
                                           	MOVAR	_ADRL
                                           	MOVRA	r0x103A
                                           	CLRR	r0x103B
                                           	MOVAI	0x0f
                                           	ANDRA	r0x103A
                                           	CLRR	r0x103B
                                           ;;101	MOVAR	r0x103A
                                           ;;99	MOVRA	r0x103C
                                           ;;104	MOVAR	r0x103B
                                           ;;102	MOVRA	r0x103D
                                           ;;100	MOVAR	r0x103C
                                           	MOVAR	r0x103A
                                           	ORAR	r0x1039
                                           	MOVRA	_adc_val_tmp
                                           ;;103	MOVAR	r0x103D
                                           	MOVAI	0x00
                                           	ORAR	r0x1038
                                           	MOVRA	(_adc_val_tmp + 1)
                                           ;	.line	428; "MC32F7361.c"	return adc_val_tmp;
                                           	MOVAR	_adc_val_tmp
                                           	MOVRA	STK00
                                           	MOVAR	(_adc_val_tmp + 1)
                                           ;	.line	429; "MC32F7361.c"	}
                                           	RETURN	
                                           ; exit point of _adc_single_convert
                                           
                                           ;***
                                           ;  pBlock Stats: dbName = C
                                           ;***
                                           ;entry:  _adc_channel_sel	;Function start
                                           ; 2 exit points
                                           ;has an exit
                                           ;functions called:
                                           ;   _delay_ms
                                           ;   _delay_ms
                                           ;2 compiler assigned registers:
                                           ;   r0x103E
                                           ;   STK00
                                           ;; Starting pCode block
                                           _adc_channel_sel	;Function start
                                           ; 2 exit points
                                           ;	.line	401; "MC32F7361.c"	void adc_channel_sel(u8 adc_channel)
                                           	MOVRA	r0x103E
                                           ;	.line	403; "MC32F7361.c"	switch (adc_channel)
                                           	MOVAR	r0x103E
                                           	JBSET	PFLAG,2
                                           	GOTO	_00420_DS_
                                           	GOTO	_00407_DS_
                                           _00420_DS_
                                           	MOVAR	r0x103E
                                           	XORAI	0x01
                                           	JBSET	PFLAG,2
                                           	GOTO	_00409_DS_
                                           ;	.line	406; "MC32F7361.c"	ADCR0 = 0x7F; // AN7ADC
                                           	MOVAI	0x7f
                                           	MOVRA	_ADCR0
                                           ;	.line	407; "MC32F7361.c"	ADCR1 = 0x83; // adc == FHIRC/32VDD5V
                                           	MOVAI	0x83
                                           	MOVRA	_ADCR1
                                           ;	.line	408; "MC32F7361.c"	break;
                                           	GOTO	_00409_DS_
                                           _00407_DS_
                                           ;	.line	411; "MC32F7361.c"	ADCR0 = 0xAF; // 1/VDDADC
                                           	MOVAI	0xaf
                                           	MOVRA	_ADCR0
                                           ;	.line	412; "MC32F7361.c"	ADCR1 = 0x80; // adc == FHIRC/322V
                                           	MOVAI	0x80
                                           	MOVRA	_ADCR1
                                           _00409_DS_
                                           ;	.line	418; "MC32F7361.c"	delay_ms(1);
                                           	MOVAI	0x01
                                           	MOVRA	STK00
                                           	MOVAI	0x00
                                           	CALL	_delay_ms
                                           ;	.line	419; "MC32F7361.c"	}
                                           	RETURN	
                                           ; exit point of _adc_channel_sel
                                           
                                           ;***
                                           ;  pBlock Stats: dbName = C
                                           ;***
                                           ;entry:  _Sys_Init	;Function start
                                           ; 2 exit points
                                           ;has an exit
                                           ;functions called:
                                           ;   _CLR_RAM
                                           ;   _IO_Init
                                           ;   _adc_config
                                           ;   _timer1_config
                                           ;   _TM1650_Init
                                           ;   _pwm_led_config
                                           ;   _timer3_config
                                           ;   _delay_ms
                                           ;   _CLR_RAM
                                           ;   _IO_Init
                                           ;   _adc_config
                                           ;   _timer1_config
                                           ;   _TM1650_Init
                                           ;   _pwm_led_config
                                           ;   _timer3_config
                                           ;   _delay_ms
                                           ;1 compiler assigned register :
                                           ;   STK00
                                           ;; Starting pCode block
                                           _Sys_Init	;Function start
                                           ; 2 exit points
                                           ;	.line	368; "MC32F7361.c"	GIE = 0;
                                           	BCLR	_MCRbits,7
                                           ;	.line	369; "MC32F7361.c"	CLR_RAM();
                                           	CALL	_CLR_RAM
                                           ;	.line	370; "MC32F7361.c"	IO_Init();
                                           	CALL	_IO_Init
                                           ;	.line	372; "MC32F7361.c"	adc_config();
                                           	CALL	_adc_config
                                           ;	.line	373; "MC32F7361.c"	timer1_config(); // 
                                           	CALL	_timer1_config
                                           ;	.line	374; "MC32F7361.c"	TM1650_Init();   // LEDIC
                                           	CALL	_TM1650_Init
                                           ;	.line	375; "MC32F7361.c"	pwm_led_config();
                                           	CALL	_pwm_led_config
                                           ;	.line	376; "MC32F7361.c"	timer3_config();
                                           	CALL	_timer3_config
                                           ;	.line	379; "MC32F7361.c"	P03PD = 1; // 
                                           	BSET	_PDP0bits,3
                                           ;	.line	380; "MC32F7361.c"	P03OE = 1; // 
                                           	BSET	_OEP0bits,3
                                           ;	.line	383; "MC32F7361.c"	BLE_CTL_PIN_IN();
                                           	BCLR	_OEP2bits,1
                                           ;	.line	387; "MC32F7361.c"	P20PU = 1; // 
                                           	BSET	_PUP2bits,0
                                           ;	.line	388; "MC32F7361.c"	P20OE = 0;
                                           	BCLR	_OEP2bits,0
                                           ;	.line	394; "MC32F7361.c"	delay_ms(1); // 
                                           	MOVAI	0x01
                                           	MOVRA	STK00
                                           	MOVAI	0x00
                                           	CALL	_delay_ms
                                           ;	.line	396; "MC32F7361.c"	GIE = 1;
                                           	BSET	_MCRbits,7
                                           ;	.line	397; "MC32F7361.c"	}
                                           	RETURN	
                                           ; exit point of _Sys_Init
                                           
                                           ;***
                                           ;  pBlock Stats: dbName = C
                                           ;***
                                           ;entry:  _timer_100us_isr	;Function start
                                           ; 2 exit points
                                           ;has an exit
                                           ;10 compiler assigned registers:
                                           ;   r0x1049
                                           ;   r0x104A
                                           ;   r0x104B
                                           ;   r0x104C
                                           ;   r0x104D
                                           ;   r0x104E
                                           ;   r0x104F
                                           ;   r0x1050
                                           ;   r0x1051
                                           ;   r0x1052
                                           ;; Starting pCode block
                                           _timer_100us_isr	;Function start
                                           ; 2 exit points
                                           ;	.line	181; "MC32F7361.c"	if (g_state == TX_START || g_state == TX_SENDING_BIT || g_state == TX_SENDING_LOW)
                                           	MOVAR	_g_state
                                           	XORAI	0x01
                                           	JBSET	PFLAG,2
                                           	GOTO	_00366_DS_
                                           	GOTO	_00194_DS_
                                           _00366_DS_
                                           	MOVAR	_g_state
                                           	XORAI	0x02
                                           	JBSET	PFLAG,2
                                           	GOTO	_00367_DS_
                                           	GOTO	_00194_DS_
                                           _00367_DS_
                                           	MOVAR	_g_state
                                           	XORAI	0x03
                                           	JBSET	PFLAG,2
                                           	GOTO	_00195_DS_
                                           _00194_DS_
                                           ;	.line	183; "MC32F7361.c"	switch (g_state)
                                           	MOVAR	_g_state
                                           	MOVRA	r0x1049
                                           ;;unsigned compare: left < lit(0x1=1), size=1
                                           	MOVAI	0x01
                                           	RSUBAR	r0x1049
                                           	JBSET	PFLAG,0
                                           	GOTO	_00193_DS_
                                           ;;genSkipc:3291: created from rifx:013B5EFC
                                           ;;swapping arguments (AOP_TYPEs 1/2)
                                           ;;unsigned compare: left >= lit(0x4=4), size=1
                                           	MOVAI	0x04
                                           	RSUBAR	r0x1049
                                           	JBCLR	PFLAG,0
                                           	GOTO	_00193_DS_
                                           ;;genSkipc:3291: created from rifx:013B5EFC
                                           	DECR	r0x1049
                                           	MOVAR	r0x1049
                                           	ADDRA	PCL
                                           	GOTO	_00161_DS_
                                           	GOTO	_00164_DS_
                                           	GOTO	_00172_DS_
                                           _00161_DS_
                                           ;	.line	186; "MC32F7361.c"	if (++g_timer_count >= START_SIGNAL_TIME)
                                           	INCAR	_g_timer_count
                                           	MOVRA	_g_timer_count
                                           	MOVRA	r0x1049
                                           ;;116	MOVAR	r0x1049
                                           ;;unsigned compare: left < lit(0x64=100), size=1
                                           	MOVAI	0x64
                                           	RSUBAR	r0x1049
                                           	JBSET	PFLAG,0
                                           	GOTO	_00193_DS_
                                           ;;genSkipc:3291: created from rifx:013B5EFC
                                           ;	.line	188; "MC32F7361.c"	g_timer_count = 0;
                                           	CLRR	_g_timer_count
                                           ;	.line	189; "MC32F7361.c"	g_state = TX_SENDING_BIT;
                                           	MOVAI	0x02
                                           	MOVRA	_g_state
                                           ;	.line	190; "MC32F7361.c"	set_pin_high();
                                           	BSET	_IOP1bits,3
                                           ;	.line	192; "MC32F7361.c"	break;
                                           	GOTO	_00193_DS_
                                           _00164_DS_
                                           ;	.line	195; "MC32F7361.c"	if (g_data[g_byte_count] & SEND_SEND_BIT(g_bit_count))
                                           	MOVAR	_g_byte_count
                                           	ADDAI	(_g_data + 0)
                                           	MOVRA	r0x1049
                                           	MOVAI	high (_g_data + 0)
                                           	JBCLR	PFLAG,0
                                           	ADDAI	0x01
                                           	MOVRA	r0x104A
                                           	MOVAR	r0x1049
                                           	MOVRA	FSR0
                                           	MOVAR	r0x104A
                                           	MOVRA	FSR1
                                           	MOVAR	INDF2
                                           	MOVRA	r0x104B
                                           	MOVAR	_g_bit_count
                                           	ISUBAI	0x07
                                           	MOVRA	r0x1049
                                           	MOVAI	0x00
                                           	MOVRA	r0x104C
                                           	MOVAI	0x01
                                           	MOVRA	r0x104D
                                           	MOVAR	r0x1049
                                           	ISUBAI	0x00
                                           	JBCLR	PFLAG,2
                                           	GOTO	_00373_DS_
                                           _00372_DS_
                                           	RLR	r0x104D
                                           	RLR	r0x104C
                                           	ADDAI	0x01
                                           	JBSET	PFLAG,0
                                           	GOTO	_00372_DS_
                                           _00373_DS_
                                           	MOVAR	r0x104B
                                           	MOVRA	r0x1049
                                           	CLRR	r0x104E
                                           	MOVAR	r0x104D
                                           	ANDAR	r0x1049
                                           	MOVRA	r0x104B
                                           	MOVAR	r0x104C
                                           	ANDAR	r0x104E
                                           	MOVRA	r0x104F
                                           	MOVAR	r0x104B
                                           	ORAR	r0x104F
                                           	JBCLR	PFLAG,2
                                           	GOTO	_00170_DS_
                                           ;	.line	198; "MC32F7361.c"	if (++g_timer_count >= BIT1_HIGH_TIME)
                                           	INCAR	_g_timer_count
                                           	MOVRA	_g_timer_count
                                           	MOVRA	r0x104B
                                           ;;107	MOVAR	r0x104B
                                           ;;unsigned compare: left < lit(0xA=10), size=1
                                           	MOVAI	0x0a
                                           	RSUBAR	r0x104B
                                           	JBSET	PFLAG,0
                                           	GOTO	_00193_DS_
                                           ;;genSkipc:3291: created from rifx:013B5EFC
                                           ;	.line	200; "MC32F7361.c"	g_timer_count = 0;
                                           	CLRR	_g_timer_count
                                           ;	.line	201; "MC32F7361.c"	g_state = TX_SENDING_LOW;
                                           	MOVAI	0x03
                                           	MOVRA	_g_state
                                           ;	.line	202; "MC32F7361.c"	set_pin_low();
                                           	BCLR	_IOP1bits,3
                                           	GOTO	_00193_DS_
                                           _00170_DS_
                                           ;	.line	208; "MC32F7361.c"	if (++g_timer_count >= BIT0_HIGH_TIME)
                                           	INCAR	_g_timer_count
                                           	MOVRA	_g_timer_count
                                           	MOVRA	r0x1049
                                           ;;115	MOVAR	r0x1049
                                           ;;unsigned compare: left < lit(0x5=5), size=1
                                           	MOVAI	0x05
                                           	RSUBAR	r0x1049
                                           	JBSET	PFLAG,0
                                           	GOTO	_00193_DS_
                                           ;;genSkipc:3291: created from rifx:013B5EFC
                                           ;	.line	210; "MC32F7361.c"	g_timer_count = 0;
                                           	CLRR	_g_timer_count
                                           ;	.line	211; "MC32F7361.c"	g_state = TX_SENDING_LOW;
                                           	MOVAI	0x03
                                           	MOVRA	_g_state
                                           ;	.line	212; "MC32F7361.c"	set_pin_low();
                                           	BCLR	_IOP1bits,3
                                           ;	.line	215; "MC32F7361.c"	break;
                                           	GOTO	_00193_DS_
                                           _00172_DS_
                                           ;	.line	218; "MC32F7361.c"	if (g_data[g_byte_count] & SEND_SEND_BIT(g_bit_count))
                                           	MOVAR	_g_byte_count
                                           	ADDAI	(_g_data + 0)
                                           	MOVRA	r0x1049
                                           	MOVAI	high (_g_data + 0)
                                           	JBCLR	PFLAG,0
                                           	ADDAI	0x01
                                           	MOVRA	r0x104B
                                           	MOVAR	r0x1049
                                           	MOVRA	FSR0
                                           	MOVAR	r0x104B
                                           	MOVRA	FSR1
                                           	MOVAR	INDF2
                                           	MOVRA	r0x104D
                                           	MOVAR	_g_bit_count
                                           	ISUBAI	0x07
                                           	MOVRA	r0x1049
                                           	MOVAI	0x00
                                           	MOVRA	r0x104E
                                           	MOVAI	0x01
                                           	MOVRA	r0x104C
                                           	MOVAR	r0x1049
                                           	ISUBAI	0x00
                                           	JBCLR	PFLAG,2
                                           	GOTO	_00377_DS_
                                           _00376_DS_
                                           	RLR	r0x104C
                                           	RLR	r0x104E
                                           	ADDAI	0x01
                                           	JBSET	PFLAG,0
                                           	GOTO	_00376_DS_
                                           _00377_DS_
                                           	MOVAR	r0x104D
                                           	MOVRA	r0x1049
                                           	CLRR	r0x1050
                                           	MOVAR	r0x104C
                                           	ANDAR	r0x1049
                                           	MOVRA	r0x104D
                                           	MOVAR	r0x104E
                                           	ANDAR	r0x1050
                                           	MOVRA	r0x1051
                                           	MOVAR	r0x104D
                                           	ORAR	r0x1051
                                           	JBCLR	PFLAG,2
                                           	GOTO	_00190_DS_
                                           ;	.line	221; "MC32F7361.c"	if (++g_timer_count >= BIT1_LOW_TIME)
                                           	INCAR	_g_timer_count
                                           	MOVRA	_g_timer_count
                                           	MOVRA	r0x104D
                                           ;;108	MOVAR	r0x104D
                                           ;;unsigned compare: left < lit(0x5=5), size=1
                                           	MOVAI	0x05
                                           	RSUBAR	r0x104D
                                           	JBSET	PFLAG,0
                                           	GOTO	_00193_DS_
                                           ;;genSkipc:3291: created from rifx:013B5EFC
                                           ;	.line	223; "MC32F7361.c"	g_timer_count = 0;
                                           	CLRR	_g_timer_count
                                           ;	.line	224; "MC32F7361.c"	if (++g_bit_count >= 8)
                                           	INCAR	_g_bit_count
                                           	MOVRA	_g_bit_count
                                           	MOVRA	r0x1049
                                           ;;114	MOVAR	r0x1049
                                           ;;unsigned compare: left < lit(0x8=8), size=1
                                           	MOVAI	0x08
                                           	RSUBAR	r0x1049
                                           	JBSET	PFLAG,0
                                           	GOTO	_00176_DS_
                                           ;;genSkipc:3291: created from rifx:013B5EFC
                                           ;	.line	226; "MC32F7361.c"	g_bit_count = 0;
                                           	CLRR	_g_bit_count
                                           ;	.line	227; "MC32F7361.c"	if (++g_byte_count >= SEND_DATA_LEN)
                                           	INCAR	_g_byte_count
                                           	MOVRA	_g_byte_count
                                           	MOVRA	r0x1049
                                           ;;113	MOVAR	r0x1049
                                           ;;unsigned compare: left < lit(0x3=3), size=1
                                           	MOVAI	0x03
                                           	RSUBAR	r0x1049
                                           	JBSET	PFLAG,0
                                           	GOTO	_00176_DS_
                                           ;;genSkipc:3291: created from rifx:013B5EFC
                                           ;	.line	229; "MC32F7361.c"	g_state = IDLE;
                                           	CLRR	_g_state
                                           _00176_DS_
                                           ;	.line	232; "MC32F7361.c"	if (g_state != IDLE)
                                           	MOVAI	0x00
                                           	ORAR	_g_state
                                           	JBCLR	PFLAG,2
                                           	GOTO	_00193_DS_
                                           ;	.line	234; "MC32F7361.c"	g_state = TX_SENDING_BIT;
                                           	MOVAI	0x02
                                           	MOVRA	_g_state
                                           ;	.line	235; "MC32F7361.c"	set_pin_high();
                                           	BSET	_IOP1bits,3
                                           	GOTO	_00193_DS_
                                           _00190_DS_
                                           ;	.line	242; "MC32F7361.c"	if (++g_timer_count >= BIT0_LOW_TIME)
                                           	INCAR	_g_timer_count
                                           	MOVRA	_g_timer_count
                                           	MOVRA	r0x1049
                                           ;;112	MOVAR	r0x1049
                                           ;;unsigned compare: left < lit(0xA=10), size=1
                                           	MOVAI	0x0a
                                           	RSUBAR	r0x1049
                                           	JBSET	PFLAG,0
                                           	GOTO	_00193_DS_
                                           ;;genSkipc:3291: created from rifx:013B5EFC
                                           ;	.line	244; "MC32F7361.c"	g_timer_count = 0;
                                           	CLRR	_g_timer_count
                                           ;	.line	245; "MC32F7361.c"	if (++g_bit_count >= 8)
                                           	INCAR	_g_bit_count
                                           	MOVRA	_g_bit_count
                                           	MOVRA	r0x1049
                                           ;;111	MOVAR	r0x1049
                                           ;;unsigned compare: left < lit(0x8=8), size=1
                                           	MOVAI	0x08
                                           	RSUBAR	r0x1049
                                           	JBSET	PFLAG,0
                                           	GOTO	_00184_DS_
                                           ;;genSkipc:3291: created from rifx:013B5EFC
                                           ;	.line	247; "MC32F7361.c"	g_bit_count = 0;
                                           	CLRR	_g_bit_count
                                           ;	.line	248; "MC32F7361.c"	if (++g_byte_count >= SEND_DATA_LEN)
                                           	INCAR	_g_byte_count
                                           	MOVRA	_g_byte_count
                                           	MOVRA	r0x1049
                                           ;;106	MOVAR	r0x1049
                                           ;;unsigned compare: left < lit(0x3=3), size=1
                                           	MOVAI	0x03
                                           	RSUBAR	r0x1049
                                           	JBSET	PFLAG,0
                                           	GOTO	_00184_DS_
                                           ;;genSkipc:3291: created from rifx:013B5EFC
                                           ;	.line	250; "MC32F7361.c"	g_state = IDLE;
                                           	CLRR	_g_state
                                           _00184_DS_
                                           ;	.line	253; "MC32F7361.c"	if (g_state != IDLE)
                                           	MOVAI	0x00
                                           	ORAR	_g_state
                                           	JBCLR	PFLAG,2
                                           	GOTO	_00193_DS_
                                           ;	.line	255; "MC32F7361.c"	g_state = TX_SENDING_BIT;
                                           	MOVAI	0x02
                                           	MOVRA	_g_state
                                           ;	.line	256; "MC32F7361.c"	set_pin_high();
                                           	BSET	_IOP1bits,3
                                           _00193_DS_
                                           ;	.line	266; "MC32F7361.c"	return;
                                           	GOTO	_00228_DS_
                                           _00195_DS_
                                           ;	.line	270; "MC32F7361.c"	set_pin_high();
                                           	BSET	_IOP1bits,3
                                           ;	.line	274; "MC32F7361.c"	pin_state = get_pin_state();
                                           	CLRR	r0x1049
                                           	JBCLR	_IOP2bits,0
                                           	INCR	r0x1049
                                           	MOVAR	r0x1049
                                           	MOVRA	_pin_state
                                           ;	.line	276; "MC32F7361.c"	switch (g_state)
                                           	MOVAR	_g_state
                                           	MOVRA	r0x1049
                                           	MOVAR	r0x1049
                                           	JBSET	PFLAG,2
                                           	GOTO	_00384_DS_
                                           	GOTO	_00199_DS_
                                           _00384_DS_
                                           	MOVAR	r0x1049
                                           	XORAI	0x04
                                           	JBSET	PFLAG,2
                                           	GOTO	_00385_DS_
                                           	GOTO	_00203_DS_
                                           _00385_DS_
                                           	MOVAR	r0x1049
                                           	XORAI	0x05
                                           	JBSET	PFLAG,2
                                           	GOTO	_00386_DS_
                                           	GOTO	_00210_DS_
                                           _00386_DS_
                                           	MOVAR	r0x1049
                                           	XORAI	0x06
                                           	JBSET	PFLAG,2
                                           	GOTO	_00387_DS_
                                           	GOTO	_00222_DS_
                                           _00387_DS_
                                           	GOTO	_00225_DS_
                                           _00199_DS_
                                           ;	.line	279; "MC32F7361.c"	if (pin_state == 0)
                                           	MOVAI	0x00
                                           	ORAR	_pin_state
                                           	JBSET	PFLAG,2
                                           	GOTO	_00225_DS_
                                           ;	.line	281; "MC32F7361.c"	g_timer_count = 0;
                                           	CLRR	_g_timer_count
                                           ;	.line	282; "MC32F7361.c"	g_state = RX_START;
                                           	MOVAI	0x04
                                           	MOVRA	_g_state
                                           ;	.line	283; "MC32F7361.c"	g_byte_count = 0;
                                           	CLRR	_g_byte_count
                                           ;	.line	284; "MC32F7361.c"	g_bit_count = 0;
                                           	CLRR	_g_bit_count
                                           ;	.line	286; "MC32F7361.c"	for (i = 0; i < 9; i++)
                                           	CLRR	_i
                                           _00226_DS_
                                           ;	.line	288; "MC32F7361.c"	g_data[i] = 0;
                                           	MOVAR	_i
                                           	ADDAI	(_g_data + 0)
                                           	MOVRA	r0x1049
                                           	MOVAI	high (_g_data + 0)
                                           	JBCLR	PFLAG,0
                                           	ADDAI	0x01
                                           	MOVRA	r0x104D
                                           	MOVAR	r0x1049
                                           	MOVRA	FSR0
                                           	MOVAR	r0x104D
                                           	MOVRA	FSR1
                                           	MOVAI	0x00
                                           	MOVRA	INDF2
                                           ;	.line	286; "MC32F7361.c"	for (i = 0; i < 9; i++)
                                           	INCR	_i
                                           ;;unsigned compare: left < lit(0x9=9), size=1
                                           	MOVAI	0x09
                                           	RSUBAR	_i
                                           	JBSET	PFLAG,0
                                           	GOTO	_00226_DS_
                                           ;;genSkipc:3291: created from rifx:013B5EFC
                                           ;	.line	291; "MC32F7361.c"	break;
                                           	GOTO	_00225_DS_
                                           _00203_DS_
                                           ;	.line	294; "MC32F7361.c"	g_timer_count++;
                                           	INCR	_g_timer_count
                                           ;	.line	295; "MC32F7361.c"	if (pin_state == 1)
                                           	MOVAR	_pin_state
                                           	XORAI	0x01
                                           	JBSET	PFLAG,2
                                           	GOTO	_00225_DS_
                                           ;;unsigned compare: left < lit(0x50=80), size=1
                                           ;	.line	298; "MC32F7361.c"	if (g_timer_count >= RX_START_MIN_TIME && g_timer_count <= RX_START_MAX_TIME)
                                           	MOVAI	0x50
                                           	RSUBAR	_g_timer_count
                                           	JBSET	PFLAG,0
                                           	GOTO	_00205_DS_
                                           ;;genSkipc:3291: created from rifx:013B5EFC
                                           ;;swapping arguments (AOP_TYPEs 1/3)
                                           ;;unsigned compare: left >= lit(0x97=151), size=1
                                           	MOVAI	0x97
                                           	RSUBAR	_g_timer_count
                                           	JBCLR	PFLAG,0
                                           	GOTO	_00205_DS_
                                           ;;genSkipc:3291: created from rifx:013B5EFC
                                           ;	.line	300; "MC32F7361.c"	g_timer_count = 0;
                                           	CLRR	_g_timer_count
                                           ;	.line	301; "MC32F7361.c"	g_state = RX_DATA;
                                           	MOVAI	0x05
                                           	MOVRA	_g_state
                                           	GOTO	_00225_DS_
                                           _00205_DS_
                                           ;	.line	305; "MC32F7361.c"	g_state = IDLE;
                                           	CLRR	_g_state
                                           ;	.line	308; "MC32F7361.c"	break;
                                           	GOTO	_00225_DS_
                                           _00210_DS_
                                           ;	.line	311; "MC32F7361.c"	g_timer_count++;
                                           	INCR	_g_timer_count
                                           ;	.line	312; "MC32F7361.c"	if (pin_state != g_last_pin_state)
                                           	MOVAR	_g_last_pin_state
                                           	XORAR	_pin_state
                                           	JBSET	PFLAG,2
                                           	GOTO	_00391_DS_
                                           	GOTO	_00225_DS_
                                           _00391_DS_
                                           ;	.line	314; "MC32F7361.c"	if (g_last_pin_state == 1)
                                           	MOVAR	_g_last_pin_state
                                           	XORAI	0x01
                                           	JBSET	PFLAG,2
                                           	GOTO	_00219_DS_
                                           ;;unsigned compare: left < lit(0x8=8), size=1
                                           ;	.line	318; "MC32F7361.c"	if (g_timer_count >= RX_BIT1_MIN_TIME && g_timer_count <= RX_BIT1_MAX_TIME)
                                           	MOVAI	0x08
                                           	RSUBAR	_g_timer_count
                                           	JBSET	PFLAG,0
                                           	GOTO	_00212_DS_
                                           ;;genSkipc:3291: created from rifx:013B5EFC
                                           ;;swapping arguments (AOP_TYPEs 1/3)
                                           ;;unsigned compare: left >= lit(0xD=13), size=1
                                           	MOVAI	0x0d
                                           	RSUBAR	_g_timer_count
                                           	JBCLR	PFLAG,0
                                           	GOTO	_00212_DS_
                                           ;;genSkipc:3291: created from rifx:013B5EFC
                                           ;	.line	320; "MC32F7361.c"	g_data[g_byte_count] |= RECV_RECV_BIT(g_bit_count);
                                           	MOVAR	_g_byte_count
                                           	ADDAI	(_g_data + 0)
                                           	MOVRA	r0x1049
                                           	MOVAI	high (_g_data + 0)
                                           	JBCLR	PFLAG,0
                                           	ADDAI	0x01
                                           	MOVRA	r0x104D
                                           	MOVAR	_g_byte_count
                                           	ADDAI	(_g_data + 0)
                                           	MOVRA	r0x104C
                                           	MOVAI	high (_g_data + 0)
                                           	JBCLR	PFLAG,0
                                           	ADDAI	0x01
                                           	MOVRA	r0x104E
                                           	MOVAR	r0x104C
                                           	MOVRA	FSR0
                                           	MOVAR	r0x104E
                                           	MOVRA	FSR1
                                           	MOVAR	INDF2
                                           	MOVRA	r0x1050
                                           ;;110	MOVAR	_g_bit_count
                                           	MOVAI	0x01
                                           	MOVRA	r0x1052
                                           ;;109	MOVAR	r0x104C
                                           	MOVAR	_g_bit_count
                                           	MOVRA	r0x104C
                                           	JBCLR	r0x104C,7
                                           	GOTO	_00397_DS_
                                           	ISUBAI	0x00
                                           	JBCLR	PFLAG,2
                                           	GOTO	_00395_DS_
                                           _00394_DS_
                                           	RLR	r0x1052
                                           	ADDAI	0x01
                                           	JBSET	PFLAG,0
                                           	GOTO	_00394_DS_
                                           	GOTO	_00395_DS_
                                           _00397_DS_
                                           	BCLR	PFLAG,0
                                           	JBCLR	r0x1052,7
                                           	BSET	PFLAG,0
                                           	RRR	r0x1052
                                           	ADDAI	0x01
                                           	JBSET	PFLAG,0
                                           	GOTO	_00397_DS_
                                           _00395_DS_
                                           	MOVAR	r0x1050
                                           	MOVRA	r0x104C
                                           	MOVAR	r0x1052
                                           	ORAR	r0x104C
                                           	MOVRA	r0x1050
                                           	MOVAR	r0x1049
                                           	MOVRA	FSR0
                                           	MOVAR	r0x104D
                                           	MOVRA	FSR1
                                           	MOVAR	r0x1050
                                           	MOVRA	INDF2
                                           _00212_DS_
                                           ;	.line	323; "MC32F7361.c"	g_bit_count++;
                                           	INCR	_g_bit_count
                                           ;;unsigned compare: left < lit(0x8=8), size=1
                                           ;	.line	324; "MC32F7361.c"	if (g_bit_count >= 8)
                                           	MOVAI	0x08
                                           	RSUBAR	_g_bit_count
                                           	JBSET	PFLAG,0
                                           	GOTO	_00219_DS_
                                           ;;genSkipc:3291: created from rifx:013B5EFC
                                           ;	.line	326; "MC32F7361.c"	g_bit_count = 0;
                                           	CLRR	_g_bit_count
                                           ;	.line	327; "MC32F7361.c"	g_byte_count++;
                                           	INCR	_g_byte_count
                                           ;;unsigned compare: left < lit(0x6=6), size=1
                                           ;	.line	328; "MC32F7361.c"	if (g_byte_count >= RX_DATA_LEN)
                                           	MOVAI	0x06
                                           	RSUBAR	_g_byte_count
                                           	JBSET	PFLAG,0
                                           	GOTO	_00219_DS_
                                           ;;genSkipc:3291: created from rifx:013B5EFC
                                           ;	.line	330; "MC32F7361.c"	g_state = RX_END; // 
                                           	MOVAI	0x06
                                           	MOVRA	_g_state
                                           _00219_DS_
                                           ;	.line	334; "MC32F7361.c"	g_timer_count = 0;
                                           	CLRR	_g_timer_count
                                           ;	.line	336; "MC32F7361.c"	break;
                                           	GOTO	_00225_DS_
                                           _00222_DS_
                                           ;	.line	341; "MC32F7361.c"	if (g_data[0] == 0xA6)
                                           	MOVAR	(_g_data + 0)
                                           	MOVRA	r0x1049
                                           	MOVAR	r0x1049
                                           	XORAI	0xa6
                                           	JBSET	PFLAG,2
                                           	GOTO	_00224_DS_
                                           ;	.line	343; "MC32F7361.c"	thousand = g_data[1] >> 4 & 0x0F;
                                           	MOVAR	(_g_data + 1)
                                           	MOVRA	r0x1049
                                           	SWAPAR	r0x1049
                                           	ANDAI	0x0f
                                           	MOVRA	r0x104D
                                           	MOVAI	0x0f
                                           	ANDAR	r0x104D
                                           	MOVRA	_thousand
                                           ;	.line	344; "MC32F7361.c"	hundred = g_data[1] & 0x0F;
                                           	MOVAR	(_g_data + 1)
                                           	MOVRA	r0x1049
                                           	MOVAI	0x0f
                                           	ANDAR	r0x1049
                                           	MOVRA	_hundred
                                           ;	.line	345; "MC32F7361.c"	decade = g_data[2] >> 4 & 0x0F;
                                           	MOVAR	(_g_data + 2)
                                           	MOVRA	r0x1049
                                           	SWAPAR	r0x1049
                                           	ANDAI	0x0f
                                           	MOVRA	r0x104D
                                           	MOVAI	0x0f
                                           	ANDAR	r0x104D
                                           	MOVRA	_decade
                                           ;	.line	346; "MC32F7361.c"	unit = g_data[2] & 0x0F;
                                           	MOVAR	(_g_data + 2)
                                           	MOVRA	r0x1049
                                           	MOVAI	0x0f
                                           	ANDAR	r0x1049
                                           	MOVRA	_unit
                                           ;	.line	347; "MC32F7361.c"	flag_recv_time_ack = 1;
                                           	BSET	_flag1,3
                                           _00224_DS_
                                           ;	.line	350; "MC32F7361.c"	g_state = IDLE;
                                           	CLRR	_g_state
                                           _00225_DS_
                                           ;	.line	353; "MC32F7361.c"	g_last_pin_state = pin_state;
                                           	MOVAR	_pin_state
                                           	MOVRA	_g_last_pin_state
                                           _00228_DS_
                                           ;	.line	354; "MC32F7361.c"	}
                                           	RETURN	
                                           ; exit point of _timer_100us_isr
                                           
                                           ;***
                                           ;  pBlock Stats: dbName = C
                                           ;***
                                           ;entry:  _start_send	;Function start
                                           ; 2 exit points
                                           ;has an exit
                                           ;5 compiler assigned registers:
                                           ;   r0x1038
                                           ;   r0x1039
                                           ;   r0x103A
                                           ;   r0x103B
                                           ;   r0x103C
                                           ;; Starting pCode block
                                           _start_send	;Function start
                                           ; 2 exit points
                                           ;	.line	159; "MC32F7361.c"	if (g_state != IDLE)
                                           	MOVAI	0x00
                                           	ORAR	_g_state
                                           	JBCLR	PFLAG,2
                                           	GOTO	_00152_DS_
                                           ;	.line	160; "MC32F7361.c"	return; // 
                                           	GOTO	_00156_DS_
                                           _00152_DS_
                                           ;	.line	163; "MC32F7361.c"	for (i = 0; i < SEND_DATA_LEN; i++)
                                           	CLRR	_i
                                           _00154_DS_
                                           ;	.line	166; "MC32F7361.c"	g_data[i] = send_buf[i];
                                           	MOVAR	_i
                                           	ADDAI	(_g_data + 0)
                                           	MOVRA	r0x1038
                                           	MOVAI	high (_g_data + 0)
                                           	JBCLR	PFLAG,0
                                           	ADDAI	0x01
                                           	MOVRA	r0x1039
                                           	MOVAR	_i
                                           	ADDAI	(_send_buf + 0)
                                           	MOVRA	r0x103A
                                           	MOVAI	high (_send_buf + 0)
                                           	JBCLR	PFLAG,0
                                           	ADDAI	0x01
                                           	MOVRA	r0x103B
                                           	MOVAR	r0x103A
                                           	MOVRA	FSR0
                                           	MOVAR	r0x103B
                                           	MOVRA	FSR1
                                           	MOVAR	INDF2
                                           	MOVRA	r0x103C
                                           	MOVAR	r0x1038
                                           	MOVRA	FSR0
                                           	MOVAR	r0x1039
                                           	MOVRA	FSR1
                                           	MOVAR	r0x103C
                                           	MOVRA	INDF2
                                           ;	.line	163; "MC32F7361.c"	for (i = 0; i < SEND_DATA_LEN; i++)
                                           	INCR	_i
                                           ;;unsigned compare: left < lit(0x3=3), size=1
                                           	MOVAI	0x03
                                           	RSUBAR	_i
                                           	JBSET	PFLAG,0
                                           	GOTO	_00154_DS_
                                           ;;genSkipc:3291: created from rifx:013B5EFC
                                           ;	.line	169; "MC32F7361.c"	g_byte_count = 0;
                                           	CLRR	_g_byte_count
                                           ;	.line	170; "MC32F7361.c"	g_bit_count = 0;
                                           	CLRR	_g_bit_count
                                           ;	.line	171; "MC32F7361.c"	g_timer_count = 0;
                                           	CLRR	_g_timer_count
                                           ;	.line	172; "MC32F7361.c"	g_state = TX_START;
                                           	MOVAI	0x01
                                           	MOVRA	_g_state
                                           ;	.line	174; "MC32F7361.c"	set_pin_low(); // 
                                           	BCLR	_IOP1bits,3
                                           _00156_DS_
                                           ;	.line	175; "MC32F7361.c"	}
                                           	RETURN	
                                           ; exit point of _start_send
                                           
                                           ;***
                                           ;  pBlock Stats: dbName = C
                                           ;***
                                           ;entry:  _pwm_led_config	;Function start
                                           ; 2 exit points
                                           ;has an exit
                                           ;; Starting pCode block
                                           _pwm_led_config	;Function start
                                           ; 2 exit points
                                           ;	.line	139; "MC32F7361.c"	T0CR = DEF_SET_BIT6 | DEF_SET_BIT0 | DEF_SET_BIT1; // PWM,CPU,8
                                           	MOVAI	0x43
                                           	MOVRA	_T0CR
                                           ;	.line	140; "MC32F7361.c"	T0CNT = 255 - 1;
                                           	MOVAI	0xfe
                                           	MOVRA	_T0CNT
                                           ;	.line	141; "MC32F7361.c"	T0LOAD = 255 - 1; //
                                           	MOVAI	0xfe
                                           	MOVRA	_T0LOAD
                                           ;	.line	144; "MC32F7361.c"	T2CR = DEF_SET_BIT6 | DEF_SET_BIT0 | DEF_SET_BIT1; // PWM,CPU,8
                                           	MOVAI	0x43
                                           	MOVRA	_T2CR
                                           ;	.line	145; "MC32F7361.c"	T2CNT = 255 - 1;
                                           	MOVAI	0xfe
                                           	MOVRA	_T2CNT
                                           ;	.line	146; "MC32F7361.c"	T2LOAD = 255 - 1; //
                                           	MOVAI	0xfe
                                           	MOVRA	_T2LOAD
                                           ;	.line	149; "MC32F7361.c"	PWMCR1 = 0x00; // pwm
                                           	CLRR	_PWMCR1
                                           ;	.line	150; "MC32F7361.c"	PWMCR3 = 0x04; // PWM0P02
                                           	MOVAI	0x04
                                           	MOVRA	_PWMCR3
                                           ;	.line	151; "MC32F7361.c"	T0EN = 1;
                                           	BSET	_T0CRbits,7
                                           ;	.line	152; "MC32F7361.c"	T2EN = 1;
                                           	BSET	_T2CRbits,7
                                           ;	.line	153; "MC32F7361.c"	}
                                           	RETURN	
                                           ; exit point of _pwm_led_config
                                           
                                           ;***
                                           ;  pBlock Stats: dbName = C
                                           ;***
                                           ;entry:  _timer3_config	;Function start
                                           ; 2 exit points
                                           ;has an exit
                                           ;; Starting pCode block
                                           _timer3_config	;Function start
                                           ; 2 exit points
                                           ;	.line	128; "MC32F7361.c"	T3CR = 0x03; // ,CPU,8
                                           	MOVAI	0x03
                                           	MOVRA	_T3CR
                                           ;	.line	130; "MC32F7361.c"	T3LOAD = 100 - 1; // 8100us
                                           	MOVAI	0x63
                                           	MOVRA	_T3LOAD
                                           ;	.line	131; "MC32F7361.c"	T3EN = 1;
                                           	BSET	_T3CRbits,7
                                           ;	.line	132; "MC32F7361.c"	T3IE = 1;
                                           	BSET	_INTEbits,7
                                           ;	.line	133; "MC32F7361.c"	}
                                           	RETURN	
                                           ; exit point of _timer3_config
                                           
                                           ;***
                                           ;  pBlock Stats: dbName = C
                                           ;***
                                           ;entry:  _timer1_config	;Function start
                                           ; 2 exit points
                                           ;has an exit
                                           ;; Starting pCode block
                                           _timer1_config	;Function start
                                           ; 2 exit points
                                           ;	.line	117; "MC32F7361.c"	T1CR = 0x15; // FLOSC3232Khz(32768) / 32  1Khz0.9765625ms
                                           	MOVAI	0x15
                                           	MOVRA	_T1CR
                                           ;	.line	119; "MC32F7361.c"	T1LOAD = 10 - 1; //
                                           	MOVAI	0x09
                                           	MOVRA	_T1LOAD
                                           ;	.line	121; "MC32F7361.c"	T1EN = 1;
                                           	BSET	_T1CRbits,7
                                           ;	.line	122; "MC32F7361.c"	T1IE = 1;
                                           	BSET	_INTEbits,1
                                           ;	.line	123; "MC32F7361.c"	}
                                           	RETURN	
                                           ; exit point of _timer1_config
                                           
                                           ;***
                                           ;  pBlock Stats: dbName = C
                                           ;***
                                           ;entry:  _adc_config	;Function start
                                           ; 2 exit points
                                           ;has an exit
                                           ;; Starting pCode block
                                           _adc_config	;Function start
                                           ; 2 exit points
                                           ;	.line	94; "MC32F7361.c"	P12OE = 0;    // 
                                           	BCLR	_OEP1bits,2
                                           ;	.line	95; "MC32F7361.c"	P12DC = 1;    // 
                                           	BSET	_P1ADCRbits,2
                                           ;	.line	96; "MC32F7361.c"	ADCR0 = 0xFB; // ADC12H8L4
                                           	MOVAI	0xfb
                                           	MOVRA	_ADCR0
                                           ;	.line	99; "MC32F7361.c"	ADCR2 = 0xFF; // 15ADCLK
                                           	MOVAI	0xff
                                           	MOVRA	_ADCR2
                                           ;	.line	101; "MC32F7361.c"	ADEN = 1;
                                           	BSET	_ADCR0bits,0
                                           ;	.line	102; "MC32F7361.c"	}
                                           	RETURN	
                                           ; exit point of _adc_config
                                           
                                           ;***
                                           ;  pBlock Stats: dbName = C
                                           ;***
                                           ;entry:  _IO_Init	;Function start
                                           ; 2 exit points
                                           ;has an exit
                                           ;; Starting pCode block
                                           _IO_Init	;Function start
                                           ; 2 exit points
                                           ;	.line	70; "MC32F7361.c"	IOP0 = 0x00;   // io
                                           	CLRR	_IOP0
                                           ;	.line	71; "MC32F7361.c"	OEP0 = 0x3F;   // io 1:out  0:in
                                           	MOVAI	0x3f
                                           	MOVRA	_OEP0
                                           ;	.line	72; "MC32F7361.c"	PUP0 = 0x00;   // io   1:enable  0:disable
                                           	CLRR	_PUP0
                                           ;	.line	73; "MC32F7361.c"	PDP0 = 0x00;   // io   1:enable  0:disable
                                           	CLRR	_PDP0
                                           ;	.line	74; "MC32F7361.c"	P0ADCR = 0x00; // io  1:  0:io
                                           	CLRR	_P0ADCR
                                           ;	.line	76; "MC32F7361.c"	IOP1 = 0x00;   // io
                                           	CLRR	_IOP1
                                           ;	.line	77; "MC32F7361.c"	OEP1 = 0xFF;   // io 1:out  0:in
                                           	MOVAI	0xff
                                           	MOVRA	_OEP1
                                           ;	.line	78; "MC32F7361.c"	PUP1 = 0x00;   // io   1:enable  0:disable
                                           	CLRR	_PUP1
                                           ;	.line	79; "MC32F7361.c"	PDP1 = 0x00;   // io   1:enable  0:disable
                                           	CLRR	_PDP1
                                           ;	.line	80; "MC32F7361.c"	P1ADCR = 0x00; // io  1:  0:io
                                           	CLRR	_P1ADCR
                                           ;	.line	82; "MC32F7361.c"	IOP2 = 0x00; // io
                                           	CLRR	_IOP2
                                           ;	.line	83; "MC32F7361.c"	OEP2 = 0x0F; // io 1:out  0:in
                                           	MOVAI	0x0f
                                           	MOVRA	_OEP2
                                           ;	.line	84; "MC32F7361.c"	PUP2 = 0x00; // io   1:enable  0:disable
                                           	CLRR	_PUP2
                                           ;	.line	85; "MC32F7361.c"	PDP2 = 0x00; // io   1:enable  0:disablea
                                           	CLRR	_PDP2
                                           ;	.line	87; "MC32F7361.c"	PMOD = 0x00;  // P00P01P13 io
                                           	CLRR	_PMOD
                                           ;	.line	88; "MC32F7361.c"	DRVCR = 0x80; // 
                                           	MOVAI	0x80
                                           	MOVRA	_DRVCR
                                           ;	.line	89; "MC32F7361.c"	}
                                           	RETURN	
                                           ; exit point of _IO_Init
                                           
                                           ;***
                                           ;  pBlock Stats: dbName = C
                                           ;***
                                           ;entry:  _CLR_RAM	;Function start
                                           ; 2 exit points
                                           ;has an exit
                                           ;; Starting pCode block
                                           _CLR_RAM	;Function start
                                           ; 2 exit points
                                           ;	.line	55; "MC32F7361.c"	for (FSR0 = 0; FSR0 < 0xff; FSR0++)
                                           	CLRR	_FSR0
                                           ;;unsigned compare: left < lit(0xFF=255), size=1
                                           _00126_DS_
                                           	MOVAI	0xff
                                           	RSUBAR	_FSR0
                                           	JBCLR	PFLAG,0
                                           	GOTO	_00124_DS_
                                           ;;genSkipc:3291: created from rifx:013B5EFC
                                           ;	.line	57; "MC32F7361.c"	INDF0 = 0x00;
                                           	CLRR	_INDF0
                                           ;	.line	55; "MC32F7361.c"	for (FSR0 = 0; FSR0 < 0xff; FSR0++)
                                           	INCR	_FSR0
                                           	GOTO	_00126_DS_
                                           _00124_DS_
                                           ;	.line	59; "MC32F7361.c"	FSR0 = 0xFF;
                                           	MOVAI	0xff
                                           	MOVRA	_FSR0
                                           ;	.line	60; "MC32F7361.c"	INDF0 = 0x00;
                                           	CLRR	_INDF0
                                           ;	.line	61; "MC32F7361.c"	}
                                           	RETURN	
                                           ; exit point of _CLR_RAM
                                           
                                           ;***
                                           ;  pBlock Stats: dbName = C
                                           ;***
                                           ;entry:  _delay_us	;Function start
                                           ; 2 exit points
                                           ;has an exit
                                           ;1 compiler assigned register :
                                           ;   r0x1038
                                           ;; Starting pCode block
                                           _delay_us	;Function start
                                           ; 2 exit points
                                           ;	.line	38; "MC32F7361.c"	void delay_us(u8 xus)
                                           	MOVRA	r0x1038
                                           _00116_DS_
                                           ;	.line	40; "MC32F7361.c"	while (xus)
                                           	MOVAI	0x00
                                           	ORAR	r0x1038
                                           	JBCLR	PFLAG,2
                                           	GOTO	_00119_DS_
                                           ;	.line	42; "MC32F7361.c"	Nop();
                                           	nop	
                                           ;	.line	43; "MC32F7361.c"	xus--; //  --while()
                                           	DECR	r0x1038
                                           	GOTO	_00116_DS_
                                           _00119_DS_
                                           ;	.line	45; "MC32F7361.c"	}
                                           	RETURN	
                                           ; exit point of _delay_us
                                           
                                           ;***
                                           ;  pBlock Stats: dbName = C
                                           ;***
                                           ;entry:  _delay_ms	;Function start
                                           ; 2 exit points
                                           ;has an exit
                                           ;7 compiler assigned registers:
                                           ;   r0x1038
                                           ;   STK00
                                           ;   r0x1039
                                           ;   r0x103A
                                           ;   r0x103B
                                           ;   r0x103C
                                           ;   r0x103D
                                           ;; Starting pCode block
                                           _delay_ms	;Function start
                                           ; 2 exit points
                                           ;	.line	20; "MC32F7361.c"	void delay_ms(u16 xms)
                                           	MOVRA	r0x1038
                                           	MOVAR	STK00
                                           	MOVRA	r0x1039
                                           _00108_DS_
                                           ;	.line	22; "MC32F7361.c"	while (xms)
                                           	MOVAR	r0x1039
                                           	ORAR	r0x1038
                                           	JBCLR	PFLAG,2
                                           	GOTO	_00111_DS_
                                           ;	.line	25; "MC32F7361.c"	while (i--)
                                           	MOVAI	0x3c
                                           	MOVRA	r0x103A
                                           	MOVAI	0x02
                                           	MOVRA	r0x103B
                                           _00105_DS_
                                           	MOVAR	r0x103A
                                           	MOVRA	r0x103C
                                           	MOVAR	r0x103B
                                           	MOVRA	r0x103D
                                           	MOVAI	0xff
                                           	ADDRA	r0x103A
                                           	JBSET	PFLAG,0
                                           	DECR	r0x103B
                                           	MOVAR	r0x103C
                                           	ORAR	r0x103D
                                           	JBCLR	PFLAG,2
                                           	GOTO	_00107_DS_
                                           ;	.line	27; "MC32F7361.c"	Nop();
                                           	nop	
                                           	GOTO	_00105_DS_
                                           _00107_DS_
                                           ;	.line	29; "MC32F7361.c"	xms--; //  --while()
                                           	MOVAI	0xff
                                           	ADDRA	r0x1039
                                           	JBSET	PFLAG,0
                                           	DECR	r0x1038
                                           ;	.line	33; "MC32F7361.c"	__endasm;
                                           	;
                                           	clrwdt;
                                           	
                                           	GOTO	_00108_DS_
                                           _00111_DS_
                                           ;	.line	35; "MC32F7361.c"	}
                                           	RETURN	
                                           ; exit point of _delay_ms
                                           
                                           
                                           ;	code size estimation:
                                           ;	 1715+    0 =  1715 instructions ( 3430 byte)
                                           
                                           	end


MEMORY USAGE MAP ('X' = Used,  '-' = Unused)

0000 : XXXXXXXXXXXXXXXX XXXXXXXXXXXXXXXX XXXXXXXXXXXXXXXX XXXXXXXXXXXXXXXX
0040 : XXXXXXXXXXXXXXXX XXXXXXXXXXXXXXXX XXXXXXXXXXXXXXXX XXXXXXXXXXXXXXXX
0080 : XXXXXXXXXXXXXXXX XXXXXXXXXXXXXXXX XXXXXXXXXXXXXXXX XXXXXXXXXXXXXXXX
00C0 : XXXXXXXXXXXXXXXX XXXXXXXXXXXXXXXX XXXXXXXXXXXXXXXX XXXXXXXXXXXXXXXX
0100 : XXXXXXXXXXXXXXXX XXXXXXXXXXXXXXXX XXXXXXXXXXXXXXXX XXXXXXXXXXXXXXXX
0140 : XXXXXXXXXXXXXXXX XXXXXXXXXXXXXXXX XXXXXXXXXXXXXXXX XXXXXXXXXXXXXXXX
0180 : XXXXXXXXXXXXXXXX XXXXXXXXXXXXXXXX XXXXXXXXXXXXXXXX XXXXXXXXXXXXXXXX
01C0 : XXXXXXXXXXXXXXXX XXXXXXXXXXXXXXXX XXXXXXXXXXXXXXXX XXXXXXXXXXXXXXXX
0200 : XXXXXXXXXXXXXXXX XXXXXXXXXXXXXXXX XXXXXXXXXXXXXXXX XXXXXXXXXXXXXXXX
0240 : XXXXXXXXXXXXXXXX XXXXXXXXXXXXXXXX XXXXXXXXXXXXXXXX XXXXXXXXXXXXXXXX
0280 : XXXXXXXXXXXXXXXX XXXXXXXXXXXXXXXX XXXXXXXXXXXXXXXX XXXXXXXXXXXXXXXX
02C0 : XXXXXXXXXXXXXXXX XXXXXXXXXXXXXXXX XXXXXXXXXXXXXXXX XXXXXXXXXXXXXXXX
0300 : XXXXXXXXXXXXXXXX XXXXXXXXXXXXXXXX XXXXXXXXXXXXXXXX XXXXXXXXXXXXXXXX
0340 : XXXXXXXXXXXXXXXX XXXXXXXXXXXXXXXX XXXXXXXXXXXXXXXX XXXXXXXXXXXXXXXX
0380 : XXXXXXXXXXXXXXXX XXXXXXXXXXXXXXXX XXXXXXXXXXXXXXXX XXXXXXXXXXXXXXXX
03C0 : XXXXXXXXXXXXXXXX XXXXXXXXXXXXXXXX XXXXXXXXXXXXXXXX XXXXXXXXXXXXXXXX
0400 : XXXXXXXXXXXXXXXX XXXXXXXXXXXXXXXX XXXXXXXXXXXXXXXX XXXXXXXXXXXXXXXX
0440 : XXXXXXXXXXXXXXXX XXXXXXXXXXXXXXXX XXXXXXXXXXXXXXXX XXXXXXXXXXXXXXXX
0480 : XXXXXXXXXXXXXXXX XXXXXXXXXXXXXXXX XXXXXXXXXXXXXXXX XXXXXXXXXXXXXXXX
04C0 : XXXXXXXXXXXXXXXX XXXXXXXXXXXXXXXX XXXXXXXXXXXXXXXX XXXXXXXXXXXXXXXX
0500 : XXXXXXXXXXXXXXXX XXXXXXXXXXXXXXXX XXXXXXXXXXXXXXXX XXXXXXXXXXXXXXXX
0540 : XXXXXXXXXXXXXXXX XXXXXXXXXXXXXXXX XXXXXXXXXXXXXXXX XXXXXXXXXXXXXXXX
0580 : XXXXXXXXXXXXXXXX XXXXXXXXXXXXXXXX XXXXXXXXXXXXXXXX XXXXXXXXXXXXXXXX
05C0 : XXXXXXXXXXXXXXXX XXXXXXXXXXXXXXXX XXXXXXXXXXXXXXXX XXXXXXXXXXXXXXXX
0600 : XXXXXXXXXXXXXXXX XXXXXXXXXXXXXXXX XXXXXXXXXXXXXXXX XXXXXXXXXXXXXXXX
0640 : XXXXXXXXXXXXXXXX XXXXXXXXXXXXXXXX XXXXXXXXXXXXXXXX XXXXXXXXXXXXXXXX
0680 : XXXXXXXXXXXXXXXX XXXXXXXXXXXXXXXX XXXXXXXXXXXXXXXX XXXXXXXXXXXXXXXX
06C0 : XXXXXXXXXXXXXXXX XXXXXXXXXXXXXXXX XXXXXXXXXXXXXXXX XXXXXXXXXXXXXXXX
0700 : XXXXXXXXXXXXXXXX XXXXXXXXXXXXXXXX XXXXXXXXXXXXXXXX XXXXXXXXXXXXXXXX
0740 : XXXXXXXXXXXXXXXX XXXXXXXXXXXXXXXX XXXXXXXXXXXXXXXX XXXXXXXXXXXXXXXX
0780 : XXXXXXXXXXXXXXXX XXXXXXXXXXXXXXXX XXXXXXXXXXXXXXXX XXXXXXXXXXXXXXXX
07C0 : XXXXXXXXXXXXXXXX XXXXXXXXXXXXXXXX XXXXXXXXXXXXXXXX XXXXXXXXXXXXXXXX
0800 : XXXXXXXXXXXXXXXX XXXXXXXXXXXXXXXX XXXXXXXXXXXXXXXX XXXXXXXXXXXXXXXX
0840 : XXXXXXXXXXXXXXXX XXXXXXXXXXXXXXXX XXXXXXXXXXXXXXXX XXXXXXXXXXXXXXXX
0880 : XXXXXXXXXXXXXXXX XXXXXXXXXXXXXXXX XXXXXXXXXXXXXXXX XXXXXXXXXXXXXXXX
08C0 : XXXXXXXXXXXXXXXX XXXXXXXXXXXXXXXX XXXXXXXXXXXXXXXX XXXXXXXXXXXXXXXX
0900 : XXXXXXXXXXXXXXXX XXXXXXXXXXXXXXXX XXXXXXXXXXXXXXXX XXXXXXXXXXXXXXXX
0940 : XXXXXXXXXXXXXXXX XXXXXXXXXXXXXXXX XXXXXXXXXXXXXXXX XXXXXXXXXXXXXXXX
0980 : XXXXXXXXXXXXXXXX XXXXXXXXXXXXXXXX XXXXXXXXXXXXXXXX XXXXXXXXXXXXXXXX
09C0 : XXXXXXXXXXXXXXXX XXXXXXXXXXXXXXXX XXXXXXXXXXXXXXXX XXXXXXXXXXXXXXXX
0A00 : XXXXXXXXXXXXXXXX XXXXXXXXXXXXXXXX XXXXXXXXXXXXXXXX XXXXXXXXXXXXXXXX
0A40 : XXXXXXXXXXXXXXXX XXXXXXXXXXXXXXXX XXXXXXXXXXXXXXXX XXXXXXXXXXXXXXXX
0A80 : XXXXXXXXXXXXXXXX XXXXXXXXXXXXXXXX XXXXXXXXXXXXXXXX XXXXXXXXXXXXXXXX
0AC0 : XXXXXXXXXXXXXXXX XXXXXXXXXXXXXXXX XXXXXXXXXXXXXXXX XXXXXXXXXXXXXXXX
0B00 : XXXXXXXXXXXXXXXX XXXXXXXXXXXXXXXX XXXXXXXXXXXXXXXX XXXXXXXXXXXXXXXX
0B40 : XXXXXXXXXXXXXXXX XXXXXXXXXXXXXXXX XXXXXXXXXXXXXXXX XXXXXXXXXXXXXXXX
0B80 : XXXXXXXXXXXXXXXX XXXXXXXXXXXXXXXX XXXXXXXXXXXXXXXX XXXXXXXXXXXXXXXX
0BC0 : XXXXXXXXXXXXXXXX XXXXXXXXXXXXXXXX XXXXXXXXXXXXXXXX XXXXXXXXXXXXXXXX
0C00 : XXXXXXXXXXXXXXXX XXXXXXXXXXXXXXXX XXXXXXXXXXXXXXXX XXXXXXXXXXXXXXXX
0C40 : XXXXXXXXXXXXXXXX XXXXXXXXXXXXXXXX XXXXXXXXXXXXXXXX XXXXXXXXXXXXXXXX
0C80 : XXXXXXXXXXXXXXXX XXXXXXXXXXXXXXXX XXXXXXXXXXXXXXXX XXXXXXXXXXXXXXXX
0CC0 : XXXXXXXXXXXXXXXX XXXXXXXXXXXXXXXX XXXXXXXXXXXXXXXX XXXXXXXXXXXXXXXX
0D00 : XXXXXXXXXXXXXXXX XXXXXXXXXXXXXXXX XXXXXXXXXXXXXXXX XXXXXXXXXXXXXXXX
0D40 : XXXXXXXXXXXXXXXX XXXXXXXXXXXXXXXX XXXXXXXXXXXXXXXX XXXXXXXXXXXXXXXX
0D80 : XXXXXXXXXXXXXXXX XXXXXXXXXXXXXXXX XXXXXXXXXXXXXXXX XXXXXXXXXXXXXXXX
0DC0 : XXXXXXXXXXXXXXXX XXXXXXXXXXXXXXXX XXXXXXXXXXXXXXXX XXXXXXXXXXXXXXXX
0E00 : XXXXXXXXXXXXXXXX XXXXXXXXXXXXXXXX XXXXXX---------- ----------------

All other memory blocks unused.

Program Memory Words Used:  1811

